ARM GAS  C:\Users\Godwin\AppData\Local\Temp\ccp2w5OU.s 			page 1


   1              		.cpu cortex-m7
   2              		.arch armv7e-m
   3              		.fpu fpv5-d16
   4              		.eabi_attribute 28, 1
   5              		.eabi_attribute 20, 1
   6              		.eabi_attribute 21, 1
   7              		.eabi_attribute 23, 3
   8              		.eabi_attribute 24, 1
   9              		.eabi_attribute 25, 1
  10              		.eabi_attribute 26, 1
  11              		.eabi_attribute 30, 6
  12              		.eabi_attribute 34, 1
  13              		.eabi_attribute 18, 4
  14              		.file	"dm_arm.c"
  15              		.text
  16              	.Ltext0:
  17              		.cfi_sections	.debug_frame
  18              		.file 1 "User/Hardware/dm_arm.c"
  19              		.global	motor1
  20              		.section	.bss.motor1,"aw",%nobits
  21              		.align	3
  24              	motor1:
  25 0000 00000000 		.space	216
  25      00000000 
  25      00000000 
  25      00000000 
  25      00000000 
  26              		.section	.text.Arm_Init,"ax",%progbits
  27              		.align	1
  28              		.global	Arm_Init
  29              		.syntax unified
  30              		.thumb
  31              		.thumb_func
  33              	Arm_Init:
  34              	.LFB144:
   1:User/Hardware/dm_arm.c **** #include "dm_arm.h"
   2:User/Hardware/dm_arm.c **** #include "motor.h"
   3:User/Hardware/dm_arm.c **** #include "dm4310_drv.h"
   4:User/Hardware/dm_arm.c **** #include "Robstride04.h"
   5:User/Hardware/dm_arm.c **** #include "pid.h"
   6:User/Hardware/dm_arm.c **** #include "motor.h"
   7:User/Hardware/dm_arm.c **** #include "remote_control.h"
   8:User/Hardware/dm_arm.c **** extern Motor_DM_Status DM_Status[6];
   9:User/Hardware/dm_arm.c **** RobStride_Motor_t motor1;
  10:User/Hardware/dm_arm.c **** void Arm_Init()
  11:User/Hardware/dm_arm.c **** {
  35              		.loc 1 11 1
  36              		.cfi_startproc
  37              		@ args = 0, pretend = 0, frame = 0
  38              		@ frame_needed = 1, uses_anonymous_args = 0
  39 0000 80B5     		push	{r7, lr}
  40              	.LCFI0:
  41              		.cfi_def_cfa_offset 8
  42              		.cfi_offset 7, -8
  43              		.cfi_offset 14, -4
  44 0002 00AF     		add	r7, sp, #0
  45              	.LCFI1:
ARM GAS  C:\Users\Godwin\AppData\Local\Temp\ccp2w5OU.s 			page 2


  46              		.cfi_def_cfa_register 7
  12:User/Hardware/dm_arm.c **** 
  13:User/Hardware/dm_arm.c **** // 1. 初始化电机（使用私有协议，非MIT模式）
  14:User/Hardware/dm_arm.c **** RobStride_Motor_Init(&motor1, 0x01, false);  // ID=0x01, MIT模式=false
  47              		.loc 1 14 1
  48 0004 0022     		movs	r2, #0
  49 0006 0121     		movs	r1, #1
  50 0008 2848     		ldr	r0, .L2
  51 000a FFF7FEFF 		bl	RobStride_Motor_Init
  15:User/Hardware/dm_arm.c **** 
  16:User/Hardware/dm_arm.c **** // 2. 设置为位置控制模式（CSP模式）
  17:User/Hardware/dm_arm.c **** // 注意：这里我们使用私有协议的CSP控制模式
  18:User/Hardware/dm_arm.c **** // 首先读取当前模式（修改：补充hcan参数，传入&hfdcan2并转换为hcan_t*）
  19:User/Hardware/dm_arm.c **** Get_RobStride_Motor_parameter(&motor1, &hfdcan2, 0X7005);
  52              		.loc 1 19 1
  53 000e 47F20502 		movw	r2, #28677
  54 0012 2749     		ldr	r1, .L2+4
  55 0014 2548     		ldr	r0, .L2
  56 0016 FFF7FEFF 		bl	Get_RobStride_Motor_parameter
  20:User/Hardware/dm_arm.c **** 
  21:User/Hardware/dm_arm.c **** // 等待一小段时间让电机响应（实际应用中应该使用更可靠的通信机制）
  22:User/Hardware/dm_arm.c **** HAL_Delay(10);
  57              		.loc 1 22 1
  58 001a 0A20     		movs	r0, #10
  59 001c FFF7FEFF 		bl	HAL_Delay
  23:User/Hardware/dm_arm.c **** 
  24:User/Hardware/dm_arm.c **** // 设置电机为CSP位置模式（修改：补充hcan参数）
  25:User/Hardware/dm_arm.c **** Set_RobStride_Motor_parameter(&motor1, &hfdcan2, 0X7005, CSP_control_mode, 'j');
  60              		.loc 1 25 1
  61 0020 6A23     		movs	r3, #106
  62 0022 B1EE040A 		vmov.f32	s0, #5.0e+0
  63 0026 47F20502 		movw	r2, #28677
  64 002a 2149     		ldr	r1, .L2+4
  65 002c 1F48     		ldr	r0, .L2
  66 002e FFF7FEFF 		bl	Set_RobStride_Motor_parameter
  26:User/Hardware/dm_arm.c **** 
  27:User/Hardware/dm_arm.c **** // 3. 使能电机（修改：补充hcan参数）
  28:User/Hardware/dm_arm.c **** Enable_Motor(&motor1, (hcan_t*)&hfdcan2);
  67              		.loc 1 28 1
  68 0032 1F49     		ldr	r1, .L2+4
  69 0034 1D48     		ldr	r0, .L2
  70 0036 FFF7FEFF 		bl	Enable_Motor
  29:User/Hardware/dm_arm.c **** 
  30:User/Hardware/dm_arm.c **** // 4. 设置位置控制参数
  31:User/Hardware/dm_arm.c **** // 设置速度限制为1 rad/s（修改：补充hcan参数）
  32:User/Hardware/dm_arm.c **** Set_RobStride_Motor_parameter(&motor1, &hfdcan2, 0X7017, 1.0f, 'p');
  71              		.loc 1 32 1
  72 003a 7023     		movs	r3, #112
  73 003c B7EE000A 		vmov.f32	s0, #1.0e+0
  74 0040 47F21702 		movw	r2, #28695
  75 0044 1A49     		ldr	r1, .L2+4
  76 0046 1948     		ldr	r0, .L2
  77 0048 FFF7FEFF 		bl	Set_RobStride_Motor_parameter
  33:User/Hardware/dm_arm.c **** 
  34:User/Hardware/dm_arm.c **** HAL_Delay(10);  // 等待参数设置完成
  78              		.loc 1 34 1
  79 004c 0A20     		movs	r0, #10
ARM GAS  C:\Users\Godwin\AppData\Local\Temp\ccp2w5OU.s 			page 3


  80 004e FFF7FEFF 		bl	HAL_Delay
  35:User/Hardware/dm_arm.c **** 
  36:User/Hardware/dm_arm.c **** 
  37:User/Hardware/dm_arm.c **** /////达妙电机///////
  38:User/Hardware/dm_arm.c **** 
  39:User/Hardware/dm_arm.c ****   arm_motor_init(&arm_motor[Motor4], 0x04, POS_MODE); // 设置ID和控制模式  
  81              		.loc 1 39 3
  82 0052 4FF48072 		mov	r2, #256
  83 0056 0421     		movs	r1, #4
  84 0058 1648     		ldr	r0, .L2+8
  85 005a FFF7FEFF 		bl	arm_motor_init
  40:User/Hardware/dm_arm.c ****   arm_motor_init(&arm_motor[Motor5], 0x05, POS_MODE); // 设置ID和控制模式  
  86              		.loc 1 40 3
  87 005e 4FF48072 		mov	r2, #256
  88 0062 0521     		movs	r1, #5
  89 0064 1448     		ldr	r0, .L2+12
  90 0066 FFF7FEFF 		bl	arm_motor_init
  41:User/Hardware/dm_arm.c ****   arm_motor_init(&arm_motor[Motor3], 0x06, POS_MODE); // 设置ID和控制模式  
  91              		.loc 1 41 3
  92 006a 4FF48072 		mov	r2, #256
  93 006e 0621     		movs	r1, #6
  94 0070 1248     		ldr	r0, .L2+16
  95 0072 FFF7FEFF 		bl	arm_motor_init
  42:User/Hardware/dm_arm.c **** 
  43:User/Hardware/dm_arm.c ****   enable_motor_mode(&hfdcan2, 0x04, POS_MODE);
  96              		.loc 1 43 3
  97 0076 4FF48072 		mov	r2, #256
  98 007a 0421     		movs	r1, #4
  99 007c 0C48     		ldr	r0, .L2+4
 100 007e FFF7FEFF 		bl	enable_motor_mode
  44:User/Hardware/dm_arm.c ****   enable_motor_mode(&hfdcan2, 0x05, POS_MODE);
 101              		.loc 1 44 3
 102 0082 4FF48072 		mov	r2, #256
 103 0086 0521     		movs	r1, #5
 104 0088 0948     		ldr	r0, .L2+4
 105 008a FFF7FEFF 		bl	enable_motor_mode
  45:User/Hardware/dm_arm.c ****   enable_motor_mode(&hfdcan2, 0x06, POS_MODE);
 106              		.loc 1 45 3
 107 008e 4FF48072 		mov	r2, #256
 108 0092 0621     		movs	r1, #6
 109 0094 0648     		ldr	r0, .L2+4
 110 0096 FFF7FEFF 		bl	enable_motor_mode
  46:User/Hardware/dm_arm.c ****   // 速度
  47:User/Hardware/dm_arm.c **** 
  48:User/Hardware/dm_arm.c ****   vel_motor.MT04 = 5.0;
 111              		.loc 1 48 18
 112 009a 094B     		ldr	r3, .L2+20
 113 009c 094A     		ldr	r2, .L2+24
 114 009e 1A60     		str	r2, [r3]	@ float
  49:User/Hardware/dm_arm.c ****   // 位置
  50:User/Hardware/dm_arm.c **** 
  51:User/Hardware/dm_arm.c ****   pos_motor.MT04 = 0;
 115              		.loc 1 51 18
 116 00a0 094B     		ldr	r3, .L2+28
 117 00a2 4FF00002 		mov	r2, #0
 118 00a6 1A60     		str	r2, [r3]	@ float
  52:User/Hardware/dm_arm.c ****     //pos_motor.MT05 = 3;
ARM GAS  C:\Users\Godwin\AppData\Local\Temp\ccp2w5OU.s 			page 4


  53:User/Hardware/dm_arm.c **** 
  54:User/Hardware/dm_arm.c **** 
  55:User/Hardware/dm_arm.c **** 
  56:User/Hardware/dm_arm.c **** 
  57:User/Hardware/dm_arm.c **** }
 119              		.loc 1 57 1
 120 00a8 00BF     		nop
 121 00aa 80BD     		pop	{r7, pc}
 122              	.L3:
 123              		.align	2
 124              	.L2:
 125 00ac 00000000 		.word	motor1
 126 00b0 00000000 		.word	hfdcan2
 127 00b4 30030000 		.word	arm_motor+816
 128 00b8 40040000 		.word	arm_motor+1088
 129 00bc 20020000 		.word	arm_motor+544
 130 00c0 00000000 		.word	vel_motor
 131 00c4 0000A040 		.word	1084227584
 132 00c8 00000000 		.word	pos_motor
 133              		.cfi_endproc
 134              	.LFE144:
 136              		.section	.text.Arm_motor1,"ax",%progbits
 137              		.align	1
 138              		.global	Arm_motor1
 139              		.syntax unified
 140              		.thumb
 141              		.thumb_func
 143              	Arm_motor1:
 144              	.LFB145:
  58:User/Hardware/dm_arm.c **** void Arm_motor1()
  59:User/Hardware/dm_arm.c **** {
 145              		.loc 1 59 1
 146              		.cfi_startproc
 147              		@ args = 0, pretend = 0, frame = 0
 148              		@ frame_needed = 1, uses_anonymous_args = 0
 149 0000 80B5     		push	{r7, lr}
 150              	.LCFI2:
 151              		.cfi_def_cfa_offset 8
 152              		.cfi_offset 7, -8
 153              		.cfi_offset 14, -4
 154 0002 00AF     		add	r7, sp, #0
 155              	.LCFI3:
 156              		.cfi_def_cfa_register 7
  60:User/Hardware/dm_arm.c **** 
  61:User/Hardware/dm_arm.c **** 
  62:User/Hardware/dm_arm.c **** 
  63:User/Hardware/dm_arm.c ****     RobStride_Motor_CSP_control(&motor1,&hfdcan2, 0.0f, 1.0f);
 157              		.loc 1 63 5
 158 0004 F7EE000A 		vmov.f32	s1, #1.0e+0
 159 0008 9FED030A 		vldr.32	s0, .L5
 160 000c 0349     		ldr	r1, .L5+4
 161 000e 0448     		ldr	r0, .L5+8
 162 0010 FFF7FEFF 		bl	RobStride_Motor_CSP_control
  64:User/Hardware/dm_arm.c **** 
  65:User/Hardware/dm_arm.c **** 
  66:User/Hardware/dm_arm.c **** 
  67:User/Hardware/dm_arm.c **** 
ARM GAS  C:\Users\Godwin\AppData\Local\Temp\ccp2w5OU.s 			page 5


  68:User/Hardware/dm_arm.c **** }
 163              		.loc 1 68 1
 164 0014 00BF     		nop
 165 0016 80BD     		pop	{r7, pc}
 166              	.L6:
 167              		.align	2
 168              	.L5:
 169 0018 00000000 		.word	0
 170 001c 00000000 		.word	hfdcan2
 171 0020 00000000 		.word	motor1
 172              		.cfi_endproc
 173              	.LFE145:
 175              		.section	.text.Arm_motor4,"ax",%progbits
 176              		.align	1
 177              		.global	Arm_motor4
 178              		.syntax unified
 179              		.thumb
 180              		.thumb_func
 182              	Arm_motor4:
 183              	.LFB146:
  69:User/Hardware/dm_arm.c **** 
  70:User/Hardware/dm_arm.c **** void Arm_motor4()
  71:User/Hardware/dm_arm.c **** {
 184              		.loc 1 71 1
 185              		.cfi_startproc
 186              		@ args = 0, pretend = 0, frame = 0
 187              		@ frame_needed = 1, uses_anonymous_args = 0
 188 0000 80B5     		push	{r7, lr}
 189              	.LCFI4:
 190              		.cfi_def_cfa_offset 8
 191              		.cfi_offset 7, -8
 192              		.cfi_offset 14, -4
 193 0002 00AF     		add	r7, sp, #0
 194              	.LCFI5:
 195              		.cfi_def_cfa_register 7
  72:User/Hardware/dm_arm.c **** 
  73:User/Hardware/dm_arm.c ****   // // 判断该时间段内是否接收过电机数据
  74:User/Hardware/dm_arm.c ****   // if (Flag_damiao[4] == Pre_Flag_damiao[4])
  75:User/Hardware/dm_arm.c ****   // {
  76:User/Hardware/dm_arm.c ****   //   // 电机断开连接
  77:User/Hardware/dm_arm.c ****   //   DM_Status[4] = Motor_DM_Status_DISABLE;
  78:User/Hardware/dm_arm.c ****   //   // 错误清除，重新使能
  79:User/Hardware/dm_arm.c ****   //   // CAN_Send_Clear_Error(&hfdcan2,0x04);
  80:User/Hardware/dm_arm.c ****   //   CAN_Send_Enter(&hfdcan2, 0x04);
  81:User/Hardware/dm_arm.c ****   // }
  82:User/Hardware/dm_arm.c ****   // else
  83:User/Hardware/dm_arm.c ****   // {
  84:User/Hardware/dm_arm.c ****   //   // 电机保持连接
  85:User/Hardware/dm_arm.c ****   //   DM_Status[4] = Motor_DM_Status_ENABLE;
  86:User/Hardware/dm_arm.c ****   // 正常数据发送
  87:User/Hardware/dm_arm.c ****   // if (pos_motor.MT04 >= 3.4f)
  88:User/Hardware/dm_arm.c ****   // {
  89:User/Hardware/dm_arm.c ****   //   pos_motor.MT04 = 3.4f;
  90:User/Hardware/dm_arm.c ****   // }
  91:User/Hardware/dm_arm.c ****   // if (pos_motor.MT04 <= -1.9f)
  92:User/Hardware/dm_arm.c ****   // {
  93:User/Hardware/dm_arm.c ****   //   pos_motor.MT04 = -1.9f;
ARM GAS  C:\Users\Godwin\AppData\Local\Temp\ccp2w5OU.s 			page 6


  94:User/Hardware/dm_arm.c ****   // }
  95:User/Hardware/dm_arm.c ****   set_DM_mode(Motor4, POS_MODE);
 196              		.loc 1 95 3
 197 0004 4FF48071 		mov	r1, #256
 198 0008 0320     		movs	r0, #3
 199 000a FFF7FEFF 		bl	set_DM_mode
  96:User/Hardware/dm_arm.c ****   set_DM_pos_vel(pos_motor.MT04, vel_motor.MT04, Motor4);
 200              		.loc 1 96 3
 201 000e 0F4B     		ldr	r3, .L8
 202 0010 D3ED007A 		vldr.32	s15, [r3]
 203 0014 0E4B     		ldr	r3, .L8+4
 204 0016 93ED007A 		vldr.32	s14, [r3]
 205 001a 0320     		movs	r0, #3
 206 001c F0EE470A 		vmov.f32	s1, s14
 207 0020 B0EE670A 		vmov.f32	s0, s15
 208 0024 FFF7FEFF 		bl	set_DM_pos_vel
  97:User/Hardware/dm_arm.c ****   pos_speed_ctrl(&hfdcan2, 0x04, 5,10);
 209              		.loc 1 97 3
 210 0028 F2EE040A 		vmov.f32	s1, #1.0e+1
 211 002c B1EE040A 		vmov.f32	s0, #5.0e+0
 212 0030 0421     		movs	r1, #4
 213 0032 0848     		ldr	r0, .L8+8
 214 0034 FFF7FEFF 		bl	pos_speed_ctrl
  98:User/Hardware/dm_arm.c **** 
  99:User/Hardware/dm_arm.c ****   pos_motor.MT04=20;
 215              		.loc 1 99 17
 216 0038 044B     		ldr	r3, .L8
 217 003a 074A     		ldr	r2, .L8+12
 218 003c 1A60     		str	r2, [r3]	@ float
 100:User/Hardware/dm_arm.c ****   Pre_Flag_damiao[4] = Flag_damiao[4];
 219              		.loc 1 100 35
 220 003e 074B     		ldr	r3, .L8+16
 221 0040 1B69     		ldr	r3, [r3, #16]
 222              		.loc 1 100 22
 223 0042 074A     		ldr	r2, .L8+20
 224 0044 1361     		str	r3, [r2, #16]
 101:User/Hardware/dm_arm.c **** }
 225              		.loc 1 101 1
 226 0046 00BF     		nop
 227 0048 80BD     		pop	{r7, pc}
 228              	.L9:
 229 004a 00BF     		.align	2
 230              	.L8:
 231 004c 00000000 		.word	pos_motor
 232 0050 00000000 		.word	vel_motor
 233 0054 00000000 		.word	hfdcan2
 234 0058 0000A041 		.word	1101004800
 235 005c 00000000 		.word	Flag_damiao
 236 0060 00000000 		.word	Pre_Flag_damiao
 237              		.cfi_endproc
 238              	.LFE146:
 240              		.section	.text.Arm_motor5,"ax",%progbits
 241              		.align	1
 242              		.global	Arm_motor5
 243              		.syntax unified
 244              		.thumb
 245              		.thumb_func
ARM GAS  C:\Users\Godwin\AppData\Local\Temp\ccp2w5OU.s 			page 7


 247              	Arm_motor5:
 248              	.LFB147:
 102:User/Hardware/dm_arm.c **** void Arm_motor5()
 103:User/Hardware/dm_arm.c **** {
 249              		.loc 1 103 1
 250              		.cfi_startproc
 251              		@ args = 0, pretend = 0, frame = 0
 252              		@ frame_needed = 1, uses_anonymous_args = 0
 253 0000 80B5     		push	{r7, lr}
 254              	.LCFI6:
 255              		.cfi_def_cfa_offset 8
 256              		.cfi_offset 7, -8
 257              		.cfi_offset 14, -4
 258 0002 00AF     		add	r7, sp, #0
 259              	.LCFI7:
 260              		.cfi_def_cfa_register 7
 104:User/Hardware/dm_arm.c **** 
 105:User/Hardware/dm_arm.c ****   // // 判断该时间段内是否接收过电机数据
 106:User/Hardware/dm_arm.c ****   // if (Flag_damiao[5] == Pre_Flag_damiao[5])
 107:User/Hardware/dm_arm.c ****   // {
 108:User/Hardware/dm_arm.c ****   //   // 电机断开连接
 109:User/Hardware/dm_arm.c ****   //   DM_Status[5] = Motor_DM_Status_DISABLE;
 110:User/Hardware/dm_arm.c ****   //   // 错误清除，重新使能
 111:User/Hardware/dm_arm.c ****   //   //	CAN_Send_Clear_Error(&hfdcan2,0x05);
 112:User/Hardware/dm_arm.c ****   //   CAN_Send_Enter(&hfdcan2, 0x05);
 113:User/Hardware/dm_arm.c ****   // }
 114:User/Hardware/dm_arm.c ****   // else
 115:User/Hardware/dm_arm.c ****   // {
 116:User/Hardware/dm_arm.c ****   //   // 电机保持连接
 117:User/Hardware/dm_arm.c ****   //   DM_Status[5] = Motor_DM_Status_ENABLE;
 118:User/Hardware/dm_arm.c ****   //   // 正常数据发送
 119:User/Hardware/dm_arm.c ****   //     if (pos_motor.MT05 >= 1.9f)
 120:User/Hardware/dm_arm.c ****   //   {
 121:User/Hardware/dm_arm.c ****   //     pos_motor.MT05 = 1.9f;
 122:User/Hardware/dm_arm.c ****   //   }
 123:User/Hardware/dm_arm.c ****   //    if (pos_motor.MT05 <= -1.9f)
 124:User/Hardware/dm_arm.c ****   //   {
 125:User/Hardware/dm_arm.c ****   //     pos_motor.MT05 = -1.9f;
 126:User/Hardware/dm_arm.c ****   //   }
 127:User/Hardware/dm_arm.c ****   set_DM_mode(Motor5, POS_MODE);
 261              		.loc 1 127 3
 262 0004 4FF48071 		mov	r1, #256
 263 0008 0420     		movs	r0, #4
 264 000a FFF7FEFF 		bl	set_DM_mode
 128:User/Hardware/dm_arm.c ****   set_DM_pos_vel(pos_motor.MT05, vel_motor.MT05, Motor5);
 265              		.loc 1 128 3
 266 000e 0D4B     		ldr	r3, .L11
 267 0010 D3ED017A 		vldr.32	s15, [r3, #4]
 268 0014 0C4B     		ldr	r3, .L11+4
 269 0016 93ED017A 		vldr.32	s14, [r3, #4]
 270 001a 0420     		movs	r0, #4
 271 001c F0EE470A 		vmov.f32	s1, s14
 272 0020 B0EE670A 		vmov.f32	s0, s15
 273 0024 FFF7FEFF 		bl	set_DM_pos_vel
 129:User/Hardware/dm_arm.c **** 
 130:User/Hardware/dm_arm.c ****   pos_speed_ctrl(&hfdcan2, 0x05, 20, 20);
 274              		.loc 1 130 3
ARM GAS  C:\Users\Godwin\AppData\Local\Temp\ccp2w5OU.s 			page 8


 275 0028 F3EE040A 		vmov.f32	s1, #2.0e+1
 276 002c B3EE040A 		vmov.f32	s0, #2.0e+1
 277 0030 0521     		movs	r1, #5
 278 0032 0648     		ldr	r0, .L11+8
 279 0034 FFF7FEFF 		bl	pos_speed_ctrl
 131:User/Hardware/dm_arm.c **** 
 132:User/Hardware/dm_arm.c ****   Pre_Flag_damiao[5] = Flag_damiao[5];
 280              		.loc 1 132 35
 281 0038 054B     		ldr	r3, .L11+12
 282 003a 5B69     		ldr	r3, [r3, #20]
 283              		.loc 1 132 22
 284 003c 054A     		ldr	r2, .L11+16
 285 003e 5361     		str	r3, [r2, #20]
 133:User/Hardware/dm_arm.c **** }
 286              		.loc 1 133 1
 287 0040 00BF     		nop
 288 0042 80BD     		pop	{r7, pc}
 289              	.L12:
 290              		.align	2
 291              	.L11:
 292 0044 00000000 		.word	pos_motor
 293 0048 00000000 		.word	vel_motor
 294 004c 00000000 		.word	hfdcan2
 295 0050 00000000 		.word	Flag_damiao
 296 0054 00000000 		.word	Pre_Flag_damiao
 297              		.cfi_endproc
 298              	.LFE147:
 300              		.section	.text.Arm_motor6,"ax",%progbits
 301              		.align	1
 302              		.global	Arm_motor6
 303              		.syntax unified
 304              		.thumb
 305              		.thumb_func
 307              	Arm_motor6:
 308              	.LFB148:
 134:User/Hardware/dm_arm.c **** void Arm_motor6()
 135:User/Hardware/dm_arm.c **** {
 309              		.loc 1 135 1
 310              		.cfi_startproc
 311              		@ args = 0, pretend = 0, frame = 0
 312              		@ frame_needed = 1, uses_anonymous_args = 0
 313 0000 80B5     		push	{r7, lr}
 314              	.LCFI8:
 315              		.cfi_def_cfa_offset 8
 316              		.cfi_offset 7, -8
 317              		.cfi_offset 14, -4
 318 0002 00AF     		add	r7, sp, #0
 319              	.LCFI9:
 320              		.cfi_def_cfa_register 7
 136:User/Hardware/dm_arm.c **** 
 137:User/Hardware/dm_arm.c ****   // // 判断该时间段内是否接收过电机数据
 138:User/Hardware/dm_arm.c ****   // if (Flag_damiao[5] == Pre_Flag_damiao[5])
 139:User/Hardware/dm_arm.c ****   // {
 140:User/Hardware/dm_arm.c ****   //   // 电机断开连接
 141:User/Hardware/dm_arm.c ****   //   DM_Status[5] = Motor_DM_Status_DISABLE;
 142:User/Hardware/dm_arm.c ****   //   // 错误清除，重新使能
 143:User/Hardware/dm_arm.c ****   //   //	CAN_Send_Clear_Error(&hfdcan2,0x05);
ARM GAS  C:\Users\Godwin\AppData\Local\Temp\ccp2w5OU.s 			page 9


 144:User/Hardware/dm_arm.c ****   //   CAN_Send_Enter(&hfdcan2, 0x05);
 145:User/Hardware/dm_arm.c ****   // }
 146:User/Hardware/dm_arm.c ****   // else
 147:User/Hardware/dm_arm.c ****   // {
 148:User/Hardware/dm_arm.c ****   //   // 电机保持连接
 149:User/Hardware/dm_arm.c ****   //   DM_Status[5] = Motor_DM_Status_ENABLE;
 150:User/Hardware/dm_arm.c ****   //   // 正常数据发送
 151:User/Hardware/dm_arm.c ****   //     if (pos_motor.MT05 >= 1.9f)
 152:User/Hardware/dm_arm.c ****   //   {
 153:User/Hardware/dm_arm.c ****   //     pos_motor.MT05 = 1.9f;
 154:User/Hardware/dm_arm.c ****   //   }
 155:User/Hardware/dm_arm.c ****   //    if (pos_motor.MT05 <= -1.9f)
 156:User/Hardware/dm_arm.c ****   //   {
 157:User/Hardware/dm_arm.c ****   //     pos_motor.MT05 = -1.9f;
 158:User/Hardware/dm_arm.c ****   //   }
 159:User/Hardware/dm_arm.c ****   set_DM_mode(Motor6, POS_MODE);
 321              		.loc 1 159 3
 322 0004 4FF48071 		mov	r1, #256
 323 0008 0520     		movs	r0, #5
 324 000a FFF7FEFF 		bl	set_DM_mode
 160:User/Hardware/dm_arm.c ****   set_DM_pos_vel(pos_motor.MT06, vel_motor.MT06, Motor6);
 325              		.loc 1 160 3
 326 000e 1A4B     		ldr	r3, .L14+8
 327 0010 D3ED027A 		vldr.32	s15, [r3, #8]
 328 0014 194B     		ldr	r3, .L14+12
 329 0016 93ED027A 		vldr.32	s14, [r3, #8]
 330 001a 0520     		movs	r0, #5
 331 001c F0EE470A 		vmov.f32	s1, s14
 332 0020 B0EE670A 		vmov.f32	s0, s15
 333 0024 FFF7FEFF 		bl	set_DM_pos_vel
 161:User/Hardware/dm_arm.c ****   pos_motor.MT06 += 0.01;
 334              		.loc 1 161 12
 335 0028 134B     		ldr	r3, .L14+8
 336 002a D3ED027A 		vldr.32	s15, [r3, #8]
 337 002e B7EEE77A 		vcvt.f64.f32	d7, s15
 338              		.loc 1 161 18
 339 0032 9FED0F6B 		vldr.64	d6, .L14
 340 0036 37EE067B 		vadd.f64	d7, d7, d6
 341 003a F7EEC77B 		vcvt.f32.f64	s15, d7
 342 003e 0E4B     		ldr	r3, .L14+8
 343 0040 C3ED027A 		vstr.32	s15, [r3, #8]
 162:User/Hardware/dm_arm.c ****   pos_speed_ctrl(&hfdcan2, 0x06, arm_motor[Motor6].ctrl.pos_set, 1);
 344              		.loc 1 162 3
 345 0044 0E4B     		ldr	r3, .L14+16
 346 0046 03F28C53 		addw	r3, r3, #1420
 347 004a D3ED007A 		vldr.32	s15, [r3]
 348 004e F7EE000A 		vmov.f32	s1, #1.0e+0
 349 0052 B0EE670A 		vmov.f32	s0, s15
 350 0056 0621     		movs	r1, #6
 351 0058 0A48     		ldr	r0, .L14+20
 352 005a FFF7FEFF 		bl	pos_speed_ctrl
 163:User/Hardware/dm_arm.c **** 
 164:User/Hardware/dm_arm.c ****   Pre_Flag_damiao[6] = Flag_damiao[6];
 353              		.loc 1 164 35
 354 005e 0A4B     		ldr	r3, .L14+24
 355 0060 9B69     		ldr	r3, [r3, #24]
 356              		.loc 1 164 22
ARM GAS  C:\Users\Godwin\AppData\Local\Temp\ccp2w5OU.s 			page 10


 357 0062 0A4A     		ldr	r2, .L14+28
 358 0064 9361     		str	r3, [r2, #24]
 165:User/Hardware/dm_arm.c **** }...
 359              		.loc 1 165 1
 360 0066 00BF     		nop
 361 0068 80BD     		pop	{r7, pc}
 362              	.L15:
 363 006a 00BFAFF3 		.align	3
 363      0080
 364              	.L14:
 365 0070 7B14AE47 		.word	1202590843
 366 0074 E17A843F 		.word	1065646817
 367 0078 00000000 		.word	pos_motor
 368 007c 00000000 		.word	vel_motor
 369 0080 00000000 		.word	arm_motor
 370 0084 00000000 		.word	hfdcan2
 371 0088 00000000 		.word	Flag_damiao
 372 008c 00000000 		.word	Pre_Flag_damiao
 373              		.cfi_endproc
 374              	.LFE148:
 376              		.text
 377              	.Letext0:
 378              		.file 2 "C:/Users/Godwin/13.2 Rel1/arm-none-eabi/include/machine/_default_types.h"
 379              		.file 3 "C:/Users/Godwin/13.2 Rel1/arm-none-eabi/include/sys/_stdint.h"
 380              		.file 4 "Drivers/CMSIS/Device/ST/STM32H7xx/Include/stm32h723xx.h"
 381              		.file 5 "Drivers/CMSIS/Device/ST/STM32H7xx/Include/stm32h7xx.h"
 382              		.file 6 "Drivers/STM32H7xx_HAL_Driver/Inc/stm32h7xx_hal_def.h"
 383              		.file 7 "Drivers/STM32H7xx_HAL_Driver/Inc/stm32h7xx_hal_fdcan.h"
 384              		.file 8 "User/BSP/can_receive_send.h"
 385              		.file 9 "Core/Inc/fdcan.h"
 386              		.file 10 "User/Hardware/dm4310_drv.h"
 387              		.file 11 "User/Hardware/Robstride04.h"
 388              		.file 12 "Drivers/STM32H7xx_HAL_Driver/Inc/stm32h7xx_hal.h"
ARM GAS  C:\Users\Godwin\AppData\Local\Temp\ccp2w5OU.s 			page 11


DEFINED SYMBOLS
                            *ABS*:00000000 dm_arm.c
C:\Users\Godwin\AppData\Local\Temp\ccp2w5OU.s:24     .bss.motor1:00000000 motor1
C:\Users\Godwin\AppData\Local\Temp\ccp2w5OU.s:21     .bss.motor1:00000000 $d
C:\Users\Godwin\AppData\Local\Temp\ccp2w5OU.s:27     .text.Arm_Init:00000000 $t
C:\Users\Godwin\AppData\Local\Temp\ccp2w5OU.s:33     .text.Arm_Init:00000000 Arm_Init
C:\Users\Godwin\AppData\Local\Temp\ccp2w5OU.s:125    .text.Arm_Init:000000ac $d
C:\Users\Godwin\AppData\Local\Temp\ccp2w5OU.s:137    .text.Arm_motor1:00000000 $t
C:\Users\Godwin\AppData\Local\Temp\ccp2w5OU.s:143    .text.Arm_motor1:00000000 Arm_motor1
C:\Users\Godwin\AppData\Local\Temp\ccp2w5OU.s:169    .text.Arm_motor1:00000018 $d
C:\Users\Godwin\AppData\Local\Temp\ccp2w5OU.s:176    .text.Arm_motor4:00000000 $t
C:\Users\Godwin\AppData\Local\Temp\ccp2w5OU.s:182    .text.Arm_motor4:00000000 Arm_motor4
C:\Users\Godwin\AppData\Local\Temp\ccp2w5OU.s:231    .text.Arm_motor4:0000004c $d
C:\Users\Godwin\AppData\Local\Temp\ccp2w5OU.s:241    .text.Arm_motor5:00000000 $t
C:\Users\Godwin\AppData\Local\Temp\ccp2w5OU.s:247    .text.Arm_motor5:00000000 Arm_motor5
C:\Users\Godwin\AppData\Local\Temp\ccp2w5OU.s:292    .text.Arm_motor5:00000044 $d
C:\Users\Godwin\AppData\Local\Temp\ccp2w5OU.s:301    .text.Arm_motor6:00000000 $t
C:\Users\Godwin\AppData\Local\Temp\ccp2w5OU.s:307    .text.Arm_motor6:00000000 Arm_motor6
C:\Users\Godwin\AppData\Local\Temp\ccp2w5OU.s:365    .text.Arm_motor6:00000070 $d

UNDEFINED SYMBOLS
RobStride_Motor_Init
Get_RobStride_Motor_parameter
HAL_Delay
Set_RobStride_Motor_parameter
Enable_Motor
arm_motor_init
enable_motor_mode
hfdcan2
arm_motor
vel_motor
pos_motor
RobStride_Motor_CSP_control
set_DM_mode
set_DM_pos_vel
pos_speed_ctrl
Flag_damiao
Pre_Flag_damiao
