ARM GAS  C:\Users\Godwin\AppData\Local\Temp\ccOEaMri.s 			page 1


   1              		.cpu cortex-m7
   2              		.arch armv7e-m
   3              		.fpu fpv5-d16
   4              		.eabi_attribute 28, 1
   5              		.eabi_attribute 20, 1
   6              		.eabi_attribute 21, 1
   7              		.eabi_attribute 23, 3
   8              		.eabi_attribute 24, 1
   9              		.eabi_attribute 25, 1
  10              		.eabi_attribute 26, 1
  11              		.eabi_attribute 30, 6
  12              		.eabi_attribute 34, 1
  13              		.eabi_attribute 18, 4
  14              		.file	"freertos.c"
  15              		.text
  16              	.Ltext0:
  17              		.cfi_sections	.debug_frame
  18              		.file 1 "Core/Src/freertos.c"
  19              		.global	color
  20              		.section	.bss.color,"aw",%nobits
  21              		.align	2
  24              	color:
  25 0000 00000000 		.space	4
  26              		.global	Remote_controlHandle
  27              		.section	.bss.Remote_controlHandle,"aw",%nobits
  28              		.align	2
  31              	Remote_controlHandle:
  32 0000 00000000 		.space	4
  33              		.global	Remote_control_attributes
  34              		.section	.rodata
  35              		.align	2
  36              	.LC0:
  37 0000 52656D6F 		.ascii	"Remote_control\000"
  37      74655F63 
  37      6F6E7472 
  37      6F6C00
  38              		.section	.rodata.Remote_control_attributes,"a"
  39              		.align	2
  42              	Remote_control_attributes:
  43 0000 00000000 		.word	.LC0
  44 0004 00000000 		.space	16
  44      00000000 
  44      00000000 
  44      00000000 
  45 0014 00080000 		.word	2048
  46 0018 19000000 		.word	25
  47 001c 00000000 		.space	8
  47      00000000 
  48              		.global	Eng_armHandle
  49              		.section	.bss.Eng_armHandle,"aw",%nobits
  50              		.align	2
  53              	Eng_armHandle:
  54 0000 00000000 		.space	4
  55              		.global	Eng_arm_attributes
  56              		.section	.rodata
  57 000f 00       		.align	2
  58              	.LC1:
ARM GAS  C:\Users\Godwin\AppData\Local\Temp\ccOEaMri.s 			page 2


  59 0010 456E675F 		.ascii	"Eng_arm\000"
  59      61726D00 
  60              		.section	.rodata.Eng_arm_attributes,"a"
  61              		.align	2
  64              	Eng_arm_attributes:
  65 0000 10000000 		.word	.LC1
  66 0004 00000000 		.space	16
  66      00000000 
  66      00000000 
  66      00000000 
  67 0014 00080000 		.word	2048
  68 0018 18000000 		.word	24
  69 001c 00000000 		.space	8
  69      00000000 
  70              		.global	ChassisHandle
  71              		.section	.bss.ChassisHandle,"aw",%nobits
  72              		.align	2
  75              	ChassisHandle:
  76 0000 00000000 		.space	4
  77              		.global	Chassis_attributes
  78              		.section	.rodata
  79              		.align	2
  80              	.LC2:
  81 0018 43686173 		.ascii	"Chassis\000"
  81      73697300 
  82              		.section	.rodata.Chassis_attributes,"a"
  83              		.align	2
  86              	Chassis_attributes:
  87 0000 18000000 		.word	.LC2
  88 0004 00000000 		.space	16
  88      00000000 
  88      00000000 
  88      00000000 
  89 0014 00080000 		.word	2048
  90 0018 08000000 		.word	8
  91 001c 00000000 		.space	8
  91      00000000 
  92              		.global	Motor_controlHandle
  93              		.section	.bss.Motor_controlHandle,"aw",%nobits
  94              		.align	2
  97              	Motor_controlHandle:
  98 0000 00000000 		.space	4
  99              		.global	Motor_control_attributes
 100              		.section	.rodata
 101              		.align	2
 102              	.LC3:
 103 0020 4D6F746F 		.ascii	"Motor_control\000"
 103      725F636F 
 103      6E74726F 
 103      6C00
 104              		.section	.rodata.Motor_control_attributes,"a"
 105              		.align	2
 108              	Motor_control_attributes:
 109 0000 20000000 		.word	.LC3
 110 0004 00000000 		.space	16
 110      00000000 
 110      00000000 
ARM GAS  C:\Users\Godwin\AppData\Local\Temp\ccOEaMri.s 			page 3


 110      00000000 
 111 0014 00040000 		.word	1024
 112 0018 08000000 		.word	8
 113 001c 00000000 		.space	8
 113      00000000 
 114              		.global	YawHandle
 115              		.section	.bss.YawHandle,"aw",%nobits
 116              		.align	2
 119              	YawHandle:
 120 0000 00000000 		.space	4
 121              		.global	Yaw_attributes
 122              		.section	.rodata
 123 002e 0000     		.align	2
 124              	.LC4:
 125 0030 59617700 		.ascii	"Yaw\000"
 126              		.section	.rodata.Yaw_attributes,"a"
 127              		.align	2
 130              	Yaw_attributes:
 131 0000 30000000 		.word	.LC4
 132 0004 00000000 		.space	16
 132      00000000 
 132      00000000 
 132      00000000 
 133 0014 00040000 		.word	1024
 134 0018 08000000 		.word	8
 135 001c 00000000 		.space	8
 135      00000000 
 136              		.global	RefereeHandle
 137              		.section	.bss.RefereeHandle,"aw",%nobits
 138              		.align	2
 141              	RefereeHandle:
 142 0000 00000000 		.space	4
 143              		.global	Referee_attributes
 144              		.section	.rodata
 145              		.align	2
 146              	.LC5:
 147 0034 52656665 		.ascii	"Referee\000"
 147      72656500 
 148              		.section	.rodata.Referee_attributes,"a"
 149              		.align	2
 152              	Referee_attributes:
 153 0000 34000000 		.word	.LC5
 154 0004 00000000 		.space	16
 154      00000000 
 154      00000000 
 154      00000000 
 155 0014 00080000 		.word	2048
 156 0018 08000000 		.word	8
 157 001c 00000000 		.space	8
 157      00000000 
 158              		.global	Log_and_debugHandle
 159              		.section	.bss.Log_and_debugHandle,"aw",%nobits
 160              		.align	2
 163              	Log_and_debugHandle:
 164 0000 00000000 		.space	4
 165              		.global	Log_and_debug_attributes
 166              		.section	.rodata
ARM GAS  C:\Users\Godwin\AppData\Local\Temp\ccOEaMri.s 			page 4


 167              		.align	2
 168              	.LC6:
 169 003c 4C6F675F 		.ascii	"Log_and_debug\000"
 169      616E645F 
 169      64656275 
 169      6700
 170              		.section	.rodata.Log_and_debug_attributes,"a"
 171              		.align	2
 174              	Log_and_debug_attributes:
 175 0000 3C000000 		.word	.LC6
 176 0004 00000000 		.space	16
 176      00000000 
 176      00000000 
 176      00000000 
 177 0014 00040000 		.word	1024
 178 0018 08000000 		.word	8
 179 001c 00000000 		.space	8
 179      00000000 
 180              		.section	.text.vApplicationIdleHook,"ax",%progbits
 181              		.align	1
 182              		.global	vApplicationIdleHook
 183              		.syntax unified
 184              		.thumb
 185              		.thumb_func
 187              	vApplicationIdleHook:
 188              	.LFB151:
   1:Core/Src/freertos.c **** /* USER CODE BEGIN Header */
   2:Core/Src/freertos.c **** /**
   3:Core/Src/freertos.c ****  ******************************************************************************
   4:Core/Src/freertos.c ****  * File Name          : freertos.c
   5:Core/Src/freertos.c ****  * Description        : Code for freertos applications
   6:Core/Src/freertos.c ****  ******************************************************************************
   7:Core/Src/freertos.c ****  * @attention
   8:Core/Src/freertos.c ****  *
   9:Core/Src/freertos.c ****  * Copyright (c) 2024 STMicroelectronics.
  10:Core/Src/freertos.c ****  * All rights reserved.
  11:Core/Src/freertos.c ****  *
  12:Core/Src/freertos.c ****  * This software is licensed under terms that can be found in the LICENSE file
  13:Core/Src/freertos.c ****  * in the root directory of this software component.
  14:Core/Src/freertos.c ****  * If no LICENSE file comes with this software, it is provided AS-IS.
  15:Core/Src/freertos.c ****  *
  16:Core/Src/freertos.c ****  ******************************************************************************
  17:Core/Src/freertos.c ****  */
  18:Core/Src/freertos.c **** /* USER CODE END Header */
  19:Core/Src/freertos.c **** 
  20:Core/Src/freertos.c **** /* Includes ------------------------------------------------------------------*/
  21:Core/Src/freertos.c **** #include "FreeRTOS.h"
  22:Core/Src/freertos.c **** #include "task.h"
  23:Core/Src/freertos.c **** #include "main.h"
  24:Core/Src/freertos.c **** #include "cmsis_os.h"
  25:Core/Src/freertos.c **** 
  26:Core/Src/freertos.c **** /* Private includes ----------------------------------------------------------*/
  27:Core/Src/freertos.c **** /* USER CODE BEGIN Includes */
  28:Core/Src/freertos.c **** #include "remote_control.h"
  29:Core/Src/freertos.c **** #include "music.h"
  30:Core/Src/freertos.c **** #include "stdio.h"
  31:Core/Src/freertos.c **** #include "referee_system.h"
ARM GAS  C:\Users\Godwin\AppData\Local\Temp\ccOEaMri.s 			page 5


  32:Core/Src/freertos.c **** #include "motor.h"
  33:Core/Src/freertos.c **** #include "supercup.h"
  34:Core/Src/freertos.c **** #include "LED.h"
  35:Core/Src/freertos.c **** #include <cmsis_os2.h>
  36:Core/Src/freertos.c **** #include "dm_arm.h"
  37:Core/Src/freertos.c **** #include "iwdg.h"
  38:Core/Src/freertos.c **** #include "buzzer.h"
  39:Core/Src/freertos.c **** #include "task.h"
  40:Core/Src/freertos.c **** 
  41:Core/Src/freertos.c **** /* USER CODE END Includes */
  42:Core/Src/freertos.c **** 
  43:Core/Src/freertos.c **** /* Private typedef -----------------------------------------------------------*/
  44:Core/Src/freertos.c **** /* USER CODE BEGIN PTD */
  45:Core/Src/freertos.c **** /* USER CODE END PTD */
  46:Core/Src/freertos.c **** 
  47:Core/Src/freertos.c **** /* Private define ------------------------------------------------------------*/
  48:Core/Src/freertos.c **** /* USER CODE BEGIN PD */
  49:Core/Src/freertos.c **** 
  50:Core/Src/freertos.c **** /* USER CODE END PD */
  51:Core/Src/freertos.c **** 
  52:Core/Src/freertos.c **** /* Private macro -------------------------------------------------------------*/
  53:Core/Src/freertos.c **** /* USER CODE BEGIN PM */
  54:Core/Src/freertos.c **** 
  55:Core/Src/freertos.c **** /* USER CODE END PM */
  56:Core/Src/freertos.c **** 
  57:Core/Src/freertos.c **** /* Private variables ---------------------------------------------------------*/
  58:Core/Src/freertos.c **** /* USER CODE BEGIN Variables */
  59:Core/Src/freertos.c **** uint32_t color = 0;
  60:Core/Src/freertos.c **** /* USER CODE END Variables */
  61:Core/Src/freertos.c **** /* Definitions for Remote_control */
  62:Core/Src/freertos.c **** osThreadId_t Remote_controlHandle;
  63:Core/Src/freertos.c **** const osThreadAttr_t Remote_control_attributes = {
  64:Core/Src/freertos.c ****     .name = "Remote_control",
  65:Core/Src/freertos.c ****     .stack_size = 512 * 4,
  66:Core/Src/freertos.c ****     .priority = (osPriority_t)osPriorityNormal1,
  67:Core/Src/freertos.c **** };
  68:Core/Src/freertos.c **** /* Definitions for Eng_arm */
  69:Core/Src/freertos.c **** osThreadId_t Eng_armHandle;
  70:Core/Src/freertos.c **** const osThreadAttr_t Eng_arm_attributes = {
  71:Core/Src/freertos.c ****     .name = "Eng_arm",
  72:Core/Src/freertos.c ****     .stack_size = 512 * 4,
  73:Core/Src/freertos.c ****     .priority = (osPriority_t)osPriorityNormal,
  74:Core/Src/freertos.c **** };
  75:Core/Src/freertos.c **** /* Definitions for Chassis */
  76:Core/Src/freertos.c **** osThreadId_t ChassisHandle;
  77:Core/Src/freertos.c **** const osThreadAttr_t Chassis_attributes = {
  78:Core/Src/freertos.c ****     .name = "Chassis",
  79:Core/Src/freertos.c ****     .stack_size = 512 * 4,
  80:Core/Src/freertos.c ****     .priority = (osPriority_t)osPriorityLow,
  81:Core/Src/freertos.c **** };
  82:Core/Src/freertos.c **** /* Definitions for Motor_control */
  83:Core/Src/freertos.c **** osThreadId_t Motor_controlHandle;
  84:Core/Src/freertos.c **** const osThreadAttr_t Motor_control_attributes = {
  85:Core/Src/freertos.c ****     .name = "Motor_control",
  86:Core/Src/freertos.c ****     .stack_size = 256 * 4,
  87:Core/Src/freertos.c ****     .priority = (osPriority_t)osPriorityLow,
  88:Core/Src/freertos.c **** };
ARM GAS  C:\Users\Godwin\AppData\Local\Temp\ccOEaMri.s 			page 6


  89:Core/Src/freertos.c **** /* Definitions for Yaw */
  90:Core/Src/freertos.c **** osThreadId_t YawHandle;
  91:Core/Src/freertos.c **** const osThreadAttr_t Yaw_attributes = {
  92:Core/Src/freertos.c ****     .name = "Yaw",
  93:Core/Src/freertos.c ****     .stack_size = 256 * 4,
  94:Core/Src/freertos.c ****     .priority = (osPriority_t)osPriorityLow,
  95:Core/Src/freertos.c **** };
  96:Core/Src/freertos.c **** /* Definitions for Referee */
  97:Core/Src/freertos.c **** osThreadId_t RefereeHandle;
  98:Core/Src/freertos.c **** const osThreadAttr_t Referee_attributes = {
  99:Core/Src/freertos.c ****     .name = "Referee",
 100:Core/Src/freertos.c ****     .stack_size = 512 * 4,
 101:Core/Src/freertos.c ****     .priority = (osPriority_t)osPriorityLow,
 102:Core/Src/freertos.c **** };
 103:Core/Src/freertos.c **** /* Definitions for Log_and_debug */
 104:Core/Src/freertos.c **** osThreadId_t Log_and_debugHandle;
 105:Core/Src/freertos.c **** const osThreadAttr_t Log_and_debug_attributes = {
 106:Core/Src/freertos.c ****     .name = "Log_and_debug",
 107:Core/Src/freertos.c ****     .stack_size = 256 * 4,
 108:Core/Src/freertos.c ****     .priority = (osPriority_t)osPriorityLow,
 109:Core/Src/freertos.c **** };
 110:Core/Src/freertos.c **** 
 111:Core/Src/freertos.c **** /* Private function prototypes -----------------------------------------------*/
 112:Core/Src/freertos.c **** /* USER CODE BEGIN FunctionPrototypes */
 113:Core/Src/freertos.c **** 
 114:Core/Src/freertos.c **** /* USER CODE END FunctionPrototypes */
 115:Core/Src/freertos.c **** 
 116:Core/Src/freertos.c **** void Remote_control_Task(void *argument);
 117:Core/Src/freertos.c **** void Eng_arm_Task(void *argument);
 118:Core/Src/freertos.c **** void Chassis_Task(void *argument);
 119:Core/Src/freertos.c **** void Motor_control_Task(void *argument);
 120:Core/Src/freertos.c **** void Yaw_Task(void *argument);
 121:Core/Src/freertos.c **** void Referee_Task(void *argument);
 122:Core/Src/freertos.c **** void Log_and_debug_Task(void *argument);
 123:Core/Src/freertos.c **** 
 124:Core/Src/freertos.c **** extern void MX_USB_DEVICE_Init(void);
 125:Core/Src/freertos.c **** void MX_FREERTOS_Init(void); /* (MISRA C 2004 rule 8.1) */
 126:Core/Src/freertos.c **** 
 127:Core/Src/freertos.c **** /* Hook prototypes */
 128:Core/Src/freertos.c **** void vApplicationIdleHook(void);
 129:Core/Src/freertos.c **** 
 130:Core/Src/freertos.c **** /* USER CODE BEGIN 2 */
 131:Core/Src/freertos.c **** void vApplicationIdleHook(void)
 132:Core/Src/freertos.c **** {
 189              		.loc 1 132 1
 190              		.cfi_startproc
 191              		@ args = 0, pretend = 0, frame = 0
 192              		@ frame_needed = 1, uses_anonymous_args = 0
 193              		@ link register save eliminated.
 194 0000 80B4     		push	{r7}
 195              	.LCFI0:
 196              		.cfi_def_cfa_offset 4
 197              		.cfi_offset 7, -4
 198 0002 00AF     		add	r7, sp, #0
 199              	.LCFI1:
 200              		.cfi_def_cfa_register 7
 133:Core/Src/freertos.c ****   /* vApplicationIdleHook() will only be called if configUSE_IDLE_HOOK is set
ARM GAS  C:\Users\Godwin\AppData\Local\Temp\ccOEaMri.s 			page 7


 134:Core/Src/freertos.c ****   to 1 in FreeRTOSConfig.h. It will be called on each iteration of the idle
 135:Core/Src/freertos.c ****   task. It is essential that code added to this hook function never attempts
 136:Core/Src/freertos.c ****   to block in any way (for example, call xQueueReceive() with a block time
 137:Core/Src/freertos.c ****   specified, or call vTaskDelay()). If the application makes use of the
 138:Core/Src/freertos.c ****   vTaskDelete() API function (as this demo application does) then it is also
 139:Core/Src/freertos.c ****   important that vApplicationIdleHook() is permitted to return to its calling
 140:Core/Src/freertos.c ****   function, because it is the responsibility of the idle task to clean up
 141:Core/Src/freertos.c ****   memory allocated by the kernel to any task that has since been deleted. */
 142:Core/Src/freertos.c **** }
 201              		.loc 1 142 1
 202 0004 00BF     		nop
 203 0006 BD46     		mov	sp, r7
 204              	.LCFI2:
 205              		.cfi_def_cfa_register 13
 206              		@ sp needed
 207 0008 5DF8047B 		ldr	r7, [sp], #4
 208              	.LCFI3:
 209              		.cfi_restore 7
 210              		.cfi_def_cfa_offset 0
 211 000c 7047     		bx	lr
 212              		.cfi_endproc
 213              	.LFE151:
 215              		.section	.text.MX_FREERTOS_Init,"ax",%progbits
 216              		.align	1
 217              		.global	MX_FREERTOS_Init
 218              		.syntax unified
 219              		.thumb
 220              		.thumb_func
 222              	MX_FREERTOS_Init:
 223              	.LFB152:
 143:Core/Src/freertos.c **** /* USER CODE END 2 */
 144:Core/Src/freertos.c **** 
 145:Core/Src/freertos.c **** /**
 146:Core/Src/freertos.c ****  * @brief  FreeRTOS initialization
 147:Core/Src/freertos.c ****  * @param  None
 148:Core/Src/freertos.c ****  * @retval None
 149:Core/Src/freertos.c ****  */
 150:Core/Src/freertos.c **** void MX_FREERTOS_Init(void)
 151:Core/Src/freertos.c **** {
 224              		.loc 1 151 1
 225              		.cfi_startproc
 226              		@ args = 0, pretend = 0, frame = 0
 227              		@ frame_needed = 1, uses_anonymous_args = 0
 228 0000 80B5     		push	{r7, lr}
 229              	.LCFI4:
 230              		.cfi_def_cfa_offset 8
 231              		.cfi_offset 7, -8
 232              		.cfi_offset 14, -4
 233 0002 00AF     		add	r7, sp, #0
 234              	.LCFI5:
 235              		.cfi_def_cfa_register 7
 152:Core/Src/freertos.c ****   /* USER CODE BEGIN Init */
 153:Core/Src/freertos.c **** 
 154:Core/Src/freertos.c ****   /* USER CODE END Init */
 155:Core/Src/freertos.c **** 
 156:Core/Src/freertos.c ****   /* USER CODE BEGIN RTOS_MUTEX */
 157:Core/Src/freertos.c ****   /* add mutexes, ... */
ARM GAS  C:\Users\Godwin\AppData\Local\Temp\ccOEaMri.s 			page 8


 158:Core/Src/freertos.c ****   /* USER CODE END RTOS_MUTEX */
 159:Core/Src/freertos.c **** 
 160:Core/Src/freertos.c ****   /* USER CODE BEGIN RTOS_SEMAPHORES */
 161:Core/Src/freertos.c ****   /* add semaphores, ... */
 162:Core/Src/freertos.c ****   /* USER CODE END RTOS_SEMAPHORES */
 163:Core/Src/freertos.c **** 
 164:Core/Src/freertos.c ****   /* USER CODE BEGIN RTOS_TIMERS */
 165:Core/Src/freertos.c ****   /* start timers, add new ones, ... */
 166:Core/Src/freertos.c ****   /* USER CODE END RTOS_TIMERS */
 167:Core/Src/freertos.c **** 
 168:Core/Src/freertos.c ****   /* USER CODE BEGIN RTOS_QUEUES */
 169:Core/Src/freertos.c ****   /* add queues, ... */
 170:Core/Src/freertos.c ****   /* USER CODE END RTOS_QUEUES */
 171:Core/Src/freertos.c **** 
 172:Core/Src/freertos.c ****   /* Create the thread(s) */
 173:Core/Src/freertos.c ****   /* creation of Remote_control */
 174:Core/Src/freertos.c ****   Remote_controlHandle = osThreadNew(Remote_control_Task, NULL, &Remote_control_attributes);
 236              		.loc 1 174 26
 237 0004 1C4A     		ldr	r2, .L3
 238 0006 0021     		movs	r1, #0
 239 0008 1C48     		ldr	r0, .L3+4
 240 000a FFF7FEFF 		bl	osThreadNew
 241 000e 0346     		mov	r3, r0
 242              		.loc 1 174 24 discriminator 1
 243 0010 1B4A     		ldr	r2, .L3+8
 244 0012 1360     		str	r3, [r2]
 175:Core/Src/freertos.c **** 
 176:Core/Src/freertos.c ****   /* creation of Eng_arm */
 177:Core/Src/freertos.c ****   Eng_armHandle = osThreadNew(Eng_arm_Task, NULL, &Eng_arm_attributes);
 245              		.loc 1 177 19
 246 0014 1B4A     		ldr	r2, .L3+12
 247 0016 0021     		movs	r1, #0
 248 0018 1B48     		ldr	r0, .L3+16
 249 001a FFF7FEFF 		bl	osThreadNew
 250 001e 0346     		mov	r3, r0
 251              		.loc 1 177 17 discriminator 1
 252 0020 1A4A     		ldr	r2, .L3+20
 253 0022 1360     		str	r3, [r2]
 178:Core/Src/freertos.c **** 
 179:Core/Src/freertos.c ****   /* creation of Chassis */
 180:Core/Src/freertos.c ****   ChassisHandle = osThreadNew(Chassis_Task, NULL, &Chassis_attributes);
 254              		.loc 1 180 19
 255 0024 1A4A     		ldr	r2, .L3+24
 256 0026 0021     		movs	r1, #0
 257 0028 1A48     		ldr	r0, .L3+28
 258 002a FFF7FEFF 		bl	osThreadNew
 259 002e 0346     		mov	r3, r0
 260              		.loc 1 180 17 discriminator 1
 261 0030 194A     		ldr	r2, .L3+32
 262 0032 1360     		str	r3, [r2]
 181:Core/Src/freertos.c **** 
 182:Core/Src/freertos.c ****   /* creation of Motor_control */
 183:Core/Src/freertos.c ****   Motor_controlHandle = osThreadNew(Motor_control_Task, NULL, &Motor_control_attributes);
 263              		.loc 1 183 25
 264 0034 194A     		ldr	r2, .L3+36
 265 0036 0021     		movs	r1, #0
 266 0038 1948     		ldr	r0, .L3+40
ARM GAS  C:\Users\Godwin\AppData\Local\Temp\ccOEaMri.s 			page 9


 267 003a FFF7FEFF 		bl	osThreadNew
 268 003e 0346     		mov	r3, r0
 269              		.loc 1 183 23 discriminator 1
 270 0040 184A     		ldr	r2, .L3+44
 271 0042 1360     		str	r3, [r2]
 184:Core/Src/freertos.c **** 
 185:Core/Src/freertos.c ****   /* creation of Yaw */
 186:Core/Src/freertos.c ****   YawHandle = osThreadNew(Yaw_Task, NULL, &Yaw_attributes);
 272              		.loc 1 186 15
 273 0044 184A     		ldr	r2, .L3+48
 274 0046 0021     		movs	r1, #0
 275 0048 1848     		ldr	r0, .L3+52
 276 004a FFF7FEFF 		bl	osThreadNew
 277 004e 0346     		mov	r3, r0
 278              		.loc 1 186 13 discriminator 1
 279 0050 174A     		ldr	r2, .L3+56
 280 0052 1360     		str	r3, [r2]
 187:Core/Src/freertos.c **** 
 188:Core/Src/freertos.c ****   /* creation of Referee */
 189:Core/Src/freertos.c ****   RefereeHandle = osThreadNew(Referee_Task, NULL, &Referee_attributes);
 281              		.loc 1 189 19
 282 0054 174A     		ldr	r2, .L3+60
 283 0056 0021     		movs	r1, #0
 284 0058 1748     		ldr	r0, .L3+64
 285 005a FFF7FEFF 		bl	osThreadNew
 286 005e 0346     		mov	r3, r0
 287              		.loc 1 189 17 discriminator 1
 288 0060 164A     		ldr	r2, .L3+68
 289 0062 1360     		str	r3, [r2]
 190:Core/Src/freertos.c **** 
 191:Core/Src/freertos.c ****   /* creation of Log_and_debug */
 192:Core/Src/freertos.c ****   Log_and_debugHandle = osThreadNew(Log_and_debug_Task, NULL, &Log_and_debug_attributes);
 290              		.loc 1 192 25
 291 0064 164A     		ldr	r2, .L3+72
 292 0066 0021     		movs	r1, #0
 293 0068 1648     		ldr	r0, .L3+76
 294 006a FFF7FEFF 		bl	osThreadNew
 295 006e 0346     		mov	r3, r0
 296              		.loc 1 192 23 discriminator 1
 297 0070 154A     		ldr	r2, .L3+80
 298 0072 1360     		str	r3, [r2]
 193:Core/Src/freertos.c **** 
 194:Core/Src/freertos.c ****   /* USER CODE BEGIN RTOS_THREADS */
 195:Core/Src/freertos.c ****   /* add threads, ... */
 196:Core/Src/freertos.c ****   /* USER CODE END RTOS_THREADS */
 197:Core/Src/freertos.c **** 
 198:Core/Src/freertos.c ****   /* USER CODE BEGIN RTOS_EVENTS */
 199:Core/Src/freertos.c ****   /* add events, ... */
 200:Core/Src/freertos.c ****   /* USER CODE END RTOS_EVENTS */
 201:Core/Src/freertos.c **** }
 299              		.loc 1 201 1
 300 0074 00BF     		nop
 301 0076 80BD     		pop	{r7, pc}
 302              	.L4:
 303              		.align	2
 304              	.L3:
 305 0078 00000000 		.word	Remote_control_attributes
ARM GAS  C:\Users\Godwin\AppData\Local\Temp\ccOEaMri.s 			page 10


 306 007c 00000000 		.word	Remote_control_Task
 307 0080 00000000 		.word	Remote_controlHandle
 308 0084 00000000 		.word	Eng_arm_attributes
 309 0088 00000000 		.word	Eng_arm_Task
 310 008c 00000000 		.word	Eng_armHandle
 311 0090 00000000 		.word	Chassis_attributes
 312 0094 00000000 		.word	Chassis_Task
 313 0098 00000000 		.word	ChassisHandle
 314 009c 00000000 		.word	Motor_control_attributes
 315 00a0 00000000 		.word	Motor_control_Task
 316 00a4 00000000 		.word	Motor_controlHandle
 317 00a8 00000000 		.word	Yaw_attributes
 318 00ac 00000000 		.word	Yaw_Task
 319 00b0 00000000 		.word	YawHandle
 320 00b4 00000000 		.word	Referee_attributes
 321 00b8 00000000 		.word	Referee_Task
 322 00bc 00000000 		.word	RefereeHandle
 323 00c0 00000000 		.word	Log_and_debug_attributes
 324 00c4 00000000 		.word	Log_and_debug_Task
 325 00c8 00000000 		.word	Log_and_debugHandle
 326              		.cfi_endproc
 327              	.LFE152:
 329              		.section	.text.Remote_control_Task,"ax",%progbits
 330              		.align	1
 331              		.global	Remote_control_Task
 332              		.syntax unified
 333              		.thumb
 334              		.thumb_func
 336              	Remote_control_Task:
 337              	.LFB153:
 202:Core/Src/freertos.c **** 
 203:Core/Src/freertos.c **** /* USER CODE BEGIN Header_Remote_control_Task */
 204:Core/Src/freertos.c **** /**
 205:Core/Src/freertos.c ****  * @brief  Function implementing the Remote_control thread.
 206:Core/Src/freertos.c ****  * @param  argument: Not used
 207:Core/Src/freertos.c ****  * @retval None
 208:Core/Src/freertos.c ****  */
 209:Core/Src/freertos.c **** /* USER CODE END Header_Remote_control_Task */
 210:Core/Src/freertos.c **** void Remote_control_Task(void *argument)
 211:Core/Src/freertos.c **** {
 338              		.loc 1 211 1
 339              		.cfi_startproc
 340              		@ args = 0, pretend = 0, frame = 8
 341              		@ frame_needed = 1, uses_anonymous_args = 0
 342 0000 80B5     		push	{r7, lr}
 343              	.LCFI6:
 344              		.cfi_def_cfa_offset 8
 345              		.cfi_offset 7, -8
 346              		.cfi_offset 14, -4
 347 0002 82B0     		sub	sp, sp, #8
 348              	.LCFI7:
 349              		.cfi_def_cfa_offset 16
 350 0004 00AF     		add	r7, sp, #0
 351              	.LCFI8:
 352              		.cfi_def_cfa_register 7
 353 0006 7860     		str	r0, [r7, #4]
 212:Core/Src/freertos.c ****   /* init code for USB_DEVICE */
ARM GAS  C:\Users\Godwin\AppData\Local\Temp\ccOEaMri.s 			page 11


 213:Core/Src/freertos.c ****   MX_USB_DEVICE_Init();
 354              		.loc 1 213 3
 355 0008 FFF7FEFF 		bl	MX_USB_DEVICE_Init
 356              	.L6:
 214:Core/Src/freertos.c ****   /* USER CODE BEGIN Remote_control_Task */
 215:Core/Src/freertos.c ****   /* Infinite loop */
 216:Core/Src/freertos.c ****   for (;;)
 217:Core/Src/freertos.c ****   {
 218:Core/Src/freertos.c ****     osDelay(1);
 357              		.loc 1 218 5 discriminator 1
 358 000c 0120     		movs	r0, #1
 359 000e FFF7FEFF 		bl	osDelay
 360 0012 FBE7     		b	.L6
 361              		.cfi_endproc
 362              	.LFE153:
 364              		.section	.rodata
 365 004a 0000     		.align	2
 366              	.LC7:
 367 004c 36363600 		.ascii	"666\000"
 368              		.section	.text.Eng_arm_Task,"ax",%progbits
 369              		.align	1
 370              		.global	Eng_arm_Task
 371              		.syntax unified
 372              		.thumb
 373              		.thumb_func
 375              	Eng_arm_Task:
 376              	.LFB154:
 219:Core/Src/freertos.c ****   }
 220:Core/Src/freertos.c ****   /* USER CODE END Remote_control_Task */
 221:Core/Src/freertos.c **** }
 222:Core/Src/freertos.c **** 
 223:Core/Src/freertos.c **** /* USER CODE BEGIN Header_Eng_arm_Task */
 224:Core/Src/freertos.c **** /**
 225:Core/Src/freertos.c ****  * @brief Function implementing the Eng_arm thread.
 226:Core/Src/freertos.c ****  * @param argument: Not used
 227:Core/Src/freertos.c ****  * @retval None
 228:Core/Src/freertos.c ****  */
 229:Core/Src/freertos.c **** /* USER CODE END Header_Eng_arm_Task */
 230:Core/Src/freertos.c **** void Eng_arm_Task(void *argument)
 231:Core/Src/freertos.c **** {
 377              		.loc 1 231 1
 378              		.cfi_startproc
 379              		@ args = 0, pretend = 0, frame = 8
 380              		@ frame_needed = 1, uses_anonymous_args = 0
 381 0000 80B5     		push	{r7, lr}
 382              	.LCFI9:
 383              		.cfi_def_cfa_offset 8
 384              		.cfi_offset 7, -8
 385              		.cfi_offset 14, -4
 386 0002 82B0     		sub	sp, sp, #8
 387              	.LCFI10:
 388              		.cfi_def_cfa_offset 16
 389 0004 00AF     		add	r7, sp, #0
 390              	.LCFI11:
 391              		.cfi_def_cfa_register 7
 392 0006 7860     		str	r0, [r7, #4]
 393              	.L8:
ARM GAS  C:\Users\Godwin\AppData\Local\Temp\ccOEaMri.s 			page 12


 232:Core/Src/freertos.c ****   /* USER CODE BEGIN Eng_arm_Task */
 233:Core/Src/freertos.c ****   /* Infinite loop */
 234:Core/Src/freertos.c ****   for (;;)
 235:Core/Src/freertos.c ****   {
 236:Core/Src/freertos.c ****     Arm_motor1();
 394              		.loc 1 236 5
 395 0008 FFF7FEFF 		bl	Arm_motor1
 237:Core/Src/freertos.c ****     osDelay(1);
 396              		.loc 1 237 5
 397 000c 0120     		movs	r0, #1
 398 000e FFF7FEFF 		bl	osDelay
 238:Core/Src/freertos.c ****     // Arm_motor2();
 239:Core/Src/freertos.c ****     // osDelay(1);
 240:Core/Src/freertos.c ****     // Arm_motor3();
 241:Core/Src/freertos.c ****     // osDelay(1);
 242:Core/Src/freertos.c ****     // Arm_motor4();
 243:Core/Src/freertos.c ****     osDelay(1);
 399              		.loc 1 243 5
 400 0012 0120     		movs	r0, #1
 401 0014 FFF7FEFF 		bl	osDelay
 244:Core/Src/freertos.c ****     Arm_motor5();
 402              		.loc 1 244 5
 403 0018 FFF7FEFF 		bl	Arm_motor5
 245:Core/Src/freertos.c ****     osDelay(1);
 404              		.loc 1 245 5
 405 001c 0120     		movs	r0, #1
 406 001e FFF7FEFF 		bl	osDelay
 246:Core/Src/freertos.c ****     // Arm_motor6();
 247:Core/Src/freertos.c ****     printf("666\n");
 407              		.loc 1 247 5 discriminator 1
 408 0022 0248     		ldr	r0, .L9
 409 0024 FFF7FEFF 		bl	puts
 236:Core/Src/freertos.c ****     osDelay(1);
 410              		.loc 1 236 5
 411 0028 00BF     		nop
 412 002a EDE7     		b	.L8
 413              	.L10:
 414              		.align	2
 415              	.L9:
 416 002c 4C000000 		.word	.LC7
 417              		.cfi_endproc
 418              	.LFE154:
 420              		.section	.text.Chassis_Task,"ax",%progbits
 421              		.align	1
 422              		.global	Chassis_Task
 423              		.syntax unified
 424              		.thumb
 425              		.thumb_func
 427              	Chassis_Task:
 428              	.LFB155:
 248:Core/Src/freertos.c ****   }
 249:Core/Src/freertos.c ****   /* USER CODE END Eng_arm_Task */
 250:Core/Src/freertos.c **** }
 251:Core/Src/freertos.c **** 
 252:Core/Src/freertos.c **** /* USER CODE BEGIN Header_Chassis_Task */
 253:Core/Src/freertos.c **** /**
 254:Core/Src/freertos.c ****  * @brief Function implementing the Chassis thread.
ARM GAS  C:\Users\Godwin\AppData\Local\Temp\ccOEaMri.s 			page 13


 255:Core/Src/freertos.c ****  * @param argument: Not used
 256:Core/Src/freertos.c ****  * @retval None
 257:Core/Src/freertos.c ****  */
 258:Core/Src/freertos.c **** /* USER CODE END Header_Chassis_Task */
 259:Core/Src/freertos.c **** void Chassis_Task(void *argument)
 260:Core/Src/freertos.c **** {
 429              		.loc 1 260 1
 430              		.cfi_startproc
 431              		@ args = 0, pretend = 0, frame = 8
 432              		@ frame_needed = 1, uses_anonymous_args = 0
 433 0000 80B5     		push	{r7, lr}
 434              	.LCFI12:
 435              		.cfi_def_cfa_offset 8
 436              		.cfi_offset 7, -8
 437              		.cfi_offset 14, -4
 438 0002 82B0     		sub	sp, sp, #8
 439              	.LCFI13:
 440              		.cfi_def_cfa_offset 16
 441 0004 00AF     		add	r7, sp, #0
 442              	.LCFI14:
 443              		.cfi_def_cfa_register 7
 444 0006 7860     		str	r0, [r7, #4]
 445              	.L12:
 261:Core/Src/freertos.c ****   /* USER CODE BEGIN Chassis_Task */
 262:Core/Src/freertos.c ****   /* Infinite loop */
 263:Core/Src/freertos.c ****   for (;;)
 264:Core/Src/freertos.c ****   {
 265:Core/Src/freertos.c **** 
 266:Core/Src/freertos.c ****     HAL_IWDG_Refresh(&hiwdg1);
 446              		.loc 1 266 5
 447 0008 0348     		ldr	r0, .L13
 448 000a FFF7FEFF 		bl	HAL_IWDG_Refresh
 267:Core/Src/freertos.c ****     osDelay(1);
 449              		.loc 1 267 5 discriminator 1
 450 000e 0120     		movs	r0, #1
 451 0010 FFF7FEFF 		bl	osDelay
 266:Core/Src/freertos.c ****     osDelay(1);
 452              		.loc 1 266 5
 453 0014 00BF     		nop
 454 0016 F7E7     		b	.L12
 455              	.L14:
 456              		.align	2
 457              	.L13:
 458 0018 00000000 		.word	hiwdg1
 459              		.cfi_endproc
 460              	.LFE155:
 462              		.section	.text.Motor_control_Task,"ax",%progbits
 463              		.align	1
 464              		.global	Motor_control_Task
 465              		.syntax unified
 466              		.thumb
 467              		.thumb_func
 469              	Motor_control_Task:
 470              	.LFB156:
 268:Core/Src/freertos.c ****   }
 269:Core/Src/freertos.c ****   /* USER CODE END Chassis_Task */
 270:Core/Src/freertos.c **** }
ARM GAS  C:\Users\Godwin\AppData\Local\Temp\ccOEaMri.s 			page 14


 271:Core/Src/freertos.c **** 
 272:Core/Src/freertos.c **** /* USER CODE BEGIN Header_Motor_control_Task */
 273:Core/Src/freertos.c **** /**
 274:Core/Src/freertos.c ****  * @brief Function implementing the Motor_control thread.
 275:Core/Src/freertos.c ****  * @param argument: Not used
 276:Core/Src/freertos.c ****  * @retval None
 277:Core/Src/freertos.c ****  */
 278:Core/Src/freertos.c **** /* USER CODE END Header_Motor_control_Task */
 279:Core/Src/freertos.c **** void Motor_control_Task(void *argument)
 280:Core/Src/freertos.c **** {
 471              		.loc 1 280 1
 472              		.cfi_startproc
 473              		@ args = 0, pretend = 0, frame = 8
 474              		@ frame_needed = 1, uses_anonymous_args = 0
 475              		@ link register save eliminated.
 476 0000 80B4     		push	{r7}
 477              	.LCFI15:
 478              		.cfi_def_cfa_offset 4
 479              		.cfi_offset 7, -4
 480 0002 83B0     		sub	sp, sp, #12
 481              	.LCFI16:
 482              		.cfi_def_cfa_offset 16
 483 0004 00AF     		add	r7, sp, #0
 484              	.LCFI17:
 485              		.cfi_def_cfa_register 7
 486 0006 7860     		str	r0, [r7, #4]
 487              	.L16:
 281:Core/Src/freertos.c ****   /* USER CODE BEGIN Motor_control_Task */
 282:Core/Src/freertos.c ****   /* Infinite loop */
 283:Core/Src/freertos.c ****   for (;;)
 488              		.loc 1 283 3
 489 0008 00BF     		nop
 490 000a FDE7     		b	.L16
 491              		.cfi_endproc
 492              	.LFE156:
 494              		.section	.text.Yaw_Task,"ax",%progbits
 495              		.align	1
 496              		.global	Yaw_Task
 497              		.syntax unified
 498              		.thumb
 499              		.thumb_func
 501              	Yaw_Task:
 502              	.LFB157:
 284:Core/Src/freertos.c ****   {
 285:Core/Src/freertos.c ****   }
 286:Core/Src/freertos.c ****   /* USER CODE END Motor_control_Task */
 287:Core/Src/freertos.c **** }
 288:Core/Src/freertos.c **** 
 289:Core/Src/freertos.c **** /* USER CODE BEGIN Header_Yaw_Task */
 290:Core/Src/freertos.c **** /**
 291:Core/Src/freertos.c ****  * @brief Function implementing the Yaw thread.
 292:Core/Src/freertos.c ****  * @param argument: Not used
 293:Core/Src/freertos.c ****  * @retval None
 294:Core/Src/freertos.c ****  */
 295:Core/Src/freertos.c **** /* USER CODE END Header_Yaw_Task */
 296:Core/Src/freertos.c **** void Yaw_Task(void *argument)
 297:Core/Src/freertos.c **** {
ARM GAS  C:\Users\Godwin\AppData\Local\Temp\ccOEaMri.s 			page 15


 503              		.loc 1 297 1
 504              		.cfi_startproc
 505              		@ args = 0, pretend = 0, frame = 8
 506              		@ frame_needed = 1, uses_anonymous_args = 0
 507 0000 80B5     		push	{r7, lr}
 508              	.LCFI18:
 509              		.cfi_def_cfa_offset 8
 510              		.cfi_offset 7, -8
 511              		.cfi_offset 14, -4
 512 0002 82B0     		sub	sp, sp, #8
 513              	.LCFI19:
 514              		.cfi_def_cfa_offset 16
 515 0004 00AF     		add	r7, sp, #0
 516              	.LCFI20:
 517              		.cfi_def_cfa_register 7
 518 0006 7860     		str	r0, [r7, #4]
 519              	.L18:
 298:Core/Src/freertos.c ****   /* USER CODE BEGIN Yaw_Task */
 299:Core/Src/freertos.c ****   /* Infinite loop */
 300:Core/Src/freertos.c ****   for (;;)
 301:Core/Src/freertos.c ****   {
 302:Core/Src/freertos.c **** 
 303:Core/Src/freertos.c ****     osDelay(1);
 520              		.loc 1 303 5 discriminator 1
 521 0008 0120     		movs	r0, #1
 522 000a FFF7FEFF 		bl	osDelay
 523 000e FBE7     		b	.L18
 524              		.cfi_endproc
 525              	.LFE157:
 527              		.section	.text.Referee_Task,"ax",%progbits
 528              		.align	1
 529              		.global	Referee_Task
 530              		.syntax unified
 531              		.thumb
 532              		.thumb_func
 534              	Referee_Task:
 535              	.LFB158:
 304:Core/Src/freertos.c ****   }
 305:Core/Src/freertos.c ****   /* USER CODE END Yaw_Task */
 306:Core/Src/freertos.c **** }
 307:Core/Src/freertos.c **** 
 308:Core/Src/freertos.c **** /* USER CODE BEGIN Header_Referee_Task */
 309:Core/Src/freertos.c **** /**
 310:Core/Src/freertos.c ****  * @brief Function implementing the Referee thread.
 311:Core/Src/freertos.c ****  * @param argument: Not used
 312:Core/Src/freertos.c ****  * @retval None
 313:Core/Src/freertos.c ****  */
 314:Core/Src/freertos.c **** /* USER CODE END Header_Referee_Task */
 315:Core/Src/freertos.c **** void Referee_Task(void *argument)
 316:Core/Src/freertos.c **** {
 536              		.loc 1 316 1
 537              		.cfi_startproc
 538              		@ args = 0, pretend = 0, frame = 8
 539              		@ frame_needed = 1, uses_anonymous_args = 0
 540 0000 80B5     		push	{r7, lr}
 541              	.LCFI21:
 542              		.cfi_def_cfa_offset 8
ARM GAS  C:\Users\Godwin\AppData\Local\Temp\ccOEaMri.s 			page 16


 543              		.cfi_offset 7, -8
 544              		.cfi_offset 14, -4
 545 0002 82B0     		sub	sp, sp, #8
 546              	.LCFI22:
 547              		.cfi_def_cfa_offset 16
 548 0004 00AF     		add	r7, sp, #0
 549              	.LCFI23:
 550              		.cfi_def_cfa_register 7
 551 0006 7860     		str	r0, [r7, #4]
 552              	.L20:
 317:Core/Src/freertos.c ****   /* USER CODE BEGIN Referee_Task */
 318:Core/Src/freertos.c ****   /* Infinite loop */
 319:Core/Src/freertos.c ****   for (;;)
 320:Core/Src/freertos.c ****   {
 321:Core/Src/freertos.c **** 
 322:Core/Src/freertos.c ****     osDelay(1);
 553              		.loc 1 322 5 discriminator 1
 554 0008 0120     		movs	r0, #1
 555 000a FFF7FEFF 		bl	osDelay
 556 000e FBE7     		b	.L20
 557              		.cfi_endproc
 558              	.LFE158:
 560              		.section	.text.Log_and_debug_Task,"ax",%progbits
 561              		.align	1
 562              		.global	Log_and_debug_Task
 563              		.syntax unified
 564              		.thumb
 565              		.thumb_func
 567              	Log_and_debug_Task:
 568              	.LFB159:
 323:Core/Src/freertos.c ****   }
 324:Core/Src/freertos.c ****   /* USER CODE END Referee_Task */
 325:Core/Src/freertos.c **** }
 326:Core/Src/freertos.c **** 
 327:Core/Src/freertos.c **** /* USER CODE BEGIN Header_Log_and_debug_Task */
 328:Core/Src/freertos.c **** /**
 329:Core/Src/freertos.c ****  * @brief Function implementing the Log_and_debug thread.
 330:Core/Src/freertos.c ****  * @param argument: Not used
 331:Core/Src/freertos.c ****  * @retval None
 332:Core/Src/freertos.c ****  */
 333:Core/Src/freertos.c **** /* USER CODE END Header_Log_and_debug_Task */
 334:Core/Src/freertos.c **** void Log_and_debug_Task(void *argument)
 335:Core/Src/freertos.c **** {
 569              		.loc 1 335 1
 570              		.cfi_startproc
 571              		@ args = 0, pretend = 0, frame = 8
 572              		@ frame_needed = 1, uses_anonymous_args = 0
 573 0000 80B5     		push	{r7, lr}
 574              	.LCFI24:
 575              		.cfi_def_cfa_offset 8
 576              		.cfi_offset 7, -8
 577              		.cfi_offset 14, -4
 578 0002 82B0     		sub	sp, sp, #8
 579              	.LCFI25:
 580              		.cfi_def_cfa_offset 16
 581 0004 00AF     		add	r7, sp, #0
 582              	.LCFI26:
ARM GAS  C:\Users\Godwin\AppData\Local\Temp\ccOEaMri.s 			page 17


 583              		.cfi_def_cfa_register 7
 584 0006 7860     		str	r0, [r7, #4]
 585              	.L22:
 336:Core/Src/freertos.c ****   /* USER CODE BEGIN Log_and_debug_Task */
 337:Core/Src/freertos.c **** 
 338:Core/Src/freertos.c ****   /* Infinite loop */
 339:Core/Src/freertos.c ****   for (;;)
 340:Core/Src/freertos.c ****   {
 341:Core/Src/freertos.c ****     LEDshowcolor(RED);
 586              		.loc 1 341 5
 587 0008 4FF47F00 		mov	r0, #16711680
 588 000c FFF7FEFF 		bl	LEDshowcolor
 342:Core/Src/freertos.c ****     osDelay(500);
 589              		.loc 1 342 5
 590 0010 4FF4FA70 		mov	r0, #500
 591 0014 FFF7FEFF 		bl	osDelay
 343:Core/Src/freertos.c ****     LEDshowcolor(BLUE);
 592              		.loc 1 343 5
 593 0018 FF20     		movs	r0, #255
 594 001a FFF7FEFF 		bl	LEDshowcolor
 344:Core/Src/freertos.c ****     osDelay(500);
 595              		.loc 1 344 5
 596 001e 4FF4FA70 		mov	r0, #500
 597 0022 FFF7FEFF 		bl	osDelay
 345:Core/Src/freertos.c ****     LEDshowcolor(GREEN);
 598              		.loc 1 345 5
 599 0026 4FF47F40 		mov	r0, #65280
 600 002a FFF7FEFF 		bl	LEDshowcolor
 346:Core/Src/freertos.c ****     osDelay(500);
 601              		.loc 1 346 5
 602 002e 4FF4FA70 		mov	r0, #500
 603 0032 FFF7FEFF 		bl	osDelay
 347:Core/Src/freertos.c ****     // Music_play(melody);
 348:Core/Src/freertos.c ****     //  printf("hello\n");
 349:Core/Src/freertos.c ****     osDelay(1);
 604              		.loc 1 349 5 discriminator 1
 605 0036 0120     		movs	r0, #1
 606 0038 FFF7FEFF 		bl	osDelay
 341:Core/Src/freertos.c ****     osDelay(500);
 607              		.loc 1 341 5
 608 003c 00BF     		nop
 609 003e E3E7     		b	.L22
 610              		.cfi_endproc
 611              	.LFE159:
 613              		.text
 614              	.Letext0:
 615              		.file 2 "C:/Users/Godwin/13.2 Rel1/arm-none-eabi/include/machine/_default_types.h"
 616              		.file 3 "C:/Users/Godwin/13.2 Rel1/arm-none-eabi/include/sys/_stdint.h"
 617              		.file 4 "Drivers/CMSIS/Device/ST/STM32H7xx/Include/stm32h723xx.h"
 618              		.file 5 "Drivers/STM32H7xx_HAL_Driver/Inc/stm32h7xx_hal_def.h"
 619              		.file 6 "Drivers/STM32H7xx_HAL_Driver/Inc/stm32h7xx_hal_iwdg.h"
 620              		.file 7 "Middlewares/Third_Party/FreeRTOS/Source/CMSIS_RTOS_V2/cmsis_os2.h"
 621              		.file 8 "User/Hardware/LED.h"
 622              		.file 9 "User/Hardware/dm4310_drv.h"
 623              		.file 10 "Core/Inc/iwdg.h"
 624              		.file 11 "User/Hardware/dm_arm.h"
ARM GAS  C:\Users\Godwin\AppData\Local\Temp\ccOEaMri.s 			page 18

