ARM GAS  C:\Users\Godwin\AppData\Local\Temp\ccR1iOrB.s 			page 1


   1              		.cpu cortex-m7
   2              		.arch armv7e-m
   3              		.fpu fpv5-d16
   4              		.eabi_attribute 28, 1
   5              		.eabi_attribute 20, 1
   6              		.eabi_attribute 21, 1
   7              		.eabi_attribute 23, 3
   8              		.eabi_attribute 24, 1
   9              		.eabi_attribute 25, 1
  10              		.eabi_attribute 26, 1
  11              		.eabi_attribute 30, 6
  12              		.eabi_attribute 34, 1
  13              		.eabi_attribute 18, 4
  14              		.file	"gpio.c"
  15              		.text
  16              	.Ltext0:
  17              		.cfi_sections	.debug_frame
  18              		.file 1 "Core/Src/gpio.c"
  19              		.section	.text.MX_GPIO_Init,"ax",%progbits
  20              		.align	1
  21              		.global	MX_GPIO_Init
  22              		.syntax unified
  23              		.thumb
  24              		.thumb_func
  26              	MX_GPIO_Init:
  27              	.LFB144:
   1:Core/Src/gpio.c **** /* USER CODE BEGIN Header */
   2:Core/Src/gpio.c **** /**
   3:Core/Src/gpio.c ****   ******************************************************************************
   4:Core/Src/gpio.c ****   * @file    gpio.c
   5:Core/Src/gpio.c ****   * @brief   This file provides code for the configuration
   6:Core/Src/gpio.c ****   *          of all used GPIO pins.
   7:Core/Src/gpio.c ****   ******************************************************************************
   8:Core/Src/gpio.c ****   * @attention
   9:Core/Src/gpio.c ****   *
  10:Core/Src/gpio.c ****   * Copyright (c) 2024 STMicroelectronics.
  11:Core/Src/gpio.c ****   * All rights reserved.
  12:Core/Src/gpio.c ****   *
  13:Core/Src/gpio.c ****   * This software is licensed under terms that can be found in the LICENSE file
  14:Core/Src/gpio.c ****   * in the root directory of this software component.
  15:Core/Src/gpio.c ****   * If no LICENSE file comes with this software, it is provided AS-IS.
  16:Core/Src/gpio.c ****   *
  17:Core/Src/gpio.c ****   ******************************************************************************
  18:Core/Src/gpio.c ****   */
  19:Core/Src/gpio.c **** /* USER CODE END Header */
  20:Core/Src/gpio.c **** 
  21:Core/Src/gpio.c **** /* Includes ------------------------------------------------------------------*/
  22:Core/Src/gpio.c **** #include "gpio.h"
  23:Core/Src/gpio.c **** 
  24:Core/Src/gpio.c **** /* USER CODE BEGIN 0 */
  25:Core/Src/gpio.c **** 
  26:Core/Src/gpio.c **** /* USER CODE END 0 */
  27:Core/Src/gpio.c **** 
  28:Core/Src/gpio.c **** /*----------------------------------------------------------------------------*/
  29:Core/Src/gpio.c **** /* Configure GPIO                                                             */
  30:Core/Src/gpio.c **** /*----------------------------------------------------------------------------*/
  31:Core/Src/gpio.c **** /* USER CODE BEGIN 1 */
ARM GAS  C:\Users\Godwin\AppData\Local\Temp\ccR1iOrB.s 			page 2


  32:Core/Src/gpio.c **** 
  33:Core/Src/gpio.c **** /* USER CODE END 1 */
  34:Core/Src/gpio.c **** 
  35:Core/Src/gpio.c **** /** Configure pins as
  36:Core/Src/gpio.c ****         * Analog
  37:Core/Src/gpio.c ****         * Input
  38:Core/Src/gpio.c ****         * Output
  39:Core/Src/gpio.c ****         * EVENT_OUT
  40:Core/Src/gpio.c ****         * EXTI
  41:Core/Src/gpio.c ****      PC9   ------> RCC_MCO_2
  42:Core/Src/gpio.c ****      PA8   ------> RCC_MCO_1
  43:Core/Src/gpio.c **** */
  44:Core/Src/gpio.c **** void MX_GPIO_Init(void)
  45:Core/Src/gpio.c **** {
  28              		.loc 1 45 1
  29              		.cfi_startproc
  30              		@ args = 0, pretend = 0, frame = 48
  31              		@ frame_needed = 1, uses_anonymous_args = 0
  32 0000 80B5     		push	{r7, lr}
  33              	.LCFI0:
  34              		.cfi_def_cfa_offset 8
  35              		.cfi_offset 7, -8
  36              		.cfi_offset 14, -4
  37 0002 8CB0     		sub	sp, sp, #48
  38              	.LCFI1:
  39              		.cfi_def_cfa_offset 56
  40 0004 00AF     		add	r7, sp, #0
  41              	.LCFI2:
  42              		.cfi_def_cfa_register 7
  46:Core/Src/gpio.c **** 
  47:Core/Src/gpio.c ****   GPIO_InitTypeDef GPIO_InitStruct = {0};
  43              		.loc 1 47 20
  44 0006 07F11C03 		add	r3, r7, #28
  45 000a 0022     		movs	r2, #0
  46 000c 1A60     		str	r2, [r3]
  47 000e 5A60     		str	r2, [r3, #4]
  48 0010 9A60     		str	r2, [r3, #8]
  49 0012 DA60     		str	r2, [r3, #12]
  50 0014 1A61     		str	r2, [r3, #16]
  51              	.LBB2:
  48:Core/Src/gpio.c **** 
  49:Core/Src/gpio.c ****   /* GPIO Ports Clock Enable */
  50:Core/Src/gpio.c ****   __HAL_RCC_GPIOE_CLK_ENABLE();
  52              		.loc 1 50 3
  53 0016 7A4B     		ldr	r3, .L2
  54 0018 D3F8E030 		ldr	r3, [r3, #224]
  55 001c 784A     		ldr	r2, .L2
  56 001e 43F01003 		orr	r3, r3, #16
  57 0022 C2F8E030 		str	r3, [r2, #224]
  58 0026 764B     		ldr	r3, .L2
  59 0028 D3F8E030 		ldr	r3, [r3, #224]
  60 002c 03F01003 		and	r3, r3, #16
  61 0030 BB61     		str	r3, [r7, #24]
  62 0032 BB69     		ldr	r3, [r7, #24]
  63              	.LBE2:
  64              	.LBB3:
  51:Core/Src/gpio.c ****   __HAL_RCC_GPIOC_CLK_ENABLE();
ARM GAS  C:\Users\Godwin\AppData\Local\Temp\ccR1iOrB.s 			page 3


  65              		.loc 1 51 3
  66 0034 724B     		ldr	r3, .L2
  67 0036 D3F8E030 		ldr	r3, [r3, #224]
  68 003a 714A     		ldr	r2, .L2
  69 003c 43F00403 		orr	r3, r3, #4
  70 0040 C2F8E030 		str	r3, [r2, #224]
  71 0044 6E4B     		ldr	r3, .L2
  72 0046 D3F8E030 		ldr	r3, [r3, #224]
  73 004a 03F00403 		and	r3, r3, #4
  74 004e 7B61     		str	r3, [r7, #20]
  75 0050 7B69     		ldr	r3, [r7, #20]
  76              	.LBE3:
  77              	.LBB4:
  52:Core/Src/gpio.c ****   __HAL_RCC_GPIOH_CLK_ENABLE();
  78              		.loc 1 52 3
  79 0052 6B4B     		ldr	r3, .L2
  80 0054 D3F8E030 		ldr	r3, [r3, #224]
  81 0058 694A     		ldr	r2, .L2
  82 005a 43F08003 		orr	r3, r3, #128
  83 005e C2F8E030 		str	r3, [r2, #224]
  84 0062 674B     		ldr	r3, .L2
  85 0064 D3F8E030 		ldr	r3, [r3, #224]
  86 0068 03F08003 		and	r3, r3, #128
  87 006c 3B61     		str	r3, [r7, #16]
  88 006e 3B69     		ldr	r3, [r7, #16]
  89              	.LBE4:
  90              	.LBB5:
  53:Core/Src/gpio.c ****   __HAL_RCC_GPIOA_CLK_ENABLE();
  91              		.loc 1 53 3
  92 0070 634B     		ldr	r3, .L2
  93 0072 D3F8E030 		ldr	r3, [r3, #224]
  94 0076 624A     		ldr	r2, .L2
  95 0078 43F00103 		orr	r3, r3, #1
  96 007c C2F8E030 		str	r3, [r2, #224]
  97 0080 5F4B     		ldr	r3, .L2
  98 0082 D3F8E030 		ldr	r3, [r3, #224]
  99 0086 03F00103 		and	r3, r3, #1
 100 008a FB60     		str	r3, [r7, #12]
 101 008c FB68     		ldr	r3, [r7, #12]
 102              	.LBE5:
 103              	.LBB6:
  54:Core/Src/gpio.c ****   __HAL_RCC_GPIOB_CLK_ENABLE();
 104              		.loc 1 54 3
 105 008e 5C4B     		ldr	r3, .L2
 106 0090 D3F8E030 		ldr	r3, [r3, #224]
 107 0094 5A4A     		ldr	r2, .L2
 108 0096 43F00203 		orr	r3, r3, #2
 109 009a C2F8E030 		str	r3, [r2, #224]
 110 009e 584B     		ldr	r3, .L2
 111 00a0 D3F8E030 		ldr	r3, [r3, #224]
 112 00a4 03F00203 		and	r3, r3, #2
 113 00a8 BB60     		str	r3, [r7, #8]
 114 00aa BB68     		ldr	r3, [r7, #8]
 115              	.LBE6:
 116              	.LBB7:
  55:Core/Src/gpio.c ****   __HAL_RCC_GPIOD_CLK_ENABLE();
 117              		.loc 1 55 3
ARM GAS  C:\Users\Godwin\AppData\Local\Temp\ccR1iOrB.s 			page 4


 118 00ac 544B     		ldr	r3, .L2
 119 00ae D3F8E030 		ldr	r3, [r3, #224]
 120 00b2 534A     		ldr	r2, .L2
 121 00b4 43F00803 		orr	r3, r3, #8
 122 00b8 C2F8E030 		str	r3, [r2, #224]
 123 00bc 504B     		ldr	r3, .L2
 124 00be D3F8E030 		ldr	r3, [r3, #224]
 125 00c2 03F00803 		and	r3, r3, #8
 126 00c6 7B60     		str	r3, [r7, #4]
 127 00c8 7B68     		ldr	r3, [r7, #4]
 128              	.LBE7:
  56:Core/Src/gpio.c **** 
  57:Core/Src/gpio.c ****   /*Configure GPIO pin Output Level */
  58:Core/Src/gpio.c ****   HAL_GPIO_WritePin(GPIOC, Power_OUT2_Pin|Power_OUT1_Pin|POWER_5V_Pin|ACC_CS_Pin
 129              		.loc 1 58 3
 130 00ca 0122     		movs	r2, #1
 131 00cc 4EF60941 		movw	r1, #60425
 132 00d0 4C48     		ldr	r0, .L2+4
 133 00d2 FFF7FEFF 		bl	HAL_GPIO_WritePin
  59:Core/Src/gpio.c ****                           |GYRO_CS_Pin|GPIO_PIN_10|GPIO_PIN_11, GPIO_PIN_SET);
  60:Core/Src/gpio.c **** 
  61:Core/Src/gpio.c ****   /*Configure GPIO pin Output Level */
  62:Core/Src/gpio.c ****   HAL_GPIO_WritePin(GPIOE, GPIO_PIN_14|GPIO_PIN_0|GPIO_PIN_1, GPIO_PIN_SET);
 134              		.loc 1 62 3
 135 00d6 0122     		movs	r2, #1
 136 00d8 44F20301 		movw	r1, #16387
 137 00dc 4A48     		ldr	r0, .L2+8
 138 00de FFF7FEFF 		bl	HAL_GPIO_WritePin
  63:Core/Src/gpio.c **** 
  64:Core/Src/gpio.c ****   /*Configure GPIO pin Output Level */
  65:Core/Src/gpio.c ****   HAL_GPIO_WritePin(GPIOD, GPIO_PIN_14|GPIO_PIN_15, GPIO_PIN_SET);
 139              		.loc 1 65 3
 140 00e2 0122     		movs	r2, #1
 141 00e4 4FF44041 		mov	r1, #49152
 142 00e8 4848     		ldr	r0, .L2+12
 143 00ea FFF7FEFF 		bl	HAL_GPIO_WritePin
  66:Core/Src/gpio.c **** 
  67:Core/Src/gpio.c ****   /*Configure GPIO pin Output Level */
  68:Core/Src/gpio.c ****   HAL_GPIO_WritePin(GPIOB, GPIO_PIN_8|GPIO_PIN_9, GPIO_PIN_SET);
 144              		.loc 1 68 3
 145 00ee 0122     		movs	r2, #1
 146 00f0 4FF44071 		mov	r1, #768
 147 00f4 4648     		ldr	r0, .L2+16
 148 00f6 FFF7FEFF 		bl	HAL_GPIO_WritePin
  69:Core/Src/gpio.c **** 
  70:Core/Src/gpio.c ****   /*Configure GPIO pins : Power_OUT2_Pin Power_OUT1_Pin POWER_5V_Pin PC10
  71:Core/Src/gpio.c ****                            PC11 */
  72:Core/Src/gpio.c ****   GPIO_InitStruct.Pin = Power_OUT2_Pin|Power_OUT1_Pin|POWER_5V_Pin|GPIO_PIN_10
 149              		.loc 1 72 23
 150 00fa 4FF46C43 		mov	r3, #60416
 151 00fe FB61     		str	r3, [r7, #28]
  73:Core/Src/gpio.c ****                           |GPIO_PIN_11;
  74:Core/Src/gpio.c ****   GPIO_InitStruct.Mode = GPIO_MODE_OUTPUT_PP;
 152              		.loc 1 74 24
 153 0100 0123     		movs	r3, #1
 154 0102 3B62     		str	r3, [r7, #32]
  75:Core/Src/gpio.c ****   GPIO_InitStruct.Pull = GPIO_NOPULL;
ARM GAS  C:\Users\Godwin\AppData\Local\Temp\ccR1iOrB.s 			page 5


 155              		.loc 1 75 24
 156 0104 0023     		movs	r3, #0
 157 0106 7B62     		str	r3, [r7, #36]
  76:Core/Src/gpio.c ****   GPIO_InitStruct.Speed = GPIO_SPEED_FREQ_LOW;
 158              		.loc 1 76 25
 159 0108 0023     		movs	r3, #0
 160 010a BB62     		str	r3, [r7, #40]
  77:Core/Src/gpio.c ****   HAL_GPIO_Init(GPIOC, &GPIO_InitStruct);
 161              		.loc 1 77 3
 162 010c 07F11C03 		add	r3, r7, #28
 163 0110 1946     		mov	r1, r3
 164 0112 3C48     		ldr	r0, .L2+4
 165 0114 FFF7FEFF 		bl	HAL_GPIO_Init
  78:Core/Src/gpio.c **** 
  79:Core/Src/gpio.c ****   /*Configure GPIO pins : ACC_CS_Pin GYRO_CS_Pin */
  80:Core/Src/gpio.c ****   GPIO_InitStruct.Pin = ACC_CS_Pin|GYRO_CS_Pin;
 166              		.loc 1 80 23
 167 0118 0923     		movs	r3, #9
 168 011a FB61     		str	r3, [r7, #28]
  81:Core/Src/gpio.c ****   GPIO_InitStruct.Mode = GPIO_MODE_OUTPUT_PP;
 169              		.loc 1 81 24
 170 011c 0123     		movs	r3, #1
 171 011e 3B62     		str	r3, [r7, #32]
  82:Core/Src/gpio.c ****   GPIO_InitStruct.Pull = GPIO_NOPULL;
 172              		.loc 1 82 24
 173 0120 0023     		movs	r3, #0
 174 0122 7B62     		str	r3, [r7, #36]
  83:Core/Src/gpio.c ****   GPIO_InitStruct.Speed = GPIO_SPEED_FREQ_VERY_HIGH;
 175              		.loc 1 83 25
 176 0124 0323     		movs	r3, #3
 177 0126 BB62     		str	r3, [r7, #40]
  84:Core/Src/gpio.c ****   HAL_GPIO_Init(GPIOC, &GPIO_InitStruct);
 178              		.loc 1 84 3
 179 0128 07F11C03 		add	r3, r7, #28
 180 012c 1946     		mov	r1, r3
 181 012e 3548     		ldr	r0, .L2+4
 182 0130 FFF7FEFF 		bl	HAL_GPIO_Init
  85:Core/Src/gpio.c **** 
  86:Core/Src/gpio.c ****   /*Configure GPIO pins : ACC_INT_Pin GYRO_INT_Pin */
  87:Core/Src/gpio.c ****   GPIO_InitStruct.Pin = ACC_INT_Pin|GYRO_INT_Pin;
 183              		.loc 1 87 23
 184 0134 4FF4A053 		mov	r3, #5120
 185 0138 FB61     		str	r3, [r7, #28]
  88:Core/Src/gpio.c ****   GPIO_InitStruct.Mode = GPIO_MODE_IT_RISING;
 186              		.loc 1 88 24
 187 013a 4FF48813 		mov	r3, #1114112
 188 013e 3B62     		str	r3, [r7, #32]
  89:Core/Src/gpio.c ****   GPIO_InitStruct.Pull = GPIO_NOPULL;
 189              		.loc 1 89 24
 190 0140 0023     		movs	r3, #0
 191 0142 7B62     		str	r3, [r7, #36]
  90:Core/Src/gpio.c ****   HAL_GPIO_Init(GPIOE, &GPIO_InitStruct);
 192              		.loc 1 90 3
 193 0144 07F11C03 		add	r3, r7, #28
 194 0148 1946     		mov	r1, r3
 195 014a 2F48     		ldr	r0, .L2+8
 196 014c FFF7FEFF 		bl	HAL_GPIO_Init
ARM GAS  C:\Users\Godwin\AppData\Local\Temp\ccR1iOrB.s 			page 6


  91:Core/Src/gpio.c **** 
  92:Core/Src/gpio.c ****   /*Configure GPIO pins : PE14 PE0 PE1 */
  93:Core/Src/gpio.c ****   GPIO_InitStruct.Pin = GPIO_PIN_14|GPIO_PIN_0|GPIO_PIN_1;
 197              		.loc 1 93 23
 198 0150 44F20303 		movw	r3, #16387
 199 0154 FB61     		str	r3, [r7, #28]
  94:Core/Src/gpio.c ****   GPIO_InitStruct.Mode = GPIO_MODE_OUTPUT_PP;
 200              		.loc 1 94 24
 201 0156 0123     		movs	r3, #1
 202 0158 3B62     		str	r3, [r7, #32]
  95:Core/Src/gpio.c ****   GPIO_InitStruct.Pull = GPIO_NOPULL;
 203              		.loc 1 95 24
 204 015a 0023     		movs	r3, #0
 205 015c 7B62     		str	r3, [r7, #36]
  96:Core/Src/gpio.c ****   GPIO_InitStruct.Speed = GPIO_SPEED_FREQ_LOW;
 206              		.loc 1 96 25
 207 015e 0023     		movs	r3, #0
 208 0160 BB62     		str	r3, [r7, #40]
  97:Core/Src/gpio.c ****   HAL_GPIO_Init(GPIOE, &GPIO_InitStruct);
 209              		.loc 1 97 3
 210 0162 07F11C03 		add	r3, r7, #28
 211 0166 1946     		mov	r1, r3
 212 0168 2748     		ldr	r0, .L2+8
 213 016a FFF7FEFF 		bl	HAL_GPIO_Init
  98:Core/Src/gpio.c **** 
  99:Core/Src/gpio.c ****   /*Configure GPIO pins : PD14 PD15 */
 100:Core/Src/gpio.c ****   GPIO_InitStruct.Pin = GPIO_PIN_14|GPIO_PIN_15;
 214              		.loc 1 100 23
 215 016e 4FF44043 		mov	r3, #49152
 216 0172 FB61     		str	r3, [r7, #28]
 101:Core/Src/gpio.c ****   GPIO_InitStruct.Mode = GPIO_MODE_OUTPUT_PP;
 217              		.loc 1 101 24
 218 0174 0123     		movs	r3, #1
 219 0176 3B62     		str	r3, [r7, #32]
 102:Core/Src/gpio.c ****   GPIO_InitStruct.Pull = GPIO_NOPULL;
 220              		.loc 1 102 24
 221 0178 0023     		movs	r3, #0
 222 017a 7B62     		str	r3, [r7, #36]
 103:Core/Src/gpio.c ****   GPIO_InitStruct.Speed = GPIO_SPEED_FREQ_LOW;
 223              		.loc 1 103 25
 224 017c 0023     		movs	r3, #0
 225 017e BB62     		str	r3, [r7, #40]
 104:Core/Src/gpio.c ****   HAL_GPIO_Init(GPIOD, &GPIO_InitStruct);
 226              		.loc 1 104 3
 227 0180 07F11C03 		add	r3, r7, #28
 228 0184 1946     		mov	r1, r3
 229 0186 2148     		ldr	r0, .L2+12
 230 0188 FFF7FEFF 		bl	HAL_GPIO_Init
 105:Core/Src/gpio.c **** 
 106:Core/Src/gpio.c ****   /*Configure GPIO pin : PC9 */
 107:Core/Src/gpio.c ****   GPIO_InitStruct.Pin = GPIO_PIN_9;
 231              		.loc 1 107 23
 232 018c 4FF40073 		mov	r3, #512
 233 0190 FB61     		str	r3, [r7, #28]
 108:Core/Src/gpio.c ****   GPIO_InitStruct.Mode = GPIO_MODE_AF_PP;
 234              		.loc 1 108 24
 235 0192 0223     		movs	r3, #2
ARM GAS  C:\Users\Godwin\AppData\Local\Temp\ccR1iOrB.s 			page 7


 236 0194 3B62     		str	r3, [r7, #32]
 109:Core/Src/gpio.c ****   GPIO_InitStruct.Pull = GPIO_NOPULL;
 237              		.loc 1 109 24
 238 0196 0023     		movs	r3, #0
 239 0198 7B62     		str	r3, [r7, #36]
 110:Core/Src/gpio.c ****   GPIO_InitStruct.Speed = GPIO_SPEED_FREQ_LOW;
 240              		.loc 1 110 25
 241 019a 0023     		movs	r3, #0
 242 019c BB62     		str	r3, [r7, #40]
 111:Core/Src/gpio.c ****   GPIO_InitStruct.Alternate = GPIO_AF0_MCO;
 243              		.loc 1 111 29
 244 019e 0023     		movs	r3, #0
 245 01a0 FB62     		str	r3, [r7, #44]
 112:Core/Src/gpio.c ****   HAL_GPIO_Init(GPIOC, &GPIO_InitStruct);
 246              		.loc 1 112 3
 247 01a2 07F11C03 		add	r3, r7, #28
 248 01a6 1946     		mov	r1, r3
 249 01a8 1648     		ldr	r0, .L2+4
 250 01aa FFF7FEFF 		bl	HAL_GPIO_Init
 113:Core/Src/gpio.c **** 
 114:Core/Src/gpio.c ****   /*Configure GPIO pin : PA8 */
 115:Core/Src/gpio.c ****   GPIO_InitStruct.Pin = GPIO_PIN_8;
 251              		.loc 1 115 23
 252 01ae 4FF48073 		mov	r3, #256
 253 01b2 FB61     		str	r3, [r7, #28]
 116:Core/Src/gpio.c ****   GPIO_InitStruct.Mode = GPIO_MODE_AF_PP;
 254              		.loc 1 116 24
 255 01b4 0223     		movs	r3, #2
 256 01b6 3B62     		str	r3, [r7, #32]
 117:Core/Src/gpio.c ****   GPIO_InitStruct.Pull = GPIO_NOPULL;
 257              		.loc 1 117 24
 258 01b8 0023     		movs	r3, #0
 259 01ba 7B62     		str	r3, [r7, #36]
 118:Core/Src/gpio.c ****   GPIO_InitStruct.Speed = GPIO_SPEED_FREQ_LOW;
 260              		.loc 1 118 25
 261 01bc 0023     		movs	r3, #0
 262 01be BB62     		str	r3, [r7, #40]
 119:Core/Src/gpio.c ****   GPIO_InitStruct.Alternate = GPIO_AF0_MCO;
 263              		.loc 1 119 29
 264 01c0 0023     		movs	r3, #0
 265 01c2 FB62     		str	r3, [r7, #44]
 120:Core/Src/gpio.c ****   HAL_GPIO_Init(GPIOA, &GPIO_InitStruct);
 266              		.loc 1 120 3
 267 01c4 07F11C03 		add	r3, r7, #28
 268 01c8 1946     		mov	r1, r3
 269 01ca 1248     		ldr	r0, .L2+20
 270 01cc FFF7FEFF 		bl	HAL_GPIO_Init
 121:Core/Src/gpio.c **** 
 122:Core/Src/gpio.c ****   /*Configure GPIO pins : PB8 PB9 */
 123:Core/Src/gpio.c ****   GPIO_InitStruct.Pin = GPIO_PIN_8|GPIO_PIN_9;
 271              		.loc 1 123 23
 272 01d0 4FF44073 		mov	r3, #768
 273 01d4 FB61     		str	r3, [r7, #28]
 124:Core/Src/gpio.c ****   GPIO_InitStruct.Mode = GPIO_MODE_OUTPUT_PP;
 274              		.loc 1 124 24
 275 01d6 0123     		movs	r3, #1
 276 01d8 3B62     		str	r3, [r7, #32]
ARM GAS  C:\Users\Godwin\AppData\Local\Temp\ccR1iOrB.s 			page 8


 125:Core/Src/gpio.c ****   GPIO_InitStruct.Pull = GPIO_NOPULL;
 277              		.loc 1 125 24
 278 01da 0023     		movs	r3, #0
 279 01dc 7B62     		str	r3, [r7, #36]
 126:Core/Src/gpio.c ****   GPIO_InitStruct.Speed = GPIO_SPEED_FREQ_LOW;
 280              		.loc 1 126 25
 281 01de 0023     		movs	r3, #0
 282 01e0 BB62     		str	r3, [r7, #40]
 127:Core/Src/gpio.c ****   HAL_GPIO_Init(GPIOB, &GPIO_InitStruct);
 283              		.loc 1 127 3
 284 01e2 07F11C03 		add	r3, r7, #28
 285 01e6 1946     		mov	r1, r3
 286 01e8 0948     		ldr	r0, .L2+16
 287 01ea FFF7FEFF 		bl	HAL_GPIO_Init
 128:Core/Src/gpio.c **** 
 129:Core/Src/gpio.c ****   /*AnalogSwitch Config */
 130:Core/Src/gpio.c ****   HAL_SYSCFG_AnalogSwitchConfig(SYSCFG_SWITCH_PC3, SYSCFG_SWITCH_PC3_CLOSE);
 288              		.loc 1 130 3
 289 01ee 0021     		movs	r1, #0
 290 01f0 4FF00060 		mov	r0, #134217728
 291 01f4 FFF7FEFF 		bl	HAL_SYSCFG_AnalogSwitchConfig
 131:Core/Src/gpio.c **** 
 132:Core/Src/gpio.c **** }
 292              		.loc 1 132 1
 293 01f8 00BF     		nop
 294 01fa 3037     		adds	r7, r7, #48
 295              	.LCFI3:
 296              		.cfi_def_cfa_offset 8
 297 01fc BD46     		mov	sp, r7
 298              	.LCFI4:
 299              		.cfi_def_cfa_register 13
 300              		@ sp needed
 301 01fe 80BD     		pop	{r7, pc}
 302              	.L3:
 303              		.align	2
 304              	.L2:
 305 0200 00440258 		.word	1476543488
 306 0204 00080258 		.word	1476528128
 307 0208 00100258 		.word	1476530176
 308 020c 000C0258 		.word	1476529152
 309 0210 00040258 		.word	1476527104
 310 0214 00000258 		.word	1476526080
 311              		.cfi_endproc
 312              	.LFE144:
 314              		.text
 315              	.Letext0:
 316              		.file 2 "C:/Users/Godwin/13.2 Rel1/arm-none-eabi/include/machine/_default_types.h"
 317              		.file 3 "C:/Users/Godwin/13.2 Rel1/arm-none-eabi/include/sys/_stdint.h"
 318              		.file 4 "Drivers/CMSIS/Device/ST/STM32H7xx/Include/stm32h723xx.h"
 319              		.file 5 "Drivers/STM32H7xx_HAL_Driver/Inc/stm32h7xx_hal_gpio.h"
 320              		.file 6 "Drivers/STM32H7xx_HAL_Driver/Inc/stm32h7xx_hal.h"
ARM GAS  C:\Users\Godwin\AppData\Local\Temp\ccR1iOrB.s 			page 9

