ARM GAS  C:\Users\Godwin\AppData\Local\Temp\ccGpVFiP.s 			page 1


   1              		.cpu cortex-m7
   2              		.arch armv7e-m
   3              		.fpu fpv5-d16
   4              		.eabi_attribute 28, 1
   5              		.eabi_attribute 20, 1
   6              		.eabi_attribute 21, 1
   7              		.eabi_attribute 23, 3
   8              		.eabi_attribute 24, 1
   9              		.eabi_attribute 25, 1
  10              		.eabi_attribute 26, 1
  11              		.eabi_attribute 30, 6
  12              		.eabi_attribute 34, 1
  13              		.eabi_attribute 18, 4
  14              		.file	"motor.c"
  15              		.text
  16              	.Ltext0:
  17              		.cfi_sections	.debug_frame
  18              		.file 1 "User/Hardware/motor.c"
  19              		.global	DJIMotor_data
  20              		.section	.bss.DJIMotor_data,"aw",%nobits
  21              		.align	3
  24              	DJIMotor_data:
  25 0000 00000000 		.space	1848
  25      00000000 
  25      00000000 
  25      00000000 
  25      00000000 
  26              		.section	.text.DJIMotor_init,"ax",%progbits
  27              		.align	1
  28              		.global	DJIMotor_init
  29              		.syntax unified
  30              		.thumb
  31              		.thumb_func
  33              	DJIMotor_init:
  34              	.LFB144:
   1:User/Hardware/motor.c **** /**
   2:User/Hardware/motor.c ****  * @file motor.c
   3:User/Hardware/motor.c ****  * @author Siri (lixirui2017@outlook.com)
   4:User/Hardware/motor.c ****  * @brief 各类电机，舵机控制与反馈
   5:User/Hardware/motor.c ****  * @version 0.1
   6:User/Hardware/motor.c ****  * @date 2024-10-20
   7:User/Hardware/motor.c ****  *
   8:User/Hardware/motor.c ****  * @copyright Copyright (c) 2024
   9:User/Hardware/motor.c ****  *
  10:User/Hardware/motor.c ****  */
  11:User/Hardware/motor.c **** 
  12:User/Hardware/motor.c **** #include "motor.h"
  13:User/Hardware/motor.c **** #include "math.h"
  14:User/Hardware/motor.c **** 
  15:User/Hardware/motor.c **** #ifdef USE_DJI_MOTOR
  16:User/Hardware/motor.c **** #define abs(a) a > 0 ? a : -a
  17:User/Hardware/motor.c **** #define USE_LZMotor     (1)  
  18:User/Hardware/motor.c **** // 电机数据定义
  19:User/Hardware/motor.c **** DJI_motor_data_s DJIMotor_data[QUANTITY_OF_CAN][QUANTITY_OF_DJIMOTOR];
  20:User/Hardware/motor.c **** 
  21:User/Hardware/motor.c **** /**
  22:User/Hardware/motor.c ****  * @brief 大疆电机初始化，暂时只用来初始化类型
ARM GAS  C:\Users\Godwin\AppData\Local\Temp\ccGpVFiP.s 			page 2


  23:User/Hardware/motor.c ****  *
  24:User/Hardware/motor.c ****  * @param motor_type 电机种类：GM6020,M3508,M2006
  25:User/Hardware/motor.c ****  * @param motor_id 电机can通道及ID
  26:User/Hardware/motor.c ****  */
  27:User/Hardware/motor.c **** void DJIMotor_init(Motor_Type_e motor_type, DJIcan_id motor_id)
  28:User/Hardware/motor.c **** {
  35              		.loc 1 28 1
  36              		.cfi_startproc
  37              		@ args = 0, pretend = 0, frame = 16
  38              		@ frame_needed = 1, uses_anonymous_args = 0
  39              		@ link register save eliminated.
  40 0000 80B4     		push	{r7}
  41              	.LCFI0:
  42              		.cfi_def_cfa_offset 4
  43              		.cfi_offset 7, -4
  44 0002 85B0     		sub	sp, sp, #20
  45              	.LCFI1:
  46              		.cfi_def_cfa_offset 24
  47 0004 00AF     		add	r7, sp, #0
  48              	.LCFI2:
  49              		.cfi_def_cfa_register 7
  50 0006 0346     		mov	r3, r0
  51 0008 0A46     		mov	r2, r1
  52 000a FB71     		strb	r3, [r7, #7]
  53 000c 1346     		mov	r3, r2
  54 000e BB71     		strb	r3, [r7, #6]
  29:User/Hardware/motor.c ****     uint8_t cantype = (motor_id + 1) / 11; // 获得电机所在can路
  55              		.loc 1 29 33
  56 0010 BB79     		ldrb	r3, [r7, #6]	@ zero_extendqisi2
  57 0012 0133     		adds	r3, r3, #1
  58              		.loc 1 29 38
  59 0014 144A     		ldr	r2, .L2
  60 0016 82FB0312 		smull	r1, r2, r2, r3
  61 001a 5210     		asrs	r2, r2, #1
  62 001c DB17     		asrs	r3, r3, #31
  63 001e D31A     		subs	r3, r2, r3
  64              		.loc 1 29 13
  65 0020 FB73     		strb	r3, [r7, #15]
  30:User/Hardware/motor.c ****     uint8_t canid = motor_id % 11;         // 得到电机ID值；
  66              		.loc 1 30 13
  67 0022 B979     		ldrb	r1, [r7, #6]	@ zero_extendqisi2
  68 0024 114B     		ldr	r3, .L2+4
  69 0026 A3FB0123 		umull	r2, r3, r3, r1
  70 002a DA08     		lsrs	r2, r3, #3
  71 002c 1346     		mov	r3, r2
  72 002e 9B00     		lsls	r3, r3, #2
  73 0030 1344     		add	r3, r3, r2
  74 0032 5B00     		lsls	r3, r3, #1
  75 0034 1344     		add	r3, r3, r2
  76 0036 CB1A     		subs	r3, r1, r3
  77 0038 BB73     		strb	r3, [r7, #14]
  31:User/Hardware/motor.c **** 
  32:User/Hardware/motor.c ****     DJIMotor_data[cantype][canid].Motor_type = motor_type; // 初始化相应电机
  78              		.loc 1 32 34
  79 003a F97B     		ldrb	r1, [r7, #15]	@ zero_extendqisi2
  80 003c BA7B     		ldrb	r2, [r7, #14]	@ zero_extendqisi2
  81              		.loc 1 32 46
ARM GAS  C:\Users\Godwin\AppData\Local\Temp\ccGpVFiP.s 			page 3


  82 003e 0C48     		ldr	r0, .L2+8
  83 0040 1346     		mov	r3, r2
  84 0042 DB00     		lsls	r3, r3, #3
  85 0044 9B1A     		subs	r3, r3, r2
  86 0046 DB00     		lsls	r3, r3, #3
  87 0048 4FF41A72 		mov	r2, #616
  88 004c 01FB02F2 		mul	r2, r1, r2
  89 0050 1344     		add	r3, r3, r2
  90 0052 0344     		add	r3, r3, r0
  91 0054 0233     		adds	r3, r3, #2
  92 0056 FA79     		ldrb	r2, [r7, #7]
  93 0058 1A70     		strb	r2, [r3]
  33:User/Hardware/motor.c **** }
  94              		.loc 1 33 1
  95 005a 00BF     		nop
  96 005c 1437     		adds	r7, r7, #20
  97              	.LCFI3:
  98              		.cfi_def_cfa_offset 4
  99 005e BD46     		mov	sp, r7
 100              	.LCFI4:
 101              		.cfi_def_cfa_register 13
 102              		@ sp needed
 103 0060 5DF8047B 		ldr	r7, [sp], #4
 104              	.LCFI5:
 105              		.cfi_restore 7
 106              		.cfi_def_cfa_offset 0
 107 0064 7047     		bx	lr
 108              	.L3:
 109 0066 00BF     		.align	2
 110              	.L2:
 111 0068 E9A28B2E 		.word	780903145
 112 006c A38B2EBA 		.word	-1171354717
 113 0070 00000000 		.word	DJIMotor_data
 114              		.cfi_endproc
 115              	.LFE144:
 117              		.section	.text.DJIMotor_setzero,"ax",%progbits
 118              		.align	1
 119              		.global	DJIMotor_setzero
 120              		.syntax unified
 121              		.thumb
 122              		.thumb_func
 124              	DJIMotor_setzero:
 125              	.LFB145:
  34:User/Hardware/motor.c **** 
  35:User/Hardware/motor.c **** /**
  36:User/Hardware/motor.c ****  * @brief 设置零点
  37:User/Hardware/motor.c ****  *
  38:User/Hardware/motor.c ****  * @param zero_angle 零点角度
  39:User/Hardware/motor.c ****  * @param motor_id 电机ID
  40:User/Hardware/motor.c ****  */
  41:User/Hardware/motor.c **** void DJIMotor_setzero(double zero_angle, DJIcan_id motor_id)
  42:User/Hardware/motor.c **** {
 126              		.loc 1 42 1
 127              		.cfi_startproc
 128              		@ args = 0, pretend = 0, frame = 24
 129              		@ frame_needed = 1, uses_anonymous_args = 0
 130              		@ link register save eliminated.
ARM GAS  C:\Users\Godwin\AppData\Local\Temp\ccGpVFiP.s 			page 4


 131 0000 80B4     		push	{r7}
 132              	.LCFI6:
 133              		.cfi_def_cfa_offset 4
 134              		.cfi_offset 7, -4
 135 0002 87B0     		sub	sp, sp, #28
 136              	.LCFI7:
 137              		.cfi_def_cfa_offset 32
 138 0004 00AF     		add	r7, sp, #0
 139              	.LCFI8:
 140              		.cfi_def_cfa_register 7
 141 0006 87ED020B 		vstr.64	d0, [r7, #8]
 142 000a 0346     		mov	r3, r0
 143 000c FB71     		strb	r3, [r7, #7]
  43:User/Hardware/motor.c ****     uint8_t cantype = (motor_id + 1) / 11; // 获得电机所在can路
 144              		.loc 1 43 33
 145 000e FB79     		ldrb	r3, [r7, #7]	@ zero_extendqisi2
 146 0010 0133     		adds	r3, r3, #1
 147              		.loc 1 43 38
 148 0012 164A     		ldr	r2, .L5
 149 0014 82FB0312 		smull	r1, r2, r2, r3
 150 0018 5210     		asrs	r2, r2, #1
 151 001a DB17     		asrs	r3, r3, #31
 152 001c D31A     		subs	r3, r2, r3
 153              		.loc 1 43 13
 154 001e FB75     		strb	r3, [r7, #23]
  44:User/Hardware/motor.c ****     uint8_t canid = motor_id % 11;         // 得到电机ID值；
 155              		.loc 1 44 13
 156 0020 F979     		ldrb	r1, [r7, #7]	@ zero_extendqisi2
 157 0022 134B     		ldr	r3, .L5+4
 158 0024 A3FB0123 		umull	r2, r3, r3, r1
 159 0028 DA08     		lsrs	r2, r3, #3
 160 002a 1346     		mov	r3, r2
 161 002c 9B00     		lsls	r3, r3, #2
 162 002e 1344     		add	r3, r3, r2
 163 0030 5B00     		lsls	r3, r3, #1
 164 0032 1344     		add	r3, r3, r2
 165 0034 CB1A     		subs	r3, r1, r3
 166 0036 BB75     		strb	r3, [r7, #22]
  45:User/Hardware/motor.c **** 
  46:User/Hardware/motor.c ****     DJIMotor_data[cantype][canid].angle_zero = zero_angle; // 初始化相应电机
 167              		.loc 1 46 34
 168 0038 F97D     		ldrb	r1, [r7, #23]	@ zero_extendqisi2
 169 003a BA7D     		ldrb	r2, [r7, #22]	@ zero_extendqisi2
 170              		.loc 1 46 46
 171 003c 0D48     		ldr	r0, .L5+8
 172 003e 1346     		mov	r3, r2
 173 0040 DB00     		lsls	r3, r3, #3
 174 0042 9B1A     		subs	r3, r3, r2
 175 0044 DB00     		lsls	r3, r3, #3
 176 0046 4FF41A72 		mov	r2, #616
 177 004a 01FB02F2 		mul	r2, r1, r2
 178 004e 1344     		add	r3, r3, r2
 179 0050 0344     		add	r3, r3, r0
 180 0052 03F12001 		add	r1, r3, #32
 181 0056 D7E90223 		ldrd	r2, [r7, #8]
 182 005a C1E90023 		strd	r2, [r1]
  47:User/Hardware/motor.c **** }
ARM GAS  C:\Users\Godwin\AppData\Local\Temp\ccGpVFiP.s 			page 5


 183              		.loc 1 47 1
 184 005e 00BF     		nop
 185 0060 1C37     		adds	r7, r7, #28
 186              	.LCFI9:
 187              		.cfi_def_cfa_offset 4
 188 0062 BD46     		mov	sp, r7
 189              	.LCFI10:
 190              		.cfi_def_cfa_register 13
 191              		@ sp needed
 192 0064 5DF8047B 		ldr	r7, [sp], #4
 193              	.LCFI11:
 194              		.cfi_restore 7
 195              		.cfi_def_cfa_offset 0
 196 0068 7047     		bx	lr
 197              	.L6:
 198 006a 00BF     		.align	2
 199              	.L5:
 200 006c E9A28B2E 		.word	780903145
 201 0070 A38B2EBA 		.word	-1171354717
 202 0074 00000000 		.word	DJIMotor_data
 203              		.cfi_endproc
 204              	.LFE145:
 206              		.section	.text.DJIMotor_set,"ax",%progbits
 207              		.align	1
 208              		.global	DJIMotor_set
 209              		.syntax unified
 210              		.thumb
 211              		.thumb_func
 213              	DJIMotor_set:
 214              	.LFB146:
  48:User/Hardware/motor.c **** 
  49:User/Hardware/motor.c **** /**
  50:User/Hardware/motor.c ****  * @brief 设置大疆电机电流
  51:User/Hardware/motor.c ****  *
  52:User/Hardware/motor.c ****  * @param val 电流值
  53:User/Hardware/motor.c ****  * @param motor_id 电机can通道及ID
  54:User/Hardware/motor.c ****  */
  55:User/Hardware/motor.c **** void DJIMotor_set(int16_t val, DJIcan_id motor_id)
  56:User/Hardware/motor.c **** {
 215              		.loc 1 56 1
 216              		.cfi_startproc
 217              		@ args = 0, pretend = 0, frame = 8
 218              		@ frame_needed = 1, uses_anonymous_args = 0
 219              		@ link register save eliminated.
 220 0000 80B4     		push	{r7}
 221              	.LCFI12:
 222              		.cfi_def_cfa_offset 4
 223              		.cfi_offset 7, -4
 224 0002 83B0     		sub	sp, sp, #12
 225              	.LCFI13:
 226              		.cfi_def_cfa_offset 16
 227 0004 00AF     		add	r7, sp, #0
 228              	.LCFI14:
 229              		.cfi_def_cfa_register 7
 230 0006 0346     		mov	r3, r0
 231 0008 0A46     		mov	r2, r1
 232 000a FB80     		strh	r3, [r7, #6]	@ movhi
ARM GAS  C:\Users\Godwin\AppData\Local\Temp\ccGpVFiP.s 			page 6


 233 000c 1346     		mov	r3, r2
 234 000e 7B71     		strb	r3, [r7, #5]
  57:User/Hardware/motor.c ****     DJIMotor_data[(motor_id + 1) / 11][motor_id % 11].set = val; // 设置电流
 235              		.loc 1 57 29
 236 0010 7B79     		ldrb	r3, [r7, #5]	@ zero_extendqisi2
 237 0012 0133     		adds	r3, r3, #1
 238              		.loc 1 57 34
 239 0014 124A     		ldr	r2, .L8
 240 0016 82FB0312 		smull	r1, r2, r2, r3
 241 001a 5210     		asrs	r2, r2, #1
 242 001c DB17     		asrs	r3, r3, #31
 243 001e D01A     		subs	r0, r2, r3
 244              		.loc 1 57 49
 245 0020 7979     		ldrb	r1, [r7, #5]	@ zero_extendqisi2
 246 0022 104B     		ldr	r3, .L8+4
 247 0024 A3FB0123 		umull	r2, r3, r3, r1
 248 0028 DA08     		lsrs	r2, r3, #3
 249 002a 1346     		mov	r3, r2
 250 002c 9B00     		lsls	r3, r3, #2
 251 002e 1344     		add	r3, r3, r2
 252 0030 5B00     		lsls	r3, r3, #1
 253 0032 1344     		add	r3, r3, r2
 254 0034 CB1A     		subs	r3, r1, r3
 255 0036 DBB2     		uxtb	r3, r3
 256 0038 1A46     		mov	r2, r3
 257              		.loc 1 57 59
 258 003a 0B49     		ldr	r1, .L8+8
 259 003c 1346     		mov	r3, r2
 260 003e DB00     		lsls	r3, r3, #3
 261 0040 9B1A     		subs	r3, r3, r2
 262 0042 DB00     		lsls	r3, r3, #3
 263 0044 4FF41A72 		mov	r2, #616
 264 0048 00FB02F2 		mul	r2, r0, r2
 265 004c 1344     		add	r3, r3, r2
 266 004e 0B44     		add	r3, r3, r1
 267 0050 FA88     		ldrh	r2, [r7, #6]	@ movhi
 268 0052 1A80     		strh	r2, [r3]	@ movhi
  58:User/Hardware/motor.c **** }
 269              		.loc 1 58 1
 270 0054 00BF     		nop
 271 0056 0C37     		adds	r7, r7, #12
 272              	.LCFI15:
 273              		.cfi_def_cfa_offset 4
 274 0058 BD46     		mov	sp, r7
 275              	.LCFI16:
 276              		.cfi_def_cfa_register 13
 277              		@ sp needed
 278 005a 5DF8047B 		ldr	r7, [sp], #4
 279              	.LCFI17:
 280              		.cfi_restore 7
 281              		.cfi_def_cfa_offset 0
 282 005e 7047     		bx	lr
 283              	.L9:
 284              		.align	2
 285              	.L8:
 286 0060 E9A28B2E 		.word	780903145
 287 0064 A38B2EBA 		.word	-1171354717
ARM GAS  C:\Users\Godwin\AppData\Local\Temp\ccGpVFiP.s 			page 7


 288 0068 00000000 		.word	DJIMotor_data
 289              		.cfi_endproc
 290              	.LFE146:
 292              		.section	.text.DJIMotor_get_data,"ax",%progbits
 293              		.align	1
 294              		.global	DJIMotor_get_data
 295              		.syntax unified
 296              		.thumb
 297              		.thumb_func
 299              	DJIMotor_get_data:
 300              	.LFB147:
  59:User/Hardware/motor.c **** 
  60:User/Hardware/motor.c **** /**
  61:User/Hardware/motor.c ****  * @brief 获取大疆电机数据
  62:User/Hardware/motor.c ****  *
  63:User/Hardware/motor.c ****  * @param motor_id 电机can通道及ID
  64:User/Hardware/motor.c ****  * @return DJI_motor_data_s 电机数据结构体。
  65:User/Hardware/motor.c ****  */
  66:User/Hardware/motor.c **** DJI_motor_data_s DJIMotor_get_data(DJIcan_id motor_id) // 获取马达数据
  67:User/Hardware/motor.c **** {
 301              		.loc 1 67 1
 302              		.cfi_startproc
 303              		@ args = 0, pretend = 0, frame = 8
 304              		@ frame_needed = 1, uses_anonymous_args = 0
 305              		@ link register save eliminated.
 306 0000 B0B4     		push	{r4, r5, r7}
 307              	.LCFI18:
 308              		.cfi_def_cfa_offset 12
 309              		.cfi_offset 4, -12
 310              		.cfi_offset 5, -8
 311              		.cfi_offset 7, -4
 312 0002 83B0     		sub	sp, sp, #12
 313              	.LCFI19:
 314              		.cfi_def_cfa_offset 24
 315 0004 00AF     		add	r7, sp, #0
 316              	.LCFI20:
 317              		.cfi_def_cfa_register 7
 318 0006 7860     		str	r0, [r7, #4]
 319 0008 0B46     		mov	r3, r1
 320 000a FB70     		strb	r3, [r7, #3]
  68:User/Hardware/motor.c ****     return DJIMotor_data[(motor_id + 1) / 11][motor_id % 11];
 321              		.loc 1 68 36
 322 000c FB78     		ldrb	r3, [r7, #3]	@ zero_extendqisi2
 323 000e 0133     		adds	r3, r3, #1
 324              		.loc 1 68 41
 325 0010 174A     		ldr	r2, .L12
 326 0012 82FB0312 		smull	r1, r2, r2, r3
 327 0016 5210     		asrs	r2, r2, #1
 328 0018 DB17     		asrs	r3, r3, #31
 329 001a D01A     		subs	r0, r2, r3
 330              		.loc 1 68 56
 331 001c F978     		ldrb	r1, [r7, #3]	@ zero_extendqisi2
 332 001e 154B     		ldr	r3, .L12+4
 333 0020 A3FB0123 		umull	r2, r3, r3, r1
 334 0024 DA08     		lsrs	r2, r3, #3
 335 0026 1346     		mov	r3, r2
 336 0028 9B00     		lsls	r3, r3, #2
ARM GAS  C:\Users\Godwin\AppData\Local\Temp\ccGpVFiP.s 			page 8


 337 002a 1344     		add	r3, r3, r2
 338 002c 5B00     		lsls	r3, r3, #1
 339 002e 1344     		add	r3, r3, r2
 340 0030 CB1A     		subs	r3, r1, r3
 341 0032 DBB2     		uxtb	r3, r3
 342 0034 1A46     		mov	r2, r3
 343              		.loc 1 68 46
 344 0036 7C68     		ldr	r4, [r7, #4]
 345 0038 0F49     		ldr	r1, .L12+8
 346 003a 1346     		mov	r3, r2
 347 003c DB00     		lsls	r3, r3, #3
 348 003e 9B1A     		subs	r3, r3, r2
 349 0040 DB00     		lsls	r3, r3, #3
 350 0042 4FF41A72 		mov	r2, #616
 351 0046 00FB02F2 		mul	r2, r0, r2
 352 004a 1344     		add	r3, r3, r2
 353 004c 0B44     		add	r3, r3, r1
 354 004e 1D46     		mov	r5, r3
 355 0050 0FCD     		ldmia	r5!, {r0, r1, r2, r3}
 356 0052 0FC4     		stmia	r4!, {r0, r1, r2, r3}
 357 0054 0FCD     		ldmia	r5!, {r0, r1, r2, r3}
 358 0056 0FC4     		stmia	r4!, {r0, r1, r2, r3}
 359 0058 0FCD     		ldmia	r5!, {r0, r1, r2, r3}
 360 005a 0FC4     		stmia	r4!, {r0, r1, r2, r3}
 361 005c 95E80300 		ldm	r5, {r0, r1}
 362 0060 84E80300 		stm	r4, {r0, r1}
  69:User/Hardware/motor.c **** }
 363              		.loc 1 69 1
 364 0064 7868     		ldr	r0, [r7, #4]
 365 0066 0C37     		adds	r7, r7, #12
 366              	.LCFI21:
 367              		.cfi_def_cfa_offset 12
 368 0068 BD46     		mov	sp, r7
 369              	.LCFI22:
 370              		.cfi_def_cfa_register 13
 371              		@ sp needed
 372 006a B0BC     		pop	{r4, r5, r7}
 373              	.LCFI23:
 374              		.cfi_restore 7
 375              		.cfi_restore 5
 376              		.cfi_restore 4
 377              		.cfi_def_cfa_offset 0
 378 006c 7047     		bx	lr
 379              	.L13:
 380 006e 00BF     		.align	2
 381              	.L12:
 382 0070 E9A28B2E 		.word	780903145
 383 0074 A38B2EBA 		.word	-1171354717
 384 0078 00000000 		.word	DJIMotor_data
 385              		.cfi_endproc
 386              	.LFE147:
 388              		.global	__aeabi_l2f
 389              		.global	__aeabi_f2lz
 390              		.section	.text.DJIMotor_get_process_motor_data,"ax",%progbits
 391              		.align	1
 392              		.global	DJIMotor_get_process_motor_data
 393              		.syntax unified
ARM GAS  C:\Users\Godwin\AppData\Local\Temp\ccGpVFiP.s 			page 9


 394              		.thumb
 395              		.thumb_func
 397              	DJIMotor_get_process_motor_data:
 398              	.LFB148:
  70:User/Hardware/motor.c **** 
  71:User/Hardware/motor.c **** /**
  72:User/Hardware/motor.c ****  * @brief 大疆电机CAN数据接受以及处理
  73:User/Hardware/motor.c ****  *
  74:User/Hardware/motor.c ****  * @param ptr 电机数据
  75:User/Hardware/motor.c ****  * @param data can数据
  76:User/Hardware/motor.c ****  */
  77:User/Hardware/motor.c **** void DJIMotor_get_process_motor_data(DJI_motor_data_s *ptr, uint8_t data[])
  78:User/Hardware/motor.c **** {
 399              		.loc 1 78 1
 400              		.cfi_startproc
 401              		@ args = 0, pretend = 0, frame = 24
 402              		@ frame_needed = 1, uses_anonymous_args = 0
 403 0000 2DE9B043 		push	{r4, r5, r7, r8, r9, lr}
 404              	.LCFI24:
 405              		.cfi_def_cfa_offset 24
 406              		.cfi_offset 4, -24
 407              		.cfi_offset 5, -20
 408              		.cfi_offset 7, -16
 409              		.cfi_offset 8, -12
 410              		.cfi_offset 9, -8
 411              		.cfi_offset 14, -4
 412 0004 86B0     		sub	sp, sp, #24
 413              	.LCFI25:
 414              		.cfi_def_cfa_offset 48
 415 0006 00AF     		add	r7, sp, #0
 416              	.LCFI26:
 417              		.cfi_def_cfa_register 7
 418 0008 7860     		str	r0, [r7, #4]
 419 000a 3960     		str	r1, [r7]
  79:User/Hardware/motor.c ****     // get raw data
  80:User/Hardware/motor.c ****     (ptr)->last_ecd = (ptr)->ecd;
 420              		.loc 1 80 28
 421 000c 7B68     		ldr	r3, [r7, #4]
 422 000e 9A88     		ldrh	r2, [r3, #4]
 423              		.loc 1 80 21
 424 0010 7B68     		ldr	r3, [r7, #4]
 425 0012 9A81     		strh	r2, [r3, #12]	@ movhi
  81:User/Hardware/motor.c ****     (ptr)->ecd = (uint16_t)((data)[0] << 8 | (data)[1]);
 426              		.loc 1 81 35
 427 0014 3B68     		ldr	r3, [r7]
 428 0016 1B78     		ldrb	r3, [r3]	@ zero_extendqisi2
 429              		.loc 1 81 44
 430 0018 1BB2     		sxth	r3, r3
 431 001a 1B02     		lsls	r3, r3, #8
 432 001c 1AB2     		sxth	r2, r3
 433              		.loc 1 81 52
 434 001e 3B68     		ldr	r3, [r7]
 435 0020 0133     		adds	r3, r3, #1
 436 0022 1B78     		ldrb	r3, [r3]	@ zero_extendqisi2
 437 0024 1BB2     		sxth	r3, r3
 438              		.loc 1 81 44
 439 0026 1343     		orrs	r3, r3, r2
ARM GAS  C:\Users\Godwin\AppData\Local\Temp\ccGpVFiP.s 			page 10


 440 0028 1BB2     		sxth	r3, r3
 441              		.loc 1 81 18
 442 002a 9AB2     		uxth	r2, r3
 443              		.loc 1 81 16
 444 002c 7B68     		ldr	r3, [r7, #4]
 445 002e 9A80     		strh	r2, [r3, #4]	@ movhi
  82:User/Hardware/motor.c ****     (ptr)->speed_rpm = (uint16_t)((data)[2] << 8 | (data)[3]);
 446              		.loc 1 82 41
 447 0030 3B68     		ldr	r3, [r7]
 448 0032 0233     		adds	r3, r3, #2
 449 0034 1B78     		ldrb	r3, [r3]	@ zero_extendqisi2
 450              		.loc 1 82 24
 451 0036 1BB2     		sxth	r3, r3
 452 0038 1B02     		lsls	r3, r3, #8
 453 003a 1AB2     		sxth	r2, r3
 454              		.loc 1 82 58
 455 003c 3B68     		ldr	r3, [r7]
 456 003e 0333     		adds	r3, r3, #3
 457 0040 1B78     		ldrb	r3, [r3]	@ zero_extendqisi2
 458 0042 1BB2     		sxth	r3, r3
 459              		.loc 1 82 50
 460 0044 1343     		orrs	r3, r3, r2
 461 0046 1AB2     		sxth	r2, r3
 462              		.loc 1 82 22
 463 0048 7B68     		ldr	r3, [r7, #4]
 464 004a DA80     		strh	r2, [r3, #6]	@ movhi
  83:User/Hardware/motor.c ****     (ptr)->given_current = (uint16_t)((data)[4] << 8 | (data)[5]);
 465              		.loc 1 83 45
 466 004c 3B68     		ldr	r3, [r7]
 467 004e 0433     		adds	r3, r3, #4
 468 0050 1B78     		ldrb	r3, [r3]	@ zero_extendqisi2
 469              		.loc 1 83 28
 470 0052 1BB2     		sxth	r3, r3
 471 0054 1B02     		lsls	r3, r3, #8
 472 0056 1AB2     		sxth	r2, r3
 473              		.loc 1 83 62
 474 0058 3B68     		ldr	r3, [r7]
 475 005a 0533     		adds	r3, r3, #5
 476 005c 1B78     		ldrb	r3, [r3]	@ zero_extendqisi2
 477 005e 1BB2     		sxth	r3, r3
 478              		.loc 1 83 54
 479 0060 1343     		orrs	r3, r3, r2
 480 0062 1AB2     		sxth	r2, r3
 481              		.loc 1 83 26
 482 0064 7B68     		ldr	r3, [r7, #4]
 483 0066 1A81     		strh	r2, [r3, #8]	@ movhi
  84:User/Hardware/motor.c ****     (ptr)->temperate = (data)[6];
 484              		.loc 1 84 22
 485 0068 3B68     		ldr	r3, [r7]
 486 006a 9A79     		ldrb	r2, [r3, #6]	@ zero_extendqisi2
 487 006c 7B68     		ldr	r3, [r7, #4]
 488 006e 9A72     		strb	r2, [r3, #10]
  85:User/Hardware/motor.c **** 
  86:User/Hardware/motor.c ****     // process the data
  87:User/Hardware/motor.c ****     // count cnt
  88:User/Hardware/motor.c ****     if ((ptr)->last_ecd > 5000 && (ptr)->ecd < 3000)
 489              		.loc 1 88 14
ARM GAS  C:\Users\Godwin\AppData\Local\Temp\ccGpVFiP.s 			page 11


 490 0070 7B68     		ldr	r3, [r7, #4]
 491 0072 9B89     		ldrh	r3, [r3, #12]
 492              		.loc 1 88 8
 493 0074 41F28832 		movw	r2, #5000
 494 0078 9342     		cmp	r3, r2
 495 007a 2CD9     		bls	.L15
 496              		.loc 1 88 40 discriminator 1
 497 007c 7B68     		ldr	r3, [r7, #4]
 498 007e 9B88     		ldrh	r3, [r3, #4]
 499              		.loc 1 88 32 discriminator 1
 500 0080 40F6B732 		movw	r2, #2999
 501 0084 9342     		cmp	r3, r2
 502 0086 26D8     		bhi	.L15
  89:User/Hardware/motor.c ****         (ptr)->ecd_cnt += ((ECD_MAX - (ptr)->last_ecd) + (ptr)->ecd);
 503              		.loc 1 89 14
 504 0088 7B68     		ldr	r3, [r7, #4]
 505 008a D3E90423 		ldrd	r2, [r3, #16]
 506              		.loc 1 89 24
 507 008e 1046     		mov	r0, r2
 508 0090 1946     		mov	r1, r3
 509 0092 FFF7FEFF 		bl	__aeabi_l2f
 510 0096 06EE900A 		vmov	s13, r0
 511              		.loc 1 89 44
 512 009a 7B68     		ldr	r3, [r7, #4]
 513 009c 9B89     		ldrh	r3, [r3, #12]
 514 009e 07EE903A 		vmov	s15, r3	@ int
 515              		.loc 1 89 37
 516 00a2 F8EEE77A 		vcvt.f32.s32	s15, s15
 517 00a6 9FEDA67A 		vldr.32	s14, .L32+8
 518 00aa 37EE677A 		vsub.f32	s14, s14, s15
 519              		.loc 1 89 63
 520 00ae 7B68     		ldr	r3, [r7, #4]
 521 00b0 9B88     		ldrh	r3, [r3, #4]
 522 00b2 07EE903A 		vmov	s15, r3	@ int
 523              		.loc 1 89 56
 524 00b6 F8EEE77A 		vcvt.f32.s32	s15, s15
 525 00ba 77EE277A 		vadd.f32	s15, s14, s15
 526              		.loc 1 89 24
 527 00be 76EEA77A 		vadd.f32	s15, s13, s15
 528 00c2 17EE900A 		vmov	r0, s15
 529 00c6 FFF7FEFF 		bl	__aeabi_f2lz
 530 00ca 0246     		mov	r2, r0
 531 00cc 0B46     		mov	r3, r1
 532 00ce 7968     		ldr	r1, [r7, #4]
 533 00d0 C1E90423 		strd	r2, [r1, #16]
 534 00d4 45E0     		b	.L16
 535              	.L15:
  90:User/Hardware/motor.c ****     else if ((ptr)->last_ecd < 3000 && (ptr)->ecd > 5000)
 536              		.loc 1 90 19
 537 00d6 7B68     		ldr	r3, [r7, #4]
 538 00d8 9B89     		ldrh	r3, [r3, #12]
 539              		.loc 1 90 13
 540 00da 40F6B732 		movw	r2, #2999
 541 00de 9342     		cmp	r3, r2
 542 00e0 2CD8     		bhi	.L17
 543              		.loc 1 90 45 discriminator 1
 544 00e2 7B68     		ldr	r3, [r7, #4]
ARM GAS  C:\Users\Godwin\AppData\Local\Temp\ccGpVFiP.s 			page 12


 545 00e4 9B88     		ldrh	r3, [r3, #4]
 546              		.loc 1 90 37 discriminator 1
 547 00e6 41F28832 		movw	r2, #5000
 548 00ea 9342     		cmp	r3, r2
 549 00ec 26D9     		bls	.L17
  91:User/Hardware/motor.c ****         (ptr)->ecd_cnt -= ((ECD_MAX - (ptr)->ecd) + (ptr)->last_ecd);
 550              		.loc 1 91 14
 551 00ee 7B68     		ldr	r3, [r7, #4]
 552 00f0 D3E90423 		ldrd	r2, [r3, #16]
 553              		.loc 1 91 24
 554 00f4 1046     		mov	r0, r2
 555 00f6 1946     		mov	r1, r3
 556 00f8 FFF7FEFF 		bl	__aeabi_l2f
 557 00fc 06EE900A 		vmov	s13, r0
 558              		.loc 1 91 44
 559 0100 7B68     		ldr	r3, [r7, #4]
 560 0102 9B88     		ldrh	r3, [r3, #4]
 561 0104 07EE903A 		vmov	s15, r3	@ int
 562              		.loc 1 91 37
 563 0108 F8EEE77A 		vcvt.f32.s32	s15, s15
 564 010c 9FED8C7A 		vldr.32	s14, .L32+8
 565 0110 37EE677A 		vsub.f32	s14, s14, s15
 566              		.loc 1 91 58
 567 0114 7B68     		ldr	r3, [r7, #4]
 568 0116 9B89     		ldrh	r3, [r3, #12]
 569 0118 07EE903A 		vmov	s15, r3	@ int
 570              		.loc 1 91 51
 571 011c F8EEE77A 		vcvt.f32.s32	s15, s15
 572 0120 77EE277A 		vadd.f32	s15, s14, s15
 573              		.loc 1 91 24
 574 0124 76EEE77A 		vsub.f32	s15, s13, s15
 575 0128 17EE900A 		vmov	r0, s15
 576 012c FFF7FEFF 		bl	__aeabi_f2lz
 577 0130 0246     		mov	r2, r0
 578 0132 0B46     		mov	r3, r1
 579 0134 7968     		ldr	r1, [r7, #4]
 580 0136 C1E90423 		strd	r2, [r1, #16]
 581 013a 12E0     		b	.L16
 582              	.L17:
  92:User/Hardware/motor.c ****     else
  93:User/Hardware/motor.c ****         (ptr)->ecd_cnt += ((ptr)->ecd - (ptr)->last_ecd);
 583              		.loc 1 93 14
 584 013c 7B68     		ldr	r3, [r7, #4]
 585 013e D3E90423 		ldrd	r2, [r3, #16]
 586              		.loc 1 93 33
 587 0142 7968     		ldr	r1, [r7, #4]
 588 0144 8988     		ldrh	r1, [r1, #4]
 589 0146 0846     		mov	r0, r1
 590              		.loc 1 93 46
 591 0148 7968     		ldr	r1, [r7, #4]
 592 014a 8989     		ldrh	r1, [r1, #12]
 593              		.loc 1 93 39
 594 014c 411A     		subs	r1, r0, r1
 595 014e C817     		asrs	r0, r1, #31
 596 0150 0C46     		mov	r4, r1
 597 0152 0546     		mov	r5, r0
 598              		.loc 1 93 24
ARM GAS  C:\Users\Godwin\AppData\Local\Temp\ccGpVFiP.s 			page 13


 599 0154 12EB0408 		adds	r8, r2, r4
 600 0158 43EB0509 		adc	r9, r3, r5
 601 015c 7B68     		ldr	r3, [r7, #4]
 602 015e C3E90489 		strd	r8, [r3, #16]
 603              	.L16:
  94:User/Hardware/motor.c ****     // process data
  95:User/Hardware/motor.c ****     (ptr)->angle_cnt = (ptr)->ecd_cnt * ECD_TO_ANGEL_DJI;
 604              		.loc 1 95 29
 605 0162 7B68     		ldr	r3, [r7, #4]
 606 0164 D3E90423 		ldrd	r2, [r3, #16]
 607              		.loc 1 95 39
 608 0168 1046     		mov	r0, r2
 609 016a 1946     		mov	r1, r3
 610 016c FFF7FEFF 		bl	__aeabi_l2f
 611 0170 07EE100A 		vmov	s14, r0
 612 0174 DFED737A 		vldr.32	s15, .L32+12
 613 0178 67EE277A 		vmul.f32	s15, s14, s15
 614 017c B7EEE77A 		vcvt.f64.f32	d7, s15
 615              		.loc 1 95 22
 616 0180 7B68     		ldr	r3, [r7, #4]
 617 0182 83ED067B 		vstr.64	d7, [r3, #24]
  96:User/Hardware/motor.c ****     // 根据不同电机进行不同处理
  97:User/Hardware/motor.c ****     if ((ptr)->Motor_type == GM6020)
 618              		.loc 1 97 14
 619 0186 7B68     		ldr	r3, [r7, #4]
 620 0188 9B78     		ldrb	r3, [r3, #2]	@ zero_extendqisi2
 621              		.loc 1 97 8
 622 018a 012B     		cmp	r3, #1
 623 018c 40F09380 		bne	.L18
 624              	.LBB2:
  98:User/Hardware/motor.c ****     {
  99:User/Hardware/motor.c ****         // 计算出轴转速
 100:User/Hardware/motor.c ****         (ptr)->round_speed = (ptr)->speed_rpm;
 625              		.loc 1 100 35
 626 0190 7B68     		ldr	r3, [r7, #4]
 627 0192 B3F90630 		ldrsh	r3, [r3, #6]
 628              		.loc 1 100 28
 629 0196 07EE903A 		vmov	s15, r3	@ int
 630 019a B8EEE77B 		vcvt.f64.s32	d7, s15
 631 019e 7B68     		ldr	r3, [r7, #4]
 632 01a0 83ED0C7B 		vstr.64	d7, [r3, #48]
 101:User/Hardware/motor.c **** 
 102:User/Hardware/motor.c ****         // 计算相对角度 -180~180 谨防精度丢失 总角度过大时
 103:User/Hardware/motor.c ****         float angle = (ptr)->angle_cnt - (ptr)->angle_zero;
 633              		.loc 1 103 28
 634 01a4 7B68     		ldr	r3, [r7, #4]
 635 01a6 93ED066B 		vldr.64	d6, [r3, #24]
 636              		.loc 1 103 47
 637 01aa 7B68     		ldr	r3, [r7, #4]
 638 01ac 93ED087B 		vldr.64	d7, [r3, #32]
 639              		.loc 1 103 40
 640 01b0 36EE477B 		vsub.f64	d7, d6, d7
 641              		.loc 1 103 15
 642 01b4 F7EEC77B 		vcvt.f32.f64	s15, d7
 643 01b8 C7ED057A 		vstr.32	s15, [r7, #20]
 104:User/Hardware/motor.c ****         uint32_t mul = abs((int)angle) / 180;
 644              		.loc 1 104 24
ARM GAS  C:\Users\Godwin\AppData\Local\Temp\ccGpVFiP.s 			page 14


 645 01bc D7ED057A 		vldr.32	s15, [r7, #20]
 646 01c0 FDEEE77A 		vcvt.s32.f32	s15, s15
 647 01c4 17EE903A 		vmov	r3, s15	@ int
 648 01c8 002B     		cmp	r3, #0
 649 01ca 06DD     		ble	.L19
 650              		.loc 1 104 24 is_stmt 0 discriminator 1
 651 01cc D7ED057A 		vldr.32	s15, [r7, #20]
 652 01d0 FDEEE77A 		vcvt.s32.f32	s15, s15
 653 01d4 17EE903A 		vmov	r3, s15	@ int
 654 01d8 0CE0     		b	.L20
 655              	.L19:
 656              		.loc 1 104 24 discriminator 2
 657 01da D7ED057A 		vldr.32	s15, [r7, #20]
 658 01de FDEEE77A 		vcvt.s32.f32	s15, s15
 659 01e2 17EE903A 		vmov	r3, s15	@ int
 660              		.loc 1 104 40 is_stmt 1 discriminator 2
 661 01e6 584A     		ldr	r2, .L32+16
 662 01e8 82FB0312 		smull	r1, r2, r2, r3
 663 01ec 1A44     		add	r2, r2, r3
 664 01ee D211     		asrs	r2, r2, #7
 665 01f0 DB17     		asrs	r3, r3, #31
 666 01f2 9B1A     		subs	r3, r3, r2
 667              	.L20:
 668              		.loc 1 104 18 discriminator 4
 669 01f4 FB60     		str	r3, [r7, #12]
 105:User/Hardware/motor.c ****         if (angle > 180.0f)
 670              		.loc 1 105 12
 671 01f6 D7ED057A 		vldr.32	s15, [r7, #20]
 672 01fa 9FED547A 		vldr.32	s14, .L32+20
 673 01fe F4EEC77A 		vcmpe.f32	s15, s14
 674 0202 F1EE10FA 		vmrs	APSR_nzcv, FPSCR
 675 0206 22DD     		ble	.L21
 106:User/Hardware/motor.c ****         {
 107:User/Hardware/motor.c ****             if (mul % 2 == 1) // 处于-180度
 676              		.loc 1 107 21
 677 0208 FB68     		ldr	r3, [r7, #12]
 678 020a 03F00103 		and	r3, r3, #1
 679              		.loc 1 107 16
 680 020e 002B     		cmp	r3, #0
 681 0210 0FD0     		beq	.L23
 108:User/Hardware/motor.c ****                 angle -= (mul + 1) * 180;
 682              		.loc 1 108 36
 683 0212 FB68     		ldr	r3, [r7, #12]
 684 0214 0133     		adds	r3, r3, #1
 685 0216 B422     		movs	r2, #180
 686 0218 02FB03F3 		mul	r3, r2, r3
 687              		.loc 1 108 23
 688 021c 07EE903A 		vmov	s15, r3	@ int
 689 0220 F8EE677A 		vcvt.f32.u32	s15, s15
 690 0224 97ED057A 		vldr.32	s14, [r7, #20]
 691 0228 77EE677A 		vsub.f32	s15, s14, s15
 692 022c C7ED057A 		vstr.32	s15, [r7, #20]
 693 0230 0DE0     		b	.L21
 694              	.L23:
 109:User/Hardware/motor.c ****             else // 处于180度
 110:User/Hardware/motor.c ****                 angle -= mul * 180;
 695              		.loc 1 110 30
ARM GAS  C:\Users\Godwin\AppData\Local\Temp\ccGpVFiP.s 			page 15


 696 0232 FB68     		ldr	r3, [r7, #12]
 697 0234 B422     		movs	r2, #180
 698 0236 02FB03F3 		mul	r3, r2, r3
 699              		.loc 1 110 23
 700 023a 07EE903A 		vmov	s15, r3	@ int
 701 023e F8EE677A 		vcvt.f32.u32	s15, s15
 702 0242 97ED057A 		vldr.32	s14, [r7, #20]
 703 0246 77EE677A 		vsub.f32	s15, s14, s15
 704 024a C7ED057A 		vstr.32	s15, [r7, #20]
 705              	.L21:
 111:User/Hardware/motor.c ****         }
 112:User/Hardware/motor.c ****         if (angle < -180.0f)
 706              		.loc 1 112 12
 707 024e D7ED057A 		vldr.32	s15, [r7, #20]
 708 0252 9FED3F7A 		vldr.32	s14, .L32+24
 709 0256 F4EEC77A 		vcmpe.f32	s15, s14
 710 025a F1EE10FA 		vmrs	APSR_nzcv, FPSCR
 711 025e 22D5     		bpl	.L24
 113:User/Hardware/motor.c ****         {
 114:User/Hardware/motor.c ****             if (mul % 2 == 1) // 处于180度
 712              		.loc 1 114 21
 713 0260 FB68     		ldr	r3, [r7, #12]
 714 0262 03F00103 		and	r3, r3, #1
 715              		.loc 1 114 16
 716 0266 002B     		cmp	r3, #0
 717 0268 0FD0     		beq	.L26
 115:User/Hardware/motor.c ****                 angle += (mul + 1) * 180;
 718              		.loc 1 115 36
 719 026a FB68     		ldr	r3, [r7, #12]
 720 026c 0133     		adds	r3, r3, #1
 721 026e B422     		movs	r2, #180
 722 0270 02FB03F3 		mul	r3, r2, r3
 723              		.loc 1 115 23
 724 0274 07EE903A 		vmov	s15, r3	@ int
 725 0278 F8EE677A 		vcvt.f32.u32	s15, s15
 726 027c 97ED057A 		vldr.32	s14, [r7, #20]
 727 0280 77EE277A 		vadd.f32	s15, s14, s15
 728 0284 C7ED057A 		vstr.32	s15, [r7, #20]
 729 0288 0DE0     		b	.L24
 730              	.L26:
 116:User/Hardware/motor.c ****             else // 处于-180度
 117:User/Hardware/motor.c ****                 angle += mul * 180;
 731              		.loc 1 117 30
 732 028a FB68     		ldr	r3, [r7, #12]
 733 028c B422     		movs	r2, #180
 734 028e 02FB03F3 		mul	r3, r2, r3
 735              		.loc 1 117 23
 736 0292 07EE903A 		vmov	s15, r3	@ int
 737 0296 F8EE677A 		vcvt.f32.u32	s15, s15
 738 029a 97ED057A 		vldr.32	s14, [r7, #20]
 739 029e 77EE277A 		vadd.f32	s15, s14, s15
 740 02a2 C7ED057A 		vstr.32	s15, [r7, #20]
 741              	.L24:
 118:User/Hardware/motor.c ****         }
 119:User/Hardware/motor.c ****         (ptr)->angle = angle;
 742              		.loc 1 119 22
 743 02a6 D7ED057A 		vldr.32	s15, [r7, #20]
ARM GAS  C:\Users\Godwin\AppData\Local\Temp\ccGpVFiP.s 			page 16


 744 02aa B7EEE77A 		vcvt.f64.f32	d7, s15
 745 02ae 7B68     		ldr	r3, [r7, #4]
 746 02b0 83ED0A7B 		vstr.64	d7, [r3, #40]
 747              	.LBE2:
 120:User/Hardware/motor.c ****     }
 121:User/Hardware/motor.c ****     else if ((ptr)->Motor_type == M3508)
 122:User/Hardware/motor.c ****     {
 123:User/Hardware/motor.c ****         (ptr)->round_speed = (ptr)->speed_rpm / 19.0f;
 124:User/Hardware/motor.c ****     }
 125:User/Hardware/motor.c ****     else if ((ptr)->Motor_type == M2006)
 126:User/Hardware/motor.c ****     {
 127:User/Hardware/motor.c ****         (ptr)->round_speed = (ptr)->speed_rpm / 36.0f;
 128:User/Hardware/motor.c ****         float angle = ((ptr)->angle_cnt/36) - (ptr)->angle_zero;//!!!36!!!!!!!!!!!!!!!!!!!!!!!!!!!!
 129:User/Hardware/motor.c ****     }
 130:User/Hardware/motor.c **** }
 748              		.loc 1 130 1
 749 02b4 38E0     		b	.L31
 750              	.L18:
 121:User/Hardware/motor.c ****     {
 751              		.loc 1 121 19
 752 02b6 7B68     		ldr	r3, [r7, #4]
 753 02b8 9B78     		ldrb	r3, [r3, #2]	@ zero_extendqisi2
 121:User/Hardware/motor.c ****     {
 754              		.loc 1 121 13
 755 02ba 022B     		cmp	r3, #2
 756 02bc 10D1     		bne	.L28
 123:User/Hardware/motor.c ****     }
 757              		.loc 1 123 35
 758 02be 7B68     		ldr	r3, [r7, #4]
 759 02c0 B3F90630 		ldrsh	r3, [r3, #6]
 123:User/Hardware/motor.c ****     }
 760              		.loc 1 123 47
 761 02c4 07EE903A 		vmov	s15, r3	@ int
 762 02c8 B8EEE77A 		vcvt.f32.s32	s14, s15
 763 02cc F3EE036A 		vmov.f32	s13, #1.9e+1
 764 02d0 C7EE267A 		vdiv.f32	s15, s14, s13
 765 02d4 B7EEE77A 		vcvt.f64.f32	d7, s15
 123:User/Hardware/motor.c ****     }
 766              		.loc 1 123 28
 767 02d8 7B68     		ldr	r3, [r7, #4]
 768 02da 83ED0C7B 		vstr.64	d7, [r3, #48]
 769              		.loc 1 130 1
 770 02de 23E0     		b	.L31
 771              	.L28:
 125:User/Hardware/motor.c ****     {
 772              		.loc 1 125 19
 773 02e0 7B68     		ldr	r3, [r7, #4]
 774 02e2 9B78     		ldrb	r3, [r3, #2]	@ zero_extendqisi2
 125:User/Hardware/motor.c ****     {
 775              		.loc 1 125 13
 776 02e4 032B     		cmp	r3, #3
 777 02e6 1FD1     		bne	.L31
 778              	.LBB3:
 127:User/Hardware/motor.c ****         float angle = ((ptr)->angle_cnt/36) - (ptr)->angle_zero;//!!!36!!!!!!!!!!!!!!!!!!!!!!!!!!!!
 779              		.loc 1 127 35
 780 02e8 7B68     		ldr	r3, [r7, #4]
 781 02ea B3F90630 		ldrsh	r3, [r3, #6]
ARM GAS  C:\Users\Godwin\AppData\Local\Temp\ccGpVFiP.s 			page 17


 127:User/Hardware/motor.c ****         float angle = ((ptr)->angle_cnt/36) - (ptr)->angle_zero;//!!!36!!!!!!!!!!!!!!!!!!!!!!!!!!!!
 782              		.loc 1 127 47
 783 02ee 07EE903A 		vmov	s15, r3	@ int
 784 02f2 B8EEE77A 		vcvt.f32.s32	s14, s15
 785 02f6 DFED176A 		vldr.32	s13, .L32+28
 786 02fa C7EE267A 		vdiv.f32	s15, s14, s13
 787 02fe B7EEE77A 		vcvt.f64.f32	d7, s15
 127:User/Hardware/motor.c ****         float angle = ((ptr)->angle_cnt/36) - (ptr)->angle_zero;//!!!36!!!!!!!!!!!!!!!!!!!!!!!!!!!!
 788              		.loc 1 127 28
 789 0302 7B68     		ldr	r3, [r7, #4]
 790 0304 83ED0C7B 		vstr.64	d7, [r3, #48]
 128:User/Hardware/motor.c ****     }
 791              		.loc 1 128 29
 792 0308 7B68     		ldr	r3, [r7, #4]
 793 030a 93ED067B 		vldr.64	d7, [r3, #24]
 128:User/Hardware/motor.c ****     }
 794              		.loc 1 128 40
 795 030e 9FED0A5B 		vldr.64	d5, .L32
 796 0312 87EE056B 		vdiv.f64	d6, d7, d5
 128:User/Hardware/motor.c ****     }
 797              		.loc 1 128 52
 798 0316 7B68     		ldr	r3, [r7, #4]
 799 0318 93ED087B 		vldr.64	d7, [r3, #32]
 128:User/Hardware/motor.c ****     }
 800              		.loc 1 128 45
 801 031c 36EE477B 		vsub.f64	d7, d6, d7
 128:User/Hardware/motor.c ****     }
 802              		.loc 1 128 15
 803 0320 F7EEC77B 		vcvt.f32.f64	s15, d7
 804 0324 C7ED047A 		vstr.32	s15, [r7, #16]
 805              	.L31:
 806              	.LBE3:
 807              		.loc 1 130 1
 808 0328 00BF     		nop
 809 032a 1837     		adds	r7, r7, #24
 810              	.LCFI27:
 811              		.cfi_def_cfa_offset 24
 812 032c BD46     		mov	sp, r7
 813              	.LCFI28:
 814              		.cfi_def_cfa_register 13
 815              		@ sp needed
 816 032e BDE8B083 		pop	{r4, r5, r7, r8, r9, pc}
 817              	.L33:
 818 0332 00BFAFF3 		.align	3
 818      0080
 819              	.L32:
 820 0338 00000000 		.word	0
 821 033c 00004240 		.word	1078067200
 822 0340 00000046 		.word	1174405120
 823 0344 ACFF333D 		.word	1026817964
 824 0348 B7600BB6 		.word	-1240768329
 825 034c 00003443 		.word	1127481344
 826 0350 000034C3 		.word	-1020002304
 827 0354 00001042 		.word	1108344832
 828              		.cfi_endproc
 829              	.LFE148:
 831              		.section	.text.DJIMotor_decode_candata,"ax",%progbits
ARM GAS  C:\Users\Godwin\AppData\Local\Temp\ccGpVFiP.s 			page 18


 832              		.align	1
 833              		.global	DJIMotor_decode_candata
 834              		.syntax unified
 835              		.thumb
 836              		.thumb_func
 838              	DJIMotor_decode_candata:
 839              	.LFB149:
 131:User/Hardware/motor.c **** 
 132:User/Hardware/motor.c **** /**
 133:User/Hardware/motor.c ****  * @brief 大疆电机can数据处理
 134:User/Hardware/motor.c ****  *
 135:User/Hardware/motor.c ****  * @param hfdcan CAN通道
 136:User/Hardware/motor.c ****  * @param id can标识符
 137:User/Hardware/motor.c ****  * @param data can数据
 138:User/Hardware/motor.c ****  */
 139:User/Hardware/motor.c **** void DJIMotor_decode_candata(FDCAN_HandleTypeDef *hfdcan, uint32_t id, uint8_t *data)
 140:User/Hardware/motor.c **** {
 840              		.loc 1 140 1
 841              		.cfi_startproc
 842              		@ args = 0, pretend = 0, frame = 16
 843              		@ frame_needed = 1, uses_anonymous_args = 0
 844 0000 80B5     		push	{r7, lr}
 845              	.LCFI29:
 846              		.cfi_def_cfa_offset 8
 847              		.cfi_offset 7, -8
 848              		.cfi_offset 14, -4
 849 0002 84B0     		sub	sp, sp, #16
 850              	.LCFI30:
 851              		.cfi_def_cfa_offset 24
 852 0004 00AF     		add	r7, sp, #0
 853              	.LCFI31:
 854              		.cfi_def_cfa_register 7
 855 0006 F860     		str	r0, [r7, #12]
 856 0008 B960     		str	r1, [r7, #8]
 857 000a 7A60     		str	r2, [r7, #4]
 141:User/Hardware/motor.c ****     if (id - CAN_ID1 <= 11) // 防止数组溢出
 858              		.loc 1 141 12
 859 000c BB68     		ldr	r3, [r7, #8]
 860 000e A3F20123 		subw	r3, r3, #513
 861              		.loc 1 141 8
 862 0012 0B2B     		cmp	r3, #11
 863 0014 38D8     		bhi	.L38
 142:User/Hardware/motor.c ****     {
 143:User/Hardware/motor.c ****         if (hfdcan == &hfdcan1)
 864              		.loc 1 143 12
 865 0016 FB68     		ldr	r3, [r7, #12]
 866 0018 1D4A     		ldr	r2, .L39
 867 001a 9342     		cmp	r3, r2
 868 001c 0DD1     		bne	.L36
 144:User/Hardware/motor.c ****         {
 145:User/Hardware/motor.c ****             DJIMotor_get_process_motor_data(&DJIMotor_data[0][id - CAN_ID1], data);
 869              		.loc 1 145 66
 870 001e BB68     		ldr	r3, [r7, #8]
 871 0020 A3F20122 		subw	r2, r3, #513
 872              		.loc 1 145 13
 873 0024 1346     		mov	r3, r2
 874 0026 DB00     		lsls	r3, r3, #3
ARM GAS  C:\Users\Godwin\AppData\Local\Temp\ccGpVFiP.s 			page 19


 875 0028 9B1A     		subs	r3, r3, r2
 876 002a DB00     		lsls	r3, r3, #3
 877 002c 194A     		ldr	r2, .L39+4
 878 002e 1344     		add	r3, r3, r2
 879 0030 7968     		ldr	r1, [r7, #4]
 880 0032 1846     		mov	r0, r3
 881 0034 FFF7FEFF 		bl	DJIMotor_get_process_motor_data
 146:User/Hardware/motor.c ****     
 147:User/Hardware/motor.c ****         }
 148:User/Hardware/motor.c ****         else if (hfdcan == &hfdcan2)
 149:User/Hardware/motor.c ****         {
 150:User/Hardware/motor.c ****             DJIMotor_get_process_motor_data(&DJIMotor_data[1][id - CAN_ID1], data);
 151:User/Hardware/motor.c ****             
 152:User/Hardware/motor.c **** 
 153:User/Hardware/motor.c **** 
 154:User/Hardware/motor.c ****         }
 155:User/Hardware/motor.c ****         else if (hfdcan == &hfdcan3)
 156:User/Hardware/motor.c ****         {
 157:User/Hardware/motor.c ****             DJIMotor_get_process_motor_data(&DJIMotor_data[2][id - CAN_ID1], data);
 158:User/Hardware/motor.c ****         }
 159:User/Hardware/motor.c ****     }
 160:User/Hardware/motor.c **** }
 882              		.loc 1 160 1
 883 0038 26E0     		b	.L38
 884              	.L36:
 148:User/Hardware/motor.c ****         {
 885              		.loc 1 148 17
 886 003a FB68     		ldr	r3, [r7, #12]
 887 003c 164A     		ldr	r2, .L39+8
 888 003e 9342     		cmp	r3, r2
 889 0040 0FD1     		bne	.L37
 150:User/Hardware/motor.c ****             
 890              		.loc 1 150 66
 891 0042 BB68     		ldr	r3, [r7, #8]
 892 0044 A3F20122 		subw	r2, r3, #513
 150:User/Hardware/motor.c ****             
 893              		.loc 1 150 13
 894 0048 1346     		mov	r3, r2
 895 004a DB00     		lsls	r3, r3, #3
 896 004c 9B1A     		subs	r3, r3, r2
 897 004e DB00     		lsls	r3, r3, #3
 898 0050 03F51A73 		add	r3, r3, #616
 899 0054 0F4A     		ldr	r2, .L39+4
 900 0056 1344     		add	r3, r3, r2
 901 0058 7968     		ldr	r1, [r7, #4]
 902 005a 1846     		mov	r0, r3
 903 005c FFF7FEFF 		bl	DJIMotor_get_process_motor_data
 904              		.loc 1 160 1
 905 0060 12E0     		b	.L38
 906              	.L37:
 155:User/Hardware/motor.c ****         {
 907              		.loc 1 155 17
 908 0062 FB68     		ldr	r3, [r7, #12]
 909 0064 0D4A     		ldr	r2, .L39+12
 910 0066 9342     		cmp	r3, r2
 911 0068 0ED1     		bne	.L38
 157:User/Hardware/motor.c ****         }
ARM GAS  C:\Users\Godwin\AppData\Local\Temp\ccGpVFiP.s 			page 20


 912              		.loc 1 157 66
 913 006a BB68     		ldr	r3, [r7, #8]
 914 006c A3F20122 		subw	r2, r3, #513
 157:User/Hardware/motor.c ****         }
 915              		.loc 1 157 13
 916 0070 1346     		mov	r3, r2
 917 0072 DB00     		lsls	r3, r3, #3
 918 0074 9B1A     		subs	r3, r3, r2
 919 0076 DB00     		lsls	r3, r3, #3
 920 0078 03F59A63 		add	r3, r3, #1232
 921 007c 054A     		ldr	r2, .L39+4
 922 007e 1344     		add	r3, r3, r2
 923 0080 7968     		ldr	r1, [r7, #4]
 924 0082 1846     		mov	r0, r3
 925 0084 FFF7FEFF 		bl	DJIMotor_get_process_motor_data
 926              	.L38:
 927              		.loc 1 160 1
 928 0088 00BF     		nop
 929 008a 1037     		adds	r7, r7, #16
 930              	.LCFI32:
 931              		.cfi_def_cfa_offset 8
 932 008c BD46     		mov	sp, r7
 933              	.LCFI33:
 934              		.cfi_def_cfa_register 13
 935              		@ sp needed
 936 008e 80BD     		pop	{r7, pc}
 937              	.L40:
 938              		.align	2
 939              	.L39:
 940 0090 00000000 		.word	hfdcan1
 941 0094 00000000 		.word	DJIMotor_data
 942 0098 00000000 		.word	hfdcan2
 943 009c 00000000 		.word	hfdcan3
 944              		.cfi_endproc
 945              	.LFE149:
 947              		.section	.text.DJIMotor_send_current,"ax",%progbits
 948              		.align	1
 949              		.global	DJIMotor_send_current
 950              		.syntax unified
 951              		.thumb
 952              		.thumb_func
 954              	DJIMotor_send_current:
 955              	.LFB150:
 161:User/Hardware/motor.c **** 
 162:User/Hardware/motor.c **** /**
 163:User/Hardware/motor.c ****  * @brief 大疆电机电流值发送，建议放freertos里定期发送（这个函数好大，应该拆一下）
 164:User/Hardware/motor.c ****  *
 165:User/Hardware/motor.c ****  */
 166:User/Hardware/motor.c **** void DJIMotor_send_current(void)
 167:User/Hardware/motor.c **** {
 956              		.loc 1 167 1
 957              		.cfi_startproc
 958              		@ args = 0, pretend = 0, frame = 64
 959              		@ frame_needed = 1, uses_anonymous_args = 0
 960 0000 80B5     		push	{r7, lr}
 961              	.LCFI34:
 962              		.cfi_def_cfa_offset 8
ARM GAS  C:\Users\Godwin\AppData\Local\Temp\ccGpVFiP.s 			page 21


 963              		.cfi_offset 7, -8
 964              		.cfi_offset 14, -4
 965 0002 90B0     		sub	sp, sp, #64
 966              	.LCFI35:
 967              		.cfi_def_cfa_offset 72
 968 0004 00AF     		add	r7, sp, #0
 969              	.LCFI36:
 970              		.cfi_def_cfa_register 7
 168:User/Hardware/motor.c ****     uint8_t can_send_data[3][8];
 169:User/Hardware/motor.c ****     uint8_t canid;
 170:User/Hardware/motor.c ****     static FDCAN_TxHeaderTypeDef tx_message;
 171:User/Hardware/motor.c ****     if (hfdcan1.ErrorCode)
 971              		.loc 1 171 16
 972 0006 B94B     		ldr	r3, .L61
 973 0008 D3F89C30 		ldr	r3, [r3, #156]
 974              		.loc 1 171 8
 975 000c 002B     		cmp	r3, #0
 976 000e 02D0     		beq	.L42
 172:User/Hardware/motor.c ****         HAL_FDCAN_ErrorCallback(&hfdcan1);
 977              		.loc 1 172 9
 978 0010 B648     		ldr	r0, .L61
 979 0012 FFF7FEFF 		bl	HAL_FDCAN_ErrorCallback
 980              	.L42:
 173:User/Hardware/motor.c ****     if (hfdcan2.ErrorCode)
 981              		.loc 1 173 16
 982 0016 B64B     		ldr	r3, .L61+4
 983 0018 D3F89C30 		ldr	r3, [r3, #156]
 984              		.loc 1 173 8
 985 001c 002B     		cmp	r3, #0
 986 001e 02D0     		beq	.L43
 174:User/Hardware/motor.c ****         HAL_FDCAN_ErrorCallback(&hfdcan2);
 987              		.loc 1 174 9
 988 0020 B348     		ldr	r0, .L61+4
 989 0022 FFF7FEFF 		bl	HAL_FDCAN_ErrorCallback
 990              	.L43:
 175:User/Hardware/motor.c ****     if (hfdcan3.ErrorCode)
 991              		.loc 1 175 16
 992 0026 B34B     		ldr	r3, .L61+8
 993 0028 D3F89C30 		ldr	r3, [r3, #156]
 994              		.loc 1 175 8
 995 002c 002B     		cmp	r3, #0
 996 002e 02D0     		beq	.L44
 176:User/Hardware/motor.c ****         HAL_FDCAN_ErrorCallback(&hfdcan3);
 997              		.loc 1 176 9
 998 0030 B048     		ldr	r0, .L61+8
 999 0032 FFF7FEFF 		bl	HAL_FDCAN_ErrorCallback
 1000              	.L44:
 177:User/Hardware/motor.c ****     // 发送3508/2006前4个
 178:User/Hardware/motor.c ****     tx_message.Identifier = CAN_20063508_1_4_send_ID;
 1001              		.loc 1 178 27
 1002 0036 B04B     		ldr	r3, .L61+12
 1003 0038 4FF40072 		mov	r2, #512
 1004 003c 1A60     		str	r2, [r3]
 179:User/Hardware/motor.c ****     tx_message.IdType = FDCAN_STANDARD_ID;              // 标准ID
 1005              		.loc 1 179 23
 1006 003e AE4B     		ldr	r3, .L61+12
 1007 0040 0022     		movs	r2, #0
ARM GAS  C:\Users\Godwin\AppData\Local\Temp\ccGpVFiP.s 			page 22


 1008 0042 5A60     		str	r2, [r3, #4]
 180:User/Hardware/motor.c ****     tx_message.TxFrameType = FDCAN_DATA_FRAME;          // 数据帧
 1009              		.loc 1 180 28
 1010 0044 AC4B     		ldr	r3, .L61+12
 1011 0046 0022     		movs	r2, #0
 1012 0048 9A60     		str	r2, [r3, #8]
 181:User/Hardware/motor.c ****     tx_message.DataLength = FDCAN_DLC_BYTES_8;          // 发送数据长度
 1013              		.loc 1 181 27
 1014 004a AB4B     		ldr	r3, .L61+12
 1015 004c 0822     		movs	r2, #8
 1016 004e DA60     		str	r2, [r3, #12]
 182:User/Hardware/motor.c ****     tx_message.ErrorStateIndicator = FDCAN_ESI_ACTIVE;  // 设置错误状态指示
 1017              		.loc 1 182 36
 1018 0050 A94B     		ldr	r3, .L61+12
 1019 0052 0022     		movs	r2, #0
 1020 0054 1A61     		str	r2, [r3, #16]
 183:User/Hardware/motor.c ****     tx_message.BitRateSwitch = FDCAN_BRS_OFF;           // 不开启可变波特率
 1021              		.loc 1 183 30
 1022 0056 A84B     		ldr	r3, .L61+12
 1023 0058 0022     		movs	r2, #0
 1024 005a 5A61     		str	r2, [r3, #20]
 184:User/Hardware/motor.c ****     tx_message.FDFormat = FDCAN_CLASSIC_CAN;            // 普通CAN格式
 1025              		.loc 1 184 25
 1026 005c A64B     		ldr	r3, .L61+12
 1027 005e 0022     		movs	r2, #0
 1028 0060 9A61     		str	r2, [r3, #24]
 185:User/Hardware/motor.c ****     tx_message.TxEventFifoControl = FDCAN_NO_TX_EVENTS; // 用于发送事件FIFO控制, 不存储
 1029              		.loc 1 185 35
 1030 0062 A54B     		ldr	r3, .L61+12
 1031 0064 0022     		movs	r2, #0
 1032 0066 DA61     		str	r2, [r3, #28]
 186:User/Hardware/motor.c ****     tx_message.MessageMarker = 0x00;                    // 用于复制到TX EVENT FIFO的消息Maker来识别
 1033              		.loc 1 186 30
 1034 0068 A34B     		ldr	r3, .L61+12
 1035 006a 0022     		movs	r2, #0
 1036 006c 1A62     		str	r2, [r3, #32]
 1037              	.LBB4:
 187:User/Hardware/motor.c ****     // 三路can依次赋值
 188:User/Hardware/motor.c ****     for (int i = 0; i < 3; i++)
 1038              		.loc 1 188 14
 1039 006e 0023     		movs	r3, #0
 1040 0070 BB63     		str	r3, [r7, #56]
 1041              		.loc 1 188 5
 1042 0072 4AE0     		b	.L45
 1043              	.L48:
 189:User/Hardware/motor.c ****     {
 190:User/Hardware/motor.c ****         canid = 0;
 1044              		.loc 1 190 15
 1045 0074 0023     		movs	r3, #0
 1046 0076 87F83F30 		strb	r3, [r7, #63]
 1047              	.LBB5:
 191:User/Hardware/motor.c ****         for (int k = 0; k < 8; k += 2)
 1048              		.loc 1 191 18
 1049 007a 0023     		movs	r3, #0
 1050 007c 7B63     		str	r3, [r7, #52]
 1051              		.loc 1 191 9
 1052 007e 3EE0     		b	.L46
ARM GAS  C:\Users\Godwin\AppData\Local\Temp\ccGpVFiP.s 			page 23


 1053              	.L47:
 192:User/Hardware/motor.c ****         {
 193:User/Hardware/motor.c ****             can_send_data[i][k] = (DJIMotor_data[i][canid].set >> 8);
 1054              		.loc 1 193 59
 1055 0080 97F83F20 		ldrb	r2, [r7, #63]	@ zero_extendqisi2
 1056 0084 9D48     		ldr	r0, .L61+16
 1057 0086 B96B     		ldr	r1, [r7, #56]
 1058 0088 1346     		mov	r3, r2
 1059 008a DB00     		lsls	r3, r3, #3
 1060 008c 9B1A     		subs	r3, r3, r2
 1061 008e DB00     		lsls	r3, r3, #3
 1062 0090 4FF41A72 		mov	r2, #616
 1063 0094 01FB02F2 		mul	r2, r1, r2
 1064 0098 1344     		add	r3, r3, r2
 1065 009a 0344     		add	r3, r3, r0
 1066 009c B3F90030 		ldrsh	r3, [r3]
 1067              		.loc 1 193 33
 1068 00a0 1B12     		asrs	r3, r3, #8
 1069 00a2 1BB2     		sxth	r3, r3
 1070 00a4 D9B2     		uxtb	r1, r3
 1071 00a6 BB6B     		ldr	r3, [r7, #56]
 1072 00a8 DB00     		lsls	r3, r3, #3
 1073 00aa 4033     		adds	r3, r3, #64
 1074 00ac DA19     		adds	r2, r3, r7
 1075 00ae 7B6B     		ldr	r3, [r7, #52]
 1076 00b0 1344     		add	r3, r3, r2
 1077 00b2 3C3B     		subs	r3, r3, #60
 1078 00b4 0A46     		mov	r2, r1
 1079 00b6 1A70     		strb	r2, [r3]
 194:User/Hardware/motor.c ****             can_send_data[i][k + 1] = DJIMotor_data[i][canid].set;
 1080              		.loc 1 194 62
 1081 00b8 97F83F20 		ldrb	r2, [r7, #63]	@ zero_extendqisi2
 1082 00bc 8F48     		ldr	r0, .L61+16
 1083 00be B96B     		ldr	r1, [r7, #56]
 1084 00c0 1346     		mov	r3, r2
 1085 00c2 DB00     		lsls	r3, r3, #3
 1086 00c4 9B1A     		subs	r3, r3, r2
 1087 00c6 DB00     		lsls	r3, r3, #3
 1088 00c8 4FF41A72 		mov	r2, #616
 1089 00cc 01FB02F2 		mul	r2, r1, r2
 1090 00d0 1344     		add	r3, r3, r2
 1091 00d2 0344     		add	r3, r3, r0
 1092 00d4 B3F90020 		ldrsh	r2, [r3]
 1093              		.loc 1 194 32
 1094 00d8 7B6B     		ldr	r3, [r7, #52]
 1095 00da 0133     		adds	r3, r3, #1
 1096              		.loc 1 194 37
 1097 00dc D1B2     		uxtb	r1, r2
 1098 00de BA6B     		ldr	r2, [r7, #56]
 1099 00e0 D200     		lsls	r2, r2, #3
 1100 00e2 4032     		adds	r2, r2, #64
 1101 00e4 3A44     		add	r2, r2, r7
 1102 00e6 1344     		add	r3, r3, r2
 1103 00e8 3C3B     		subs	r3, r3, #60
 1104 00ea 0A46     		mov	r2, r1
 1105 00ec 1A70     		strb	r2, [r3]
 195:User/Hardware/motor.c ****             canid++;
ARM GAS  C:\Users\Godwin\AppData\Local\Temp\ccGpVFiP.s 			page 24


 1106              		.loc 1 195 18
 1107 00ee 97F83F30 		ldrb	r3, [r7, #63]	@ zero_extendqisi2
 1108 00f2 0133     		adds	r3, r3, #1
 1109 00f4 87F83F30 		strb	r3, [r7, #63]
 191:User/Hardware/motor.c ****         {
 1110              		.loc 1 191 34 discriminator 3
 1111 00f8 7B6B     		ldr	r3, [r7, #52]
 1112 00fa 0233     		adds	r3, r3, #2
 1113 00fc 7B63     		str	r3, [r7, #52]
 1114              	.L46:
 191:User/Hardware/motor.c ****         {
 1115              		.loc 1 191 27 discriminator 1
 1116 00fe 7B6B     		ldr	r3, [r7, #52]
 1117 0100 072B     		cmp	r3, #7
 1118 0102 BDDD     		ble	.L47
 1119              	.LBE5:
 188:User/Hardware/motor.c ****     {
 1120              		.loc 1 188 29 discriminator 2
 1121 0104 BB6B     		ldr	r3, [r7, #56]
 1122 0106 0133     		adds	r3, r3, #1
 1123 0108 BB63     		str	r3, [r7, #56]
 1124              	.L45:
 188:User/Hardware/motor.c ****     {
 1125              		.loc 1 188 23 discriminator 1
 1126 010a BB6B     		ldr	r3, [r7, #56]
 1127 010c 022B     		cmp	r3, #2
 1128 010e B1DD     		ble	.L48
 1129              	.LBE4:
 196:User/Hardware/motor.c ****         }
 197:User/Hardware/motor.c ****     }
 198:User/Hardware/motor.c ****     // 三路can同时发送
 199:User/Hardware/motor.c ****     HAL_FDCAN_AddMessageToTxFifoQ(&hfdcan1, &tx_message, can_send_data[0]);
 1130              		.loc 1 199 5
 1131 0110 3B1D     		adds	r3, r7, #4
 1132 0112 1A46     		mov	r2, r3
 1133 0114 7849     		ldr	r1, .L61+12
 1134 0116 7548     		ldr	r0, .L61
 1135 0118 FFF7FEFF 		bl	HAL_FDCAN_AddMessageToTxFifoQ
 200:User/Hardware/motor.c ****     HAL_FDCAN_AddMessageToTxFifoQ(&hfdcan2, &tx_message, can_send_data[1]);
 1136              		.loc 1 200 5
 1137 011c 3B1D     		adds	r3, r7, #4
 1138 011e 0833     		adds	r3, r3, #8
 1139 0120 1A46     		mov	r2, r3
 1140 0122 7549     		ldr	r1, .L61+12
 1141 0124 7248     		ldr	r0, .L61+4
 1142 0126 FFF7FEFF 		bl	HAL_FDCAN_AddMessageToTxFifoQ
 201:User/Hardware/motor.c ****     HAL_FDCAN_AddMessageToTxFifoQ(&hfdcan3, &tx_message, can_send_data[2]);
 1143              		.loc 1 201 5
 1144 012a 3B1D     		adds	r3, r7, #4
 1145 012c 1033     		adds	r3, r3, #16
 1146 012e 1A46     		mov	r2, r3
 1147 0130 7149     		ldr	r1, .L61+12
 1148 0132 7048     		ldr	r0, .L61+8
 1149 0134 FFF7FEFF 		bl	HAL_FDCAN_AddMessageToTxFifoQ
 202:User/Hardware/motor.c **** 
 203:User/Hardware/motor.c ****     // 发送3508/2006后4个
 204:User/Hardware/motor.c ****     tx_message.Identifier = CAN_20063508_5_8_send_ID;
ARM GAS  C:\Users\Godwin\AppData\Local\Temp\ccGpVFiP.s 			page 25


 1150              		.loc 1 204 27
 1151 0138 6F4B     		ldr	r3, .L61+12
 1152 013a 40F2FF12 		movw	r2, #511
 1153 013e 1A60     		str	r2, [r3]
 1154              	.LBB6:
 205:User/Hardware/motor.c ****     for (int i = 0; i < 3; i++)
 1155              		.loc 1 205 14
 1156 0140 0023     		movs	r3, #0
 1157 0142 3B63     		str	r3, [r7, #48]
 1158              		.loc 1 205 5
 1159 0144 4AE0     		b	.L49
 1160              	.L52:
 206:User/Hardware/motor.c ****     {
 207:User/Hardware/motor.c ****         canid = 4;
 1161              		.loc 1 207 15
 1162 0146 0423     		movs	r3, #4
 1163 0148 87F83F30 		strb	r3, [r7, #63]
 1164              	.LBB7:
 208:User/Hardware/motor.c ****         for (int k = 0; k < 8; k += 2)
 1165              		.loc 1 208 18
 1166 014c 0023     		movs	r3, #0
 1167 014e FB62     		str	r3, [r7, #44]
 1168              		.loc 1 208 9
 1169 0150 3EE0     		b	.L50
 1170              	.L51:
 209:User/Hardware/motor.c ****         {
 210:User/Hardware/motor.c ****             can_send_data[i][k] = (DJIMotor_data[i][canid].set >> 8);
 1171              		.loc 1 210 59
 1172 0152 97F83F20 		ldrb	r2, [r7, #63]	@ zero_extendqisi2
 1173 0156 6948     		ldr	r0, .L61+16
 1174 0158 396B     		ldr	r1, [r7, #48]
 1175 015a 1346     		mov	r3, r2
 1176 015c DB00     		lsls	r3, r3, #3
 1177 015e 9B1A     		subs	r3, r3, r2
 1178 0160 DB00     		lsls	r3, r3, #3
 1179 0162 4FF41A72 		mov	r2, #616
 1180 0166 01FB02F2 		mul	r2, r1, r2
 1181 016a 1344     		add	r3, r3, r2
 1182 016c 0344     		add	r3, r3, r0
 1183 016e B3F90030 		ldrsh	r3, [r3]
 1184              		.loc 1 210 33
 1185 0172 1B12     		asrs	r3, r3, #8
 1186 0174 1BB2     		sxth	r3, r3
 1187 0176 D9B2     		uxtb	r1, r3
 1188 0178 3B6B     		ldr	r3, [r7, #48]
 1189 017a DB00     		lsls	r3, r3, #3
 1190 017c 4033     		adds	r3, r3, #64
 1191 017e DA19     		adds	r2, r3, r7
 1192 0180 FB6A     		ldr	r3, [r7, #44]
 1193 0182 1344     		add	r3, r3, r2
 1194 0184 3C3B     		subs	r3, r3, #60
 1195 0186 0A46     		mov	r2, r1
 1196 0188 1A70     		strb	r2, [r3]
 211:User/Hardware/motor.c ****             can_send_data[i][k + 1] = DJIMotor_data[i][canid].set;
 1197              		.loc 1 211 62
 1198 018a 97F83F20 		ldrb	r2, [r7, #63]	@ zero_extendqisi2
 1199 018e 5B48     		ldr	r0, .L61+16
ARM GAS  C:\Users\Godwin\AppData\Local\Temp\ccGpVFiP.s 			page 26


 1200 0190 396B     		ldr	r1, [r7, #48]
 1201 0192 1346     		mov	r3, r2
 1202 0194 DB00     		lsls	r3, r3, #3
 1203 0196 9B1A     		subs	r3, r3, r2
 1204 0198 DB00     		lsls	r3, r3, #3
 1205 019a 4FF41A72 		mov	r2, #616
 1206 019e 01FB02F2 		mul	r2, r1, r2
 1207 01a2 1344     		add	r3, r3, r2
 1208 01a4 0344     		add	r3, r3, r0
 1209 01a6 B3F90020 		ldrsh	r2, [r3]
 1210              		.loc 1 211 32
 1211 01aa FB6A     		ldr	r3, [r7, #44]
 1212 01ac 0133     		adds	r3, r3, #1
 1213              		.loc 1 211 37
 1214 01ae D1B2     		uxtb	r1, r2
 1215 01b0 3A6B     		ldr	r2, [r7, #48]
 1216 01b2 D200     		lsls	r2, r2, #3
 1217 01b4 4032     		adds	r2, r2, #64
 1218 01b6 3A44     		add	r2, r2, r7
 1219 01b8 1344     		add	r3, r3, r2
 1220 01ba 3C3B     		subs	r3, r3, #60
 1221 01bc 0A46     		mov	r2, r1
 1222 01be 1A70     		strb	r2, [r3]
 212:User/Hardware/motor.c ****             canid++;
 1223              		.loc 1 212 18
 1224 01c0 97F83F30 		ldrb	r3, [r7, #63]	@ zero_extendqisi2
 1225 01c4 0133     		adds	r3, r3, #1
 1226 01c6 87F83F30 		strb	r3, [r7, #63]
 208:User/Hardware/motor.c ****         {
 1227              		.loc 1 208 34 discriminator 3
 1228 01ca FB6A     		ldr	r3, [r7, #44]
 1229 01cc 0233     		adds	r3, r3, #2
 1230 01ce FB62     		str	r3, [r7, #44]
 1231              	.L50:
 208:User/Hardware/motor.c ****         {
 1232              		.loc 1 208 27 discriminator 1
 1233 01d0 FB6A     		ldr	r3, [r7, #44]
 1234 01d2 072B     		cmp	r3, #7
 1235 01d4 BDDD     		ble	.L51
 1236              	.LBE7:
 205:User/Hardware/motor.c ****     {
 1237              		.loc 1 205 29 discriminator 2
 1238 01d6 3B6B     		ldr	r3, [r7, #48]
 1239 01d8 0133     		adds	r3, r3, #1
 1240 01da 3B63     		str	r3, [r7, #48]
 1241              	.L49:
 205:User/Hardware/motor.c ****     {
 1242              		.loc 1 205 23 discriminator 1
 1243 01dc 3B6B     		ldr	r3, [r7, #48]
 1244 01de 022B     		cmp	r3, #2
 1245 01e0 B1DD     		ble	.L52
 1246              	.LBE6:
 213:User/Hardware/motor.c ****         }
 214:User/Hardware/motor.c ****     }
 215:User/Hardware/motor.c ****     // 三路can同时发送
 216:User/Hardware/motor.c ****     HAL_FDCAN_AddMessageToTxFifoQ(&hfdcan1, &tx_message, can_send_data[0]);
 1247              		.loc 1 216 5
ARM GAS  C:\Users\Godwin\AppData\Local\Temp\ccGpVFiP.s 			page 27


 1248 01e2 3B1D     		adds	r3, r7, #4
 1249 01e4 1A46     		mov	r2, r3
 1250 01e6 4449     		ldr	r1, .L61+12
 1251 01e8 4048     		ldr	r0, .L61
 1252 01ea FFF7FEFF 		bl	HAL_FDCAN_AddMessageToTxFifoQ
 217:User/Hardware/motor.c ****     HAL_FDCAN_AddMessageToTxFifoQ(&hfdcan2, &tx_message, can_send_data[1]);
 1253              		.loc 1 217 5
 1254 01ee 3B1D     		adds	r3, r7, #4
 1255 01f0 0833     		adds	r3, r3, #8
 1256 01f2 1A46     		mov	r2, r3
 1257 01f4 4049     		ldr	r1, .L61+12
 1258 01f6 3E48     		ldr	r0, .L61+4
 1259 01f8 FFF7FEFF 		bl	HAL_FDCAN_AddMessageToTxFifoQ
 218:User/Hardware/motor.c ****     HAL_FDCAN_AddMessageToTxFifoQ(&hfdcan3, &tx_message, can_send_data[2]);
 1260              		.loc 1 218 5
 1261 01fc 3B1D     		adds	r3, r7, #4
 1262 01fe 1033     		adds	r3, r3, #16
 1263 0200 1A46     		mov	r2, r3
 1264 0202 3D49     		ldr	r1, .L61+12
 1265 0204 3B48     		ldr	r0, .L61+8
 1266 0206 FFF7FEFF 		bl	HAL_FDCAN_AddMessageToTxFifoQ
 219:User/Hardware/motor.c **** 
 220:User/Hardware/motor.c ****     // 发送6020前4个
 221:User/Hardware/motor.c ****     tx_message.Identifier = CAN_6020_1_4_send_ID;
 1267              		.loc 1 221 27
 1268 020a 3B4B     		ldr	r3, .L61+12
 1269 020c 4FF4FF72 		mov	r2, #510
 1270 0210 1A60     		str	r2, [r3]
 1271              	.LBB8:
 222:User/Hardware/motor.c ****     for (int i = 0; i < 3; i++)
 1272              		.loc 1 222 14
 1273 0212 0023     		movs	r3, #0
 1274 0214 BB62     		str	r3, [r7, #40]
 1275              		.loc 1 222 5
 1276 0216 4AE0     		b	.L53
 1277              	.L56:
 223:User/Hardware/motor.c ****     {
 224:User/Hardware/motor.c ****         canid = 4;
 1278              		.loc 1 224 15
 1279 0218 0423     		movs	r3, #4
 1280 021a 87F83F30 		strb	r3, [r7, #63]
 1281              	.LBB9:
 225:User/Hardware/motor.c ****         for (int k = 0; k < 8; k += 2)
 1282              		.loc 1 225 18
 1283 021e 0023     		movs	r3, #0
 1284 0220 7B62     		str	r3, [r7, #36]
 1285              		.loc 1 225 9
 1286 0222 3EE0     		b	.L54
 1287              	.L55:
 226:User/Hardware/motor.c ****         {
 227:User/Hardware/motor.c ****             can_send_data[i][k] = (DJIMotor_data[i][canid].set >> 8);
 1288              		.loc 1 227 59
 1289 0224 97F83F20 		ldrb	r2, [r7, #63]	@ zero_extendqisi2
 1290 0228 3448     		ldr	r0, .L61+16
 1291 022a B96A     		ldr	r1, [r7, #40]
 1292 022c 1346     		mov	r3, r2
 1293 022e DB00     		lsls	r3, r3, #3
ARM GAS  C:\Users\Godwin\AppData\Local\Temp\ccGpVFiP.s 			page 28


 1294 0230 9B1A     		subs	r3, r3, r2
 1295 0232 DB00     		lsls	r3, r3, #3
 1296 0234 4FF41A72 		mov	r2, #616
 1297 0238 01FB02F2 		mul	r2, r1, r2
 1298 023c 1344     		add	r3, r3, r2
 1299 023e 0344     		add	r3, r3, r0
 1300 0240 B3F90030 		ldrsh	r3, [r3]
 1301              		.loc 1 227 33
 1302 0244 1B12     		asrs	r3, r3, #8
 1303 0246 1BB2     		sxth	r3, r3
 1304 0248 D9B2     		uxtb	r1, r3
 1305 024a BB6A     		ldr	r3, [r7, #40]
 1306 024c DB00     		lsls	r3, r3, #3
 1307 024e 4033     		adds	r3, r3, #64
 1308 0250 DA19     		adds	r2, r3, r7
 1309 0252 7B6A     		ldr	r3, [r7, #36]
 1310 0254 1344     		add	r3, r3, r2
 1311 0256 3C3B     		subs	r3, r3, #60
 1312 0258 0A46     		mov	r2, r1
 1313 025a 1A70     		strb	r2, [r3]
 228:User/Hardware/motor.c ****             can_send_data[i][k + 1] = DJIMotor_data[i][canid].set;
 1314              		.loc 1 228 62
 1315 025c 97F83F20 		ldrb	r2, [r7, #63]	@ zero_extendqisi2
 1316 0260 2648     		ldr	r0, .L61+16
 1317 0262 B96A     		ldr	r1, [r7, #40]
 1318 0264 1346     		mov	r3, r2
 1319 0266 DB00     		lsls	r3, r3, #3
 1320 0268 9B1A     		subs	r3, r3, r2
 1321 026a DB00     		lsls	r3, r3, #3
 1322 026c 4FF41A72 		mov	r2, #616
 1323 0270 01FB02F2 		mul	r2, r1, r2
 1324 0274 1344     		add	r3, r3, r2
 1325 0276 0344     		add	r3, r3, r0
 1326 0278 B3F90020 		ldrsh	r2, [r3]
 1327              		.loc 1 228 32
 1328 027c 7B6A     		ldr	r3, [r7, #36]
 1329 027e 0133     		adds	r3, r3, #1
 1330              		.loc 1 228 37
 1331 0280 D1B2     		uxtb	r1, r2
 1332 0282 BA6A     		ldr	r2, [r7, #40]
 1333 0284 D200     		lsls	r2, r2, #3
 1334 0286 4032     		adds	r2, r2, #64
 1335 0288 3A44     		add	r2, r2, r7
 1336 028a 1344     		add	r3, r3, r2
 1337 028c 3C3B     		subs	r3, r3, #60
 1338 028e 0A46     		mov	r2, r1
 1339 0290 1A70     		strb	r2, [r3]
 229:User/Hardware/motor.c ****             canid++;
 1340              		.loc 1 229 18
 1341 0292 97F83F30 		ldrb	r3, [r7, #63]	@ zero_extendqisi2
 1342 0296 0133     		adds	r3, r3, #1
 1343 0298 87F83F30 		strb	r3, [r7, #63]
 225:User/Hardware/motor.c ****         {
 1344              		.loc 1 225 34 discriminator 3
 1345 029c 7B6A     		ldr	r3, [r7, #36]
 1346 029e 0233     		adds	r3, r3, #2
 1347 02a0 7B62     		str	r3, [r7, #36]
ARM GAS  C:\Users\Godwin\AppData\Local\Temp\ccGpVFiP.s 			page 29


 1348              	.L54:
 225:User/Hardware/motor.c ****         {
 1349              		.loc 1 225 27 discriminator 1
 1350 02a2 7B6A     		ldr	r3, [r7, #36]
 1351 02a4 072B     		cmp	r3, #7
 1352 02a6 BDDD     		ble	.L55
 1353              	.LBE9:
 222:User/Hardware/motor.c ****     {
 1354              		.loc 1 222 29 discriminator 2
 1355 02a8 BB6A     		ldr	r3, [r7, #40]
 1356 02aa 0133     		adds	r3, r3, #1
 1357 02ac BB62     		str	r3, [r7, #40]
 1358              	.L53:
 222:User/Hardware/motor.c ****     {
 1359              		.loc 1 222 23 discriminator 1
 1360 02ae BB6A     		ldr	r3, [r7, #40]
 1361 02b0 022B     		cmp	r3, #2
 1362 02b2 B1DD     		ble	.L56
 1363              	.LBE8:
 230:User/Hardware/motor.c ****         }
 231:User/Hardware/motor.c ****     }
 232:User/Hardware/motor.c ****     // 三路can同时发送
 233:User/Hardware/motor.c ****     HAL_FDCAN_AddMessageToTxFifoQ(&hfdcan1, &tx_message, can_send_data[0]);
 1364              		.loc 1 233 5
 1365 02b4 3B1D     		adds	r3, r7, #4
 1366 02b6 1A46     		mov	r2, r3
 1367 02b8 0F49     		ldr	r1, .L61+12
 1368 02ba 0C48     		ldr	r0, .L61
 1369 02bc FFF7FEFF 		bl	HAL_FDCAN_AddMessageToTxFifoQ
 234:User/Hardware/motor.c ****     HAL_FDCAN_AddMessageToTxFifoQ(&hfdcan2, &tx_message, can_send_data[1]);
 1370              		.loc 1 234 5
 1371 02c0 3B1D     		adds	r3, r7, #4
 1372 02c2 0833     		adds	r3, r3, #8
 1373 02c4 1A46     		mov	r2, r3
 1374 02c6 0C49     		ldr	r1, .L61+12
 1375 02c8 0948     		ldr	r0, .L61+4
 1376 02ca FFF7FEFF 		bl	HAL_FDCAN_AddMessageToTxFifoQ
 235:User/Hardware/motor.c ****     HAL_FDCAN_AddMessageToTxFifoQ(&hfdcan3, &tx_message, can_send_data[2]);
 1377              		.loc 1 235 5
 1378 02ce 3B1D     		adds	r3, r7, #4
 1379 02d0 1033     		adds	r3, r3, #16
 1380 02d2 1A46     		mov	r2, r3
 1381 02d4 0849     		ldr	r1, .L61+12
 1382 02d6 0748     		ldr	r0, .L61+8
 1383 02d8 FFF7FEFF 		bl	HAL_FDCAN_AddMessageToTxFifoQ
 236:User/Hardware/motor.c **** 
 237:User/Hardware/motor.c ****     // 发送6020后3个
 238:User/Hardware/motor.c ****     tx_message.Identifier = CAN_6020_5_7_send_ID;
 1384              		.loc 1 238 27
 1385 02dc 064B     		ldr	r3, .L61+12
 1386 02de 40F2FE22 		movw	r2, #766
 1387 02e2 1A60     		str	r2, [r3]
 1388              	.LBB10:
 239:User/Hardware/motor.c ****     for (int i = 0; i < 3; i++)
 1389              		.loc 1 239 14
 1390 02e4 0023     		movs	r3, #0
 1391 02e6 3B62     		str	r3, [r7, #32]
ARM GAS  C:\Users\Godwin\AppData\Local\Temp\ccGpVFiP.s 			page 30


 1392              		.loc 1 239 5
 1393 02e8 55E0     		b	.L57
 1394              	.L62:
 1395 02ea 00BF     		.align	2
 1396              	.L61:
 1397 02ec 00000000 		.word	hfdcan1
 1398 02f0 00000000 		.word	hfdcan2
 1399 02f4 00000000 		.word	hfdcan3
 1400 02f8 00000000 		.word	tx_message.0
 1401 02fc 00000000 		.word	DJIMotor_data
 1402              	.L60:
 240:User/Hardware/motor.c ****     {
 241:User/Hardware/motor.c ****         canid = 8;
 1403              		.loc 1 241 15
 1404 0300 0823     		movs	r3, #8
 1405 0302 87F83F30 		strb	r3, [r7, #63]
 1406              	.LBB11:
 242:User/Hardware/motor.c ****         for (int k = 0; k < 6; k += 2)
 1407              		.loc 1 242 18
 1408 0306 0023     		movs	r3, #0
 1409 0308 FB61     		str	r3, [r7, #28]
 1410              		.loc 1 242 9
 1411 030a 3EE0     		b	.L58
 1412              	.L59:
 243:User/Hardware/motor.c ****         {
 244:User/Hardware/motor.c ****             can_send_data[i][k] = (DJIMotor_data[i][canid].set >> 8);
 1413              		.loc 1 244 59
 1414 030c 97F83F20 		ldrb	r2, [r7, #63]	@ zero_extendqisi2
 1415 0310 2E48     		ldr	r0, .L63
 1416 0312 396A     		ldr	r1, [r7, #32]
 1417 0314 1346     		mov	r3, r2
 1418 0316 DB00     		lsls	r3, r3, #3
 1419 0318 9B1A     		subs	r3, r3, r2
 1420 031a DB00     		lsls	r3, r3, #3
 1421 031c 4FF41A72 		mov	r2, #616
 1422 0320 01FB02F2 		mul	r2, r1, r2
 1423 0324 1344     		add	r3, r3, r2
 1424 0326 0344     		add	r3, r3, r0
 1425 0328 B3F90030 		ldrsh	r3, [r3]
 1426              		.loc 1 244 33
 1427 032c 1B12     		asrs	r3, r3, #8
 1428 032e 1BB2     		sxth	r3, r3
 1429 0330 D9B2     		uxtb	r1, r3
 1430 0332 3B6A     		ldr	r3, [r7, #32]
 1431 0334 DB00     		lsls	r3, r3, #3
 1432 0336 4033     		adds	r3, r3, #64
 1433 0338 DA19     		adds	r2, r3, r7
 1434 033a FB69     		ldr	r3, [r7, #28]
 1435 033c 1344     		add	r3, r3, r2
 1436 033e 3C3B     		subs	r3, r3, #60
 1437 0340 0A46     		mov	r2, r1
 1438 0342 1A70     		strb	r2, [r3]
 245:User/Hardware/motor.c ****             can_send_data[i][k + 1] = DJIMotor_data[i][canid].set;
 1439              		.loc 1 245 62
 1440 0344 97F83F20 		ldrb	r2, [r7, #63]	@ zero_extendqisi2
 1441 0348 2048     		ldr	r0, .L63
 1442 034a 396A     		ldr	r1, [r7, #32]
ARM GAS  C:\Users\Godwin\AppData\Local\Temp\ccGpVFiP.s 			page 31


 1443 034c 1346     		mov	r3, r2
 1444 034e DB00     		lsls	r3, r3, #3
 1445 0350 9B1A     		subs	r3, r3, r2
 1446 0352 DB00     		lsls	r3, r3, #3
 1447 0354 4FF41A72 		mov	r2, #616
 1448 0358 01FB02F2 		mul	r2, r1, r2
 1449 035c 1344     		add	r3, r3, r2
 1450 035e 0344     		add	r3, r3, r0
 1451 0360 B3F90020 		ldrsh	r2, [r3]
 1452              		.loc 1 245 32
 1453 0364 FB69     		ldr	r3, [r7, #28]
 1454 0366 0133     		adds	r3, r3, #1
 1455              		.loc 1 245 37
 1456 0368 D1B2     		uxtb	r1, r2
 1457 036a 3A6A     		ldr	r2, [r7, #32]
 1458 036c D200     		lsls	r2, r2, #3
 1459 036e 4032     		adds	r2, r2, #64
 1460 0370 3A44     		add	r2, r2, r7
 1461 0372 1344     		add	r3, r3, r2
 1462 0374 3C3B     		subs	r3, r3, #60
 1463 0376 0A46     		mov	r2, r1
 1464 0378 1A70     		strb	r2, [r3]
 246:User/Hardware/motor.c ****             canid++;
 1465              		.loc 1 246 18
 1466 037a 97F83F30 		ldrb	r3, [r7, #63]	@ zero_extendqisi2
 1467 037e 0133     		adds	r3, r3, #1
 1468 0380 87F83F30 		strb	r3, [r7, #63]
 242:User/Hardware/motor.c ****         {
 1469              		.loc 1 242 34 discriminator 3
 1470 0384 FB69     		ldr	r3, [r7, #28]
 1471 0386 0233     		adds	r3, r3, #2
 1472 0388 FB61     		str	r3, [r7, #28]
 1473              	.L58:
 242:User/Hardware/motor.c ****         {
 1474              		.loc 1 242 27 discriminator 1
 1475 038a FB69     		ldr	r3, [r7, #28]
 1476 038c 052B     		cmp	r3, #5
 1477 038e BDDD     		ble	.L59
 1478              	.LBE11:
 239:User/Hardware/motor.c ****     {
 1479              		.loc 1 239 29 discriminator 2
 1480 0390 3B6A     		ldr	r3, [r7, #32]
 1481 0392 0133     		adds	r3, r3, #1
 1482 0394 3B62     		str	r3, [r7, #32]
 1483              	.L57:
 239:User/Hardware/motor.c ****     {
 1484              		.loc 1 239 23 discriminator 1
 1485 0396 3B6A     		ldr	r3, [r7, #32]
 1486 0398 022B     		cmp	r3, #2
 1487 039a B1DD     		ble	.L60
 1488              	.LBE10:
 247:User/Hardware/motor.c ****         }
 248:User/Hardware/motor.c ****     }
 249:User/Hardware/motor.c ****     // 三路can同时发送
 250:User/Hardware/motor.c ****     HAL_FDCAN_AddMessageToTxFifoQ(&hfdcan1, &tx_message, can_send_data[0]);
 1489              		.loc 1 250 5
 1490 039c 3B1D     		adds	r3, r7, #4
ARM GAS  C:\Users\Godwin\AppData\Local\Temp\ccGpVFiP.s 			page 32


 1491 039e 1A46     		mov	r2, r3
 1492 03a0 0B49     		ldr	r1, .L63+4
 1493 03a2 0C48     		ldr	r0, .L63+8
 1494 03a4 FFF7FEFF 		bl	HAL_FDCAN_AddMessageToTxFifoQ
 251:User/Hardware/motor.c ****     HAL_FDCAN_AddMessageToTxFifoQ(&hfdcan2, &tx_message, can_send_data[1]);
 1495              		.loc 1 251 5
 1496 03a8 3B1D     		adds	r3, r7, #4
 1497 03aa 0833     		adds	r3, r3, #8
 1498 03ac 1A46     		mov	r2, r3
 1499 03ae 0849     		ldr	r1, .L63+4
 1500 03b0 0948     		ldr	r0, .L63+12
 1501 03b2 FFF7FEFF 		bl	HAL_FDCAN_AddMessageToTxFifoQ
 252:User/Hardware/motor.c ****     HAL_FDCAN_AddMessageToTxFifoQ(&hfdcan3, &tx_message, can_send_data[2]);
 1502              		.loc 1 252 5
 1503 03b6 3B1D     		adds	r3, r7, #4
 1504 03b8 1033     		adds	r3, r3, #16
 1505 03ba 1A46     		mov	r2, r3
 1506 03bc 0449     		ldr	r1, .L63+4
 1507 03be 0748     		ldr	r0, .L63+16
 1508 03c0 FFF7FEFF 		bl	HAL_FDCAN_AddMessageToTxFifoQ
 253:User/Hardware/motor.c **** }
 1509              		.loc 1 253 1
 1510 03c4 00BF     		nop
 1511 03c6 4037     		adds	r7, r7, #64
 1512              	.LCFI37:
 1513              		.cfi_def_cfa_offset 8
 1514 03c8 BD46     		mov	sp, r7
 1515              	.LCFI38:
 1516              		.cfi_def_cfa_register 13
 1517              		@ sp needed
 1518 03ca 80BD     		pop	{r7, pc}
 1519              	.L64:
 1520              		.align	2
 1521              	.L63:
 1522 03cc 00000000 		.word	DJIMotor_data
 1523 03d0 00000000 		.word	tx_message.0
 1524 03d4 00000000 		.word	hfdcan1
 1525 03d8 00000000 		.word	hfdcan2
 1526 03dc 00000000 		.word	hfdcan3
 1527              		.cfi_endproc
 1528              	.LFE150:
 1530              		.global	LZ_Motors
 1531              		.section	.bss.LZ_Motors,"aw",%nobits
 1532              		.align	2
 1535              	LZ_Motors:
 1536 0000 00000000 		.space	1296
 1536      00000000 
 1536      00000000 
 1536      00000000 
 1536      00000000 
 1537              		.section	.text.LZMotor_velocity_enable,"ax",%progbits
 1538              		.align	1
 1539              		.global	LZMotor_velocity_enable
 1540              		.syntax unified
 1541              		.thumb
 1542              		.thumb_func
 1544              	LZMotor_velocity_enable:
ARM GAS  C:\Users\Godwin\AppData\Local\Temp\ccGpVFiP.s 			page 33


 1545              	.LFB151:
 254:User/Hardware/motor.c **** 
 255:User/Hardware/motor.c **** #endif // USE_DJI_MOTOR
 256:User/Hardware/motor.c **** #if (USE_LZMotor == 1)
 257:User/Hardware/motor.c **** // ???????????
 258:User/Hardware/motor.c **** LZ_Motor_t LZ_Motors[QUANTITY_OF_CAN][QUANTITY_OF_LZMOTOR];
 259:User/Hardware/motor.c **** 
 260:User/Hardware/motor.c **** /**
 261:User/Hardware/motor.c ****  * @brief ?????????
 262:User/Hardware/motor.c ****  */
 263:User/Hardware/motor.c **** void  LZMotor_velocity_enable(LZ_Motor_ID_t motor_id) {
 1546              		.loc 1 263 55
 1547              		.cfi_startproc
 1548              		@ args = 0, pretend = 0, frame = 16
 1549              		@ frame_needed = 1, uses_anonymous_args = 0
 1550 0000 80B5     		push	{r7, lr}
 1551              	.LCFI39:
 1552              		.cfi_def_cfa_offset 8
 1553              		.cfi_offset 7, -8
 1554              		.cfi_offset 14, -4
 1555 0002 84B0     		sub	sp, sp, #16
 1556              	.LCFI40:
 1557              		.cfi_def_cfa_offset 24
 1558 0004 00AF     		add	r7, sp, #0
 1559              	.LCFI41:
 1560              		.cfi_def_cfa_register 7
 1561 0006 0346     		mov	r3, r0
 1562 0008 FB71     		strb	r3, [r7, #7]
 264:User/Hardware/motor.c ****     if (motor_id >= LZ_MOTOR_NUM) return;
 1563              		.loc 1 264 8
 1564 000a FB79     		ldrb	r3, [r7, #7]	@ zero_extendqisi2
 1565 000c 112B     		cmp	r3, #17
 1566 000e 47D8     		bhi	.L68
 265:User/Hardware/motor.c ****     
 266:User/Hardware/motor.c ****     uint8_t cantype = motor_id / 6; // ?????????can・
 1567              		.loc 1 266 13
 1568 0010 FB79     		ldrb	r3, [r7, #7]	@ zero_extendqisi2
 1569 0012 254A     		ldr	r2, .L69
 1570 0014 A2FB0323 		umull	r2, r3, r2, r3
 1571 0018 9B08     		lsrs	r3, r3, #2
 1572 001a FB73     		strb	r3, [r7, #15]
 267:User/Hardware/motor.c ****     uint8_t canid = motor_id % 6;   // ??????ID???
 1573              		.loc 1 267 13
 1574 001c FA79     		ldrb	r2, [r7, #7]	@ zero_extendqisi2
 1575 001e 224B     		ldr	r3, .L69
 1576 0020 A3FB0213 		umull	r1, r3, r3, r2
 1577 0024 9908     		lsrs	r1, r3, #2
 1578 0026 0B46     		mov	r3, r1
 1579 0028 5B00     		lsls	r3, r3, #1
 1580 002a 0B44     		add	r3, r3, r1
 1581 002c 5B00     		lsls	r3, r3, #1
 1582 002e D31A     		subs	r3, r2, r3
 1583 0030 BB73     		strb	r3, [r7, #14]
 268:User/Hardware/motor.c **** 
 269:User/Hardware/motor.c ****     lz_set_mode(cantype, LZ_Motors[cantype][canid].id, LZ_MODE_VELOCITY);
 1584              		.loc 1 269 5
 1585 0032 F97B     		ldrb	r1, [r7, #15]	@ zero_extendqisi2
ARM GAS  C:\Users\Godwin\AppData\Local\Temp\ccGpVFiP.s 			page 34


 1586 0034 BA7B     		ldrb	r2, [r7, #14]	@ zero_extendqisi2
 1587 0036 1D48     		ldr	r0, .L69+4
 1588 0038 1346     		mov	r3, r2
 1589 003a DB00     		lsls	r3, r3, #3
 1590 003c 1344     		add	r3, r3, r2
 1591 003e DB00     		lsls	r3, r3, #3
 1592 0040 4FF4D872 		mov	r2, #432
 1593 0044 01FB02F2 		mul	r2, r1, r2
 1594 0048 1344     		add	r3, r3, r2
 1595 004a 0344     		add	r3, r3, r0
 1596 004c 1978     		ldrb	r1, [r3]	@ zero_extendqisi2
 1597 004e FB7B     		ldrb	r3, [r7, #15]	@ zero_extendqisi2
 1598 0050 0222     		movs	r2, #2
 1599 0052 1846     		mov	r0, r3
 1600 0054 FFF7FEFF 		bl	lz_set_mode
 270:User/Hardware/motor.c ****     lz_enable_motor(cantype, LZ_Motors[cantype][canid].id);
 1601              		.loc 1 270 5
 1602 0058 F97B     		ldrb	r1, [r7, #15]	@ zero_extendqisi2
 1603 005a BA7B     		ldrb	r2, [r7, #14]	@ zero_extendqisi2
 1604 005c 1348     		ldr	r0, .L69+4
 1605 005e 1346     		mov	r3, r2
 1606 0060 DB00     		lsls	r3, r3, #3
 1607 0062 1344     		add	r3, r3, r2
 1608 0064 DB00     		lsls	r3, r3, #3
 1609 0066 4FF4D872 		mov	r2, #432
 1610 006a 01FB02F2 		mul	r2, r1, r2
 1611 006e 1344     		add	r3, r3, r2
 1612 0070 0344     		add	r3, r3, r0
 1613 0072 1A78     		ldrb	r2, [r3]	@ zero_extendqisi2
 1614 0074 FB7B     		ldrb	r3, [r7, #15]	@ zero_extendqisi2
 1615 0076 1146     		mov	r1, r2
 1616 0078 1846     		mov	r0, r3
 1617 007a FFF7FEFF 		bl	lz_enable_motor
 271:User/Hardware/motor.c ****   
 272:User/Hardware/motor.c ****     LZ_Motors[cantype][canid].mode = LZ_MODE_VELOCITY; // ???????????????
 1618              		.loc 1 272 30
 1619 007e F97B     		ldrb	r1, [r7, #15]	@ zero_extendqisi2
 1620 0080 BA7B     		ldrb	r2, [r7, #14]	@ zero_extendqisi2
 1621              		.loc 1 272 36
 1622 0082 0A48     		ldr	r0, .L69+4
 1623 0084 1346     		mov	r3, r2
 1624 0086 DB00     		lsls	r3, r3, #3
 1625 0088 1344     		add	r3, r3, r2
 1626 008a DB00     		lsls	r3, r3, #3
 1627 008c 4FF4D872 		mov	r2, #432
 1628 0090 01FB02F2 		mul	r2, r1, r2
 1629 0094 1344     		add	r3, r3, r2
 1630 0096 0344     		add	r3, r3, r0
 1631 0098 0233     		adds	r3, r3, #2
 1632 009a 0222     		movs	r2, #2
 1633 009c 1A70     		strb	r2, [r3]
 1634 009e 00E0     		b	.L65
 1635              	.L68:
 264:User/Hardware/motor.c ****     
 1636              		.loc 1 264 35
 1637 00a0 00BF     		nop
 1638              	.L65:
ARM GAS  C:\Users\Godwin\AppData\Local\Temp\ccGpVFiP.s 			page 35


 273:User/Hardware/motor.c **** 
 274:User/Hardware/motor.c **** }
 1639              		.loc 1 274 1
 1640 00a2 1037     		adds	r7, r7, #16
 1641              	.LCFI42:
 1642              		.cfi_def_cfa_offset 8
 1643 00a4 BD46     		mov	sp, r7
 1644              	.LCFI43:
 1645              		.cfi_def_cfa_register 13
 1646              		@ sp needed
 1647 00a6 80BD     		pop	{r7, pc}
 1648              	.L70:
 1649              		.align	2
 1650              	.L69:
 1651 00a8 ABAAAAAA 		.word	-1431655765
 1652 00ac 00000000 		.word	LZ_Motors
 1653              		.cfi_endproc
 1654              	.LFE151:
 1656              		.section	.text.LZMotor_position_enable,"ax",%progbits
 1657              		.align	1
 1658              		.global	LZMotor_position_enable
 1659              		.syntax unified
 1660              		.thumb
 1661              		.thumb_func
 1663              	LZMotor_position_enable:
 1664              	.LFB152:
 275:User/Hardware/motor.c **** 
 276:User/Hardware/motor.c **** void  LZMotor_position_enable(LZ_Motor_ID_t motor_id) {
 1665              		.loc 1 276 55
 1666              		.cfi_startproc
 1667              		@ args = 0, pretend = 0, frame = 16
 1668              		@ frame_needed = 1, uses_anonymous_args = 0
 1669 0000 80B5     		push	{r7, lr}
 1670              	.LCFI44:
 1671              		.cfi_def_cfa_offset 8
 1672              		.cfi_offset 7, -8
 1673              		.cfi_offset 14, -4
 1674 0002 84B0     		sub	sp, sp, #16
 1675              	.LCFI45:
 1676              		.cfi_def_cfa_offset 24
 1677 0004 00AF     		add	r7, sp, #0
 1678              	.LCFI46:
 1679              		.cfi_def_cfa_register 7
 1680 0006 0346     		mov	r3, r0
 1681 0008 FB71     		strb	r3, [r7, #7]
 277:User/Hardware/motor.c ****     if (motor_id >= LZ_MOTOR_NUM) return;
 1682              		.loc 1 277 8
 1683 000a FB79     		ldrb	r3, [r7, #7]	@ zero_extendqisi2
 1684 000c 112B     		cmp	r3, #17
 1685 000e 47D8     		bhi	.L74
 278:User/Hardware/motor.c ****     
 279:User/Hardware/motor.c ****     uint8_t cantype = motor_id / 6; // ?????????can・
 1686              		.loc 1 279 13
 1687 0010 FB79     		ldrb	r3, [r7, #7]	@ zero_extendqisi2
 1688 0012 254A     		ldr	r2, .L75
 1689 0014 A2FB0323 		umull	r2, r3, r2, r3
 1690 0018 9B08     		lsrs	r3, r3, #2
ARM GAS  C:\Users\Godwin\AppData\Local\Temp\ccGpVFiP.s 			page 36


 1691 001a FB73     		strb	r3, [r7, #15]
 280:User/Hardware/motor.c ****     uint8_t canid = motor_id % 6;   // ??????ID???
 1692              		.loc 1 280 13
 1693 001c FA79     		ldrb	r2, [r7, #7]	@ zero_extendqisi2
 1694 001e 224B     		ldr	r3, .L75
 1695 0020 A3FB0213 		umull	r1, r3, r3, r2
 1696 0024 9908     		lsrs	r1, r3, #2
 1697 0026 0B46     		mov	r3, r1
 1698 0028 5B00     		lsls	r3, r3, #1
 1699 002a 0B44     		add	r3, r3, r1
 1700 002c 5B00     		lsls	r3, r3, #1
 1701 002e D31A     		subs	r3, r2, r3
 1702 0030 BB73     		strb	r3, [r7, #14]
 281:User/Hardware/motor.c ****     
 282:User/Hardware/motor.c ****     lz_set_mode(cantype, LZ_Motors[cantype][canid].id, LZ_MODE_POSITION);
 1703              		.loc 1 282 5
 1704 0032 F97B     		ldrb	r1, [r7, #15]	@ zero_extendqisi2
 1705 0034 BA7B     		ldrb	r2, [r7, #14]	@ zero_extendqisi2
 1706 0036 1D48     		ldr	r0, .L75+4
 1707 0038 1346     		mov	r3, r2
 1708 003a DB00     		lsls	r3, r3, #3
 1709 003c 1344     		add	r3, r3, r2
 1710 003e DB00     		lsls	r3, r3, #3
 1711 0040 4FF4D872 		mov	r2, #432
 1712 0044 01FB02F2 		mul	r2, r1, r2
 1713 0048 1344     		add	r3, r3, r2
 1714 004a 0344     		add	r3, r3, r0
 1715 004c 1978     		ldrb	r1, [r3]	@ zero_extendqisi2
 1716 004e FB7B     		ldrb	r3, [r7, #15]	@ zero_extendqisi2
 1717 0050 0122     		movs	r2, #1
 1718 0052 1846     		mov	r0, r3
 1719 0054 FFF7FEFF 		bl	lz_set_mode
 283:User/Hardware/motor.c ****     lz_enable_motor(cantype, LZ_Motors[cantype][canid].id);
 1720              		.loc 1 283 5
 1721 0058 F97B     		ldrb	r1, [r7, #15]	@ zero_extendqisi2
 1722 005a BA7B     		ldrb	r2, [r7, #14]	@ zero_extendqisi2
 1723 005c 1348     		ldr	r0, .L75+4
 1724 005e 1346     		mov	r3, r2
 1725 0060 DB00     		lsls	r3, r3, #3
 1726 0062 1344     		add	r3, r3, r2
 1727 0064 DB00     		lsls	r3, r3, #3
 1728 0066 4FF4D872 		mov	r2, #432
 1729 006a 01FB02F2 		mul	r2, r1, r2
 1730 006e 1344     		add	r3, r3, r2
 1731 0070 0344     		add	r3, r3, r0
 1732 0072 1A78     		ldrb	r2, [r3]	@ zero_extendqisi2
 1733 0074 FB7B     		ldrb	r3, [r7, #15]	@ zero_extendqisi2
 1734 0076 1146     		mov	r1, r2
 1735 0078 1846     		mov	r0, r3
 1736 007a FFF7FEFF 		bl	lz_enable_motor
 284:User/Hardware/motor.c ****     LZ_Motors[cantype][canid].mode = LZ_MODE_POSITION; // ??????????λ????
 1737              		.loc 1 284 30
 1738 007e F97B     		ldrb	r1, [r7, #15]	@ zero_extendqisi2
 1739 0080 BA7B     		ldrb	r2, [r7, #14]	@ zero_extendqisi2
 1740              		.loc 1 284 36
 1741 0082 0A48     		ldr	r0, .L75+4
 1742 0084 1346     		mov	r3, r2
ARM GAS  C:\Users\Godwin\AppData\Local\Temp\ccGpVFiP.s 			page 37


 1743 0086 DB00     		lsls	r3, r3, #3
 1744 0088 1344     		add	r3, r3, r2
 1745 008a DB00     		lsls	r3, r3, #3
 1746 008c 4FF4D872 		mov	r2, #432
 1747 0090 01FB02F2 		mul	r2, r1, r2
 1748 0094 1344     		add	r3, r3, r2
 1749 0096 0344     		add	r3, r3, r0
 1750 0098 0233     		adds	r3, r3, #2
 1751 009a 0122     		movs	r2, #1
 1752 009c 1A70     		strb	r2, [r3]
 1753 009e 00E0     		b	.L71
 1754              	.L74:
 277:User/Hardware/motor.c ****     
 1755              		.loc 1 277 35
 1756 00a0 00BF     		nop
 1757              	.L71:
 285:User/Hardware/motor.c **** }
 1758              		.loc 1 285 1
 1759 00a2 1037     		adds	r7, r7, #16
 1760              	.LCFI47:
 1761              		.cfi_def_cfa_offset 8
 1762 00a4 BD46     		mov	sp, r7
 1763              	.LCFI48:
 1764              		.cfi_def_cfa_register 13
 1765              		@ sp needed
 1766 00a6 80BD     		pop	{r7, pc}
 1767              	.L76:
 1768              		.align	2
 1769              	.L75:
 1770 00a8 ABAAAAAA 		.word	-1431655765
 1771 00ac 00000000 		.word	LZ_Motors
 1772              		.cfi_endproc
 1773              	.LFE152:
 1775              		.section	.text.LZMotor_disable,"ax",%progbits
 1776              		.align	1
 1777              		.global	LZMotor_disable
 1778              		.syntax unified
 1779              		.thumb
 1780              		.thumb_func
 1782              	LZMotor_disable:
 1783              	.LFB153:
 286:User/Hardware/motor.c **** /**
 287:User/Hardware/motor.c ****  * @brief ?????????
 288:User/Hardware/motor.c ****  */
 289:User/Hardware/motor.c **** void LZMotor_disable(LZ_Motor_ID_t motor_id) {
 1784              		.loc 1 289 46
 1785              		.cfi_startproc
 1786              		@ args = 0, pretend = 0, frame = 16
 1787              		@ frame_needed = 1, uses_anonymous_args = 0
 1788 0000 80B5     		push	{r7, lr}
 1789              	.LCFI49:
 1790              		.cfi_def_cfa_offset 8
 1791              		.cfi_offset 7, -8
 1792              		.cfi_offset 14, -4
 1793 0002 84B0     		sub	sp, sp, #16
 1794              	.LCFI50:
 1795              		.cfi_def_cfa_offset 24
ARM GAS  C:\Users\Godwin\AppData\Local\Temp\ccGpVFiP.s 			page 38


 1796 0004 00AF     		add	r7, sp, #0
 1797              	.LCFI51:
 1798              		.cfi_def_cfa_register 7
 1799 0006 0346     		mov	r3, r0
 1800 0008 FB71     		strb	r3, [r7, #7]
 290:User/Hardware/motor.c ****     if (motor_id >= LZ_MOTOR_NUM) return;
 1801              		.loc 1 290 8
 1802 000a FB79     		ldrb	r3, [r7, #7]	@ zero_extendqisi2
 1803 000c 112B     		cmp	r3, #17
 1804 000e 34D8     		bhi	.L80
 291:User/Hardware/motor.c ****     
 292:User/Hardware/motor.c ****     uint8_t cantype = motor_id / 6; // ?????????can・
 1805              		.loc 1 292 13
 1806 0010 FB79     		ldrb	r3, [r7, #7]	@ zero_extendqisi2
 1807 0012 1C4A     		ldr	r2, .L81
 1808 0014 A2FB0323 		umull	r2, r3, r2, r3
 1809 0018 9B08     		lsrs	r3, r3, #2
 1810 001a FB73     		strb	r3, [r7, #15]
 293:User/Hardware/motor.c ****     uint8_t canid = motor_id % 6;   // ??????ID???
 1811              		.loc 1 293 13
 1812 001c FA79     		ldrb	r2, [r7, #7]	@ zero_extendqisi2
 1813 001e 194B     		ldr	r3, .L81
 1814 0020 A3FB0213 		umull	r1, r3, r3, r2
 1815 0024 9908     		lsrs	r1, r3, #2
 1816 0026 0B46     		mov	r3, r1
 1817 0028 5B00     		lsls	r3, r3, #1
 1818 002a 0B44     		add	r3, r3, r1
 1819 002c 5B00     		lsls	r3, r3, #1
 1820 002e D31A     		subs	r3, r2, r3
 1821 0030 BB73     		strb	r3, [r7, #14]
 294:User/Hardware/motor.c ****     
 295:User/Hardware/motor.c ****     lz_disable_motor(cantype, LZ_Motors[cantype][canid].id);
 1822              		.loc 1 295 5
 1823 0032 F97B     		ldrb	r1, [r7, #15]	@ zero_extendqisi2
 1824 0034 BA7B     		ldrb	r2, [r7, #14]	@ zero_extendqisi2
 1825 0036 1448     		ldr	r0, .L81+4
 1826 0038 1346     		mov	r3, r2
 1827 003a DB00     		lsls	r3, r3, #3
 1828 003c 1344     		add	r3, r3, r2
 1829 003e DB00     		lsls	r3, r3, #3
 1830 0040 4FF4D872 		mov	r2, #432
 1831 0044 01FB02F2 		mul	r2, r1, r2
 1832 0048 1344     		add	r3, r3, r2
 1833 004a 0344     		add	r3, r3, r0
 1834 004c 1A78     		ldrb	r2, [r3]	@ zero_extendqisi2
 1835 004e FB7B     		ldrb	r3, [r7, #15]	@ zero_extendqisi2
 1836 0050 1146     		mov	r1, r2
 1837 0052 1846     		mov	r0, r3
 1838 0054 FFF7FEFF 		bl	lz_disable_motor
 296:User/Hardware/motor.c ****     LZ_Motors[cantype][canid].mode = LZ_MODE_DISABLE;
 1839              		.loc 1 296 30
 1840 0058 F97B     		ldrb	r1, [r7, #15]	@ zero_extendqisi2
 1841 005a BA7B     		ldrb	r2, [r7, #14]	@ zero_extendqisi2
 1842              		.loc 1 296 36
 1843 005c 0A48     		ldr	r0, .L81+4
 1844 005e 1346     		mov	r3, r2
 1845 0060 DB00     		lsls	r3, r3, #3
ARM GAS  C:\Users\Godwin\AppData\Local\Temp\ccGpVFiP.s 			page 39


 1846 0062 1344     		add	r3, r3, r2
 1847 0064 DB00     		lsls	r3, r3, #3
 1848 0066 4FF4D872 		mov	r2, #432
 1849 006a 01FB02F2 		mul	r2, r1, r2
 1850 006e 1344     		add	r3, r3, r2
 1851 0070 0344     		add	r3, r3, r0
 1852 0072 0233     		adds	r3, r3, #2
 1853 0074 0422     		movs	r2, #4
 1854 0076 1A70     		strb	r2, [r3]
 1855 0078 00E0     		b	.L77
 1856              	.L80:
 290:User/Hardware/motor.c ****     
 1857              		.loc 1 290 35
 1858 007a 00BF     		nop
 1859              	.L77:
 297:User/Hardware/motor.c **** }
 1860              		.loc 1 297 1
 1861 007c 1037     		adds	r7, r7, #16
 1862              	.LCFI52:
 1863              		.cfi_def_cfa_offset 8
 1864 007e BD46     		mov	sp, r7
 1865              	.LCFI53:
 1866              		.cfi_def_cfa_register 13
 1867              		@ sp needed
 1868 0080 80BD     		pop	{r7, pc}
 1869              	.L82:
 1870 0082 00BF     		.align	2
 1871              	.L81:
 1872 0084 ABAAAAAA 		.word	-1431655765
 1873 0088 00000000 		.word	LZ_Motors
 1874              		.cfi_endproc
 1875              	.LFE153:
 1877              		.section	.text.LZMotor_velocity_init,"ax",%progbits
 1878              		.align	1
 1879              		.global	LZMotor_velocity_init
 1880              		.syntax unified
 1881              		.thumb
 1882              		.thumb_func
 1884              	LZMotor_velocity_init:
 1885              	.LFB154:
 298:User/Hardware/motor.c **** 
 299:User/Hardware/motor.c **** /**
 300:User/Hardware/motor.c ****  * @brief ???????????
 301:User/Hardware/motor.c ****  */
 302:User/Hardware/motor.c **** void LZMotor_velocity_init(LZ_Motor_ID_t motor_id) {
 1886              		.loc 1 302 52
 1887              		.cfi_startproc
 1888              		@ args = 0, pretend = 0, frame = 16
 1889              		@ frame_needed = 1, uses_anonymous_args = 0
 1890 0000 90B5     		push	{r4, r7, lr}
 1891              	.LCFI54:
 1892              		.cfi_def_cfa_offset 12
 1893              		.cfi_offset 4, -12
 1894              		.cfi_offset 7, -8
 1895              		.cfi_offset 14, -4
 1896 0002 85B0     		sub	sp, sp, #20
 1897              	.LCFI55:
ARM GAS  C:\Users\Godwin\AppData\Local\Temp\ccGpVFiP.s 			page 40


 1898              		.cfi_def_cfa_offset 32
 1899 0004 00AF     		add	r7, sp, #0
 1900              	.LCFI56:
 1901              		.cfi_def_cfa_register 7
 1902 0006 0346     		mov	r3, r0
 1903 0008 FB71     		strb	r3, [r7, #7]
 303:User/Hardware/motor.c ****     if (motor_id >= LZ_MOTOR_NUM) return;
 1904              		.loc 1 303 8
 1905 000a FB79     		ldrb	r3, [r7, #7]	@ zero_extendqisi2
 1906 000c 112B     		cmp	r3, #17
 1907 000e 5CD8     		bhi	.L86
 304:User/Hardware/motor.c **** 
 305:User/Hardware/motor.c ****     uint8_t cantype = motor_id / 6; // ?????????can・
 1908              		.loc 1 305 13
 1909 0010 FB79     		ldrb	r3, [r7, #7]	@ zero_extendqisi2
 1910 0012 304A     		ldr	r2, .L87
 1911 0014 A2FB0323 		umull	r2, r3, r2, r3
 1912 0018 9B08     		lsrs	r3, r3, #2
 1913 001a FB73     		strb	r3, [r7, #15]
 306:User/Hardware/motor.c ****     uint8_t canid = motor_id % 6;   // ??????ID???
 1914              		.loc 1 306 13
 1915 001c FA79     		ldrb	r2, [r7, #7]	@ zero_extendqisi2
 1916 001e 2D4B     		ldr	r3, .L87
 1917 0020 A3FB0213 		umull	r1, r3, r3, r2
 1918 0024 9908     		lsrs	r1, r3, #2
 1919 0026 0B46     		mov	r3, r1
 1920 0028 5B00     		lsls	r3, r3, #1
 1921 002a 0B44     		add	r3, r3, r1
 1922 002c 5B00     		lsls	r3, r3, #1
 1923 002e D31A     		subs	r3, r2, r3
 1924 0030 BB73     		strb	r3, [r7, #14]
 307:User/Hardware/motor.c **** 
 308:User/Hardware/motor.c ****     memset(&LZ_Motors[cantype][canid], 0, sizeof(LZ_Motor_t));
 1925              		.loc 1 308 31
 1926 0032 F97B     		ldrb	r1, [r7, #15]	@ zero_extendqisi2
 1927 0034 BA7B     		ldrb	r2, [r7, #14]	@ zero_extendqisi2
 1928              		.loc 1 308 12
 1929 0036 1346     		mov	r3, r2
 1930 0038 DB00     		lsls	r3, r3, #3
 1931 003a 1344     		add	r3, r3, r2
 1932 003c DB00     		lsls	r3, r3, #3
 1933 003e 4FF4D872 		mov	r2, #432
 1934 0042 01FB02F2 		mul	r2, r1, r2
 1935 0046 1344     		add	r3, r3, r2
 1936 0048 234A     		ldr	r2, .L87+4
 1937 004a 1344     		add	r3, r3, r2
 1938              		.loc 1 308 5
 1939 004c 4822     		movs	r2, #72
 1940 004e 0021     		movs	r1, #0
 1941 0050 1846     		mov	r0, r3
 1942 0052 FFF7FEFF 		bl	memset
 309:User/Hardware/motor.c ****     
 310:User/Hardware/motor.c ****     // ???????ID
 311:User/Hardware/motor.c ****     LZ_Motors[cantype][canid].id = canid + 1;
 1943              		.loc 1 311 30
 1944 0056 F97B     		ldrb	r1, [r7, #15]	@ zero_extendqisi2
 1945 0058 BA7B     		ldrb	r2, [r7, #14]	@ zero_extendqisi2
ARM GAS  C:\Users\Godwin\AppData\Local\Temp\ccGpVFiP.s 			page 41


 1946              		.loc 1 311 42
 1947 005a BB7B     		ldrb	r3, [r7, #14]
 1948 005c 0133     		adds	r3, r3, #1
 1949 005e DCB2     		uxtb	r4, r3
 1950              		.loc 1 311 34
 1951 0060 1D48     		ldr	r0, .L87+4
 1952 0062 1346     		mov	r3, r2
 1953 0064 DB00     		lsls	r3, r3, #3
 1954 0066 1344     		add	r3, r3, r2
 1955 0068 DB00     		lsls	r3, r3, #3
 1956 006a 4FF4D872 		mov	r2, #432
 1957 006e 01FB02F2 		mul	r2, r1, r2
 1958 0072 1344     		add	r3, r3, r2
 1959 0074 0344     		add	r3, r3, r0
 1960 0076 2246     		mov	r2, r4
 1961 0078 1A70     		strb	r2, [r3]
 312:User/Hardware/motor.c ****     LZ_Motors[cantype][canid].master_id = canid + 1;
 1962              		.loc 1 312 30
 1963 007a F97B     		ldrb	r1, [r7, #15]	@ zero_extendqisi2
 1964 007c BA7B     		ldrb	r2, [r7, #14]	@ zero_extendqisi2
 1965              		.loc 1 312 49
 1966 007e BB7B     		ldrb	r3, [r7, #14]
 1967 0080 0133     		adds	r3, r3, #1
 1968 0082 DCB2     		uxtb	r4, r3
 1969              		.loc 1 312 41
 1970 0084 1448     		ldr	r0, .L87+4
 1971 0086 1346     		mov	r3, r2
 1972 0088 DB00     		lsls	r3, r3, #3
 1973 008a 1344     		add	r3, r3, r2
 1974 008c DB00     		lsls	r3, r3, #3
 1975 008e 4FF4D872 		mov	r2, #432
 1976 0092 01FB02F2 		mul	r2, r1, r2
 1977 0096 1344     		add	r3, r3, r2
 1978 0098 0344     		add	r3, r3, r0
 1979 009a 0133     		adds	r3, r3, #1
 1980 009c 2246     		mov	r2, r4
 1981 009e 1A70     		strb	r2, [r3]
 313:User/Hardware/motor.c ****     LZ_Motors[cantype][canid].mode = LZ_MODE_VELOCITY;
 1982              		.loc 1 313 30
 1983 00a0 F97B     		ldrb	r1, [r7, #15]	@ zero_extendqisi2
 1984 00a2 BA7B     		ldrb	r2, [r7, #14]	@ zero_extendqisi2
 1985              		.loc 1 313 36
 1986 00a4 0C48     		ldr	r0, .L87+4
 1987 00a6 1346     		mov	r3, r2
 1988 00a8 DB00     		lsls	r3, r3, #3
 1989 00aa 1344     		add	r3, r3, r2
 1990 00ac DB00     		lsls	r3, r3, #3
 1991 00ae 4FF4D872 		mov	r2, #432
 1992 00b2 01FB02F2 		mul	r2, r1, r2
 1993 00b6 1344     		add	r3, r3, r2
 1994 00b8 0344     		add	r3, r3, r0
 1995 00ba 0233     		adds	r3, r3, #2
 1996 00bc 0222     		movs	r2, #2
 1997 00be 1A70     		strb	r2, [r3]
 314:User/Hardware/motor.c **** 
 315:User/Hardware/motor.c ****     // ?????
 316:User/Hardware/motor.c ****     LZMotor_velocity_enable(motor_id);
ARM GAS  C:\Users\Godwin\AppData\Local\Temp\ccGpVFiP.s 			page 42


 1998              		.loc 1 316 5
 1999 00c0 FB79     		ldrb	r3, [r7, #7]	@ zero_extendqisi2
 2000 00c2 1846     		mov	r0, r3
 2001 00c4 FFF7FEFF 		bl	LZMotor_velocity_enable
 2002 00c8 00E0     		b	.L83
 2003              	.L86:
 303:User/Hardware/motor.c **** 
 2004              		.loc 1 303 35
 2005 00ca 00BF     		nop
 2006              	.L83:
 317:User/Hardware/motor.c **** }
 2007              		.loc 1 317 1
 2008 00cc 1437     		adds	r7, r7, #20
 2009              	.LCFI57:
 2010              		.cfi_def_cfa_offset 12
 2011 00ce BD46     		mov	sp, r7
 2012              	.LCFI58:
 2013              		.cfi_def_cfa_register 13
 2014              		@ sp needed
 2015 00d0 90BD     		pop	{r4, r7, pc}
 2016              	.L88:
 2017 00d2 00BF     		.align	2
 2018              	.L87:
 2019 00d4 ABAAAAAA 		.word	-1431655765
 2020 00d8 00000000 		.word	LZ_Motors
 2021              		.cfi_endproc
 2022              	.LFE154:
 2024              		.section	.text.LZMotor_position_init,"ax",%progbits
 2025              		.align	1
 2026              		.global	LZMotor_position_init
 2027              		.syntax unified
 2028              		.thumb
 2029              		.thumb_func
 2031              	LZMotor_position_init:
 2032              	.LFB155:
 318:User/Hardware/motor.c **** void LZMotor_position_init(LZ_Motor_ID_t motor_id) {
 2033              		.loc 1 318 52
 2034              		.cfi_startproc
 2035              		@ args = 0, pretend = 0, frame = 16
 2036              		@ frame_needed = 1, uses_anonymous_args = 0
 2037 0000 90B5     		push	{r4, r7, lr}
 2038              	.LCFI59:
 2039              		.cfi_def_cfa_offset 12
 2040              		.cfi_offset 4, -12
 2041              		.cfi_offset 7, -8
 2042              		.cfi_offset 14, -4
 2043 0002 85B0     		sub	sp, sp, #20
 2044              	.LCFI60:
 2045              		.cfi_def_cfa_offset 32
 2046 0004 00AF     		add	r7, sp, #0
 2047              	.LCFI61:
 2048              		.cfi_def_cfa_register 7
 2049 0006 0346     		mov	r3, r0
 2050 0008 FB71     		strb	r3, [r7, #7]
 319:User/Hardware/motor.c ****     if (motor_id >= LZ_MOTOR_NUM) return;
 2051              		.loc 1 319 8
 2052 000a FB79     		ldrb	r3, [r7, #7]	@ zero_extendqisi2
ARM GAS  C:\Users\Godwin\AppData\Local\Temp\ccGpVFiP.s 			page 43


 2053 000c 112B     		cmp	r3, #17
 2054 000e 5CD8     		bhi	.L92
 320:User/Hardware/motor.c **** 
 321:User/Hardware/motor.c ****     uint8_t cantype = motor_id / 6; // ?????????can・
 2055              		.loc 1 321 13
 2056 0010 FB79     		ldrb	r3, [r7, #7]	@ zero_extendqisi2
 2057 0012 304A     		ldr	r2, .L93
 2058 0014 A2FB0323 		umull	r2, r3, r2, r3
 2059 0018 9B08     		lsrs	r3, r3, #2
 2060 001a FB73     		strb	r3, [r7, #15]
 322:User/Hardware/motor.c ****     uint8_t canid = motor_id % 6;   // ??????ID???
 2061              		.loc 1 322 13
 2062 001c FA79     		ldrb	r2, [r7, #7]	@ zero_extendqisi2
 2063 001e 2D4B     		ldr	r3, .L93
 2064 0020 A3FB0213 		umull	r1, r3, r3, r2
 2065 0024 9908     		lsrs	r1, r3, #2
 2066 0026 0B46     		mov	r3, r1
 2067 0028 5B00     		lsls	r3, r3, #1
 2068 002a 0B44     		add	r3, r3, r1
 2069 002c 5B00     		lsls	r3, r3, #1
 2070 002e D31A     		subs	r3, r2, r3
 2071 0030 BB73     		strb	r3, [r7, #14]
 323:User/Hardware/motor.c **** 
 324:User/Hardware/motor.c ****     memset(&LZ_Motors[cantype][canid], 0, sizeof(LZ_Motor_t));
 2072              		.loc 1 324 31
 2073 0032 F97B     		ldrb	r1, [r7, #15]	@ zero_extendqisi2
 2074 0034 BA7B     		ldrb	r2, [r7, #14]	@ zero_extendqisi2
 2075              		.loc 1 324 12
 2076 0036 1346     		mov	r3, r2
 2077 0038 DB00     		lsls	r3, r3, #3
 2078 003a 1344     		add	r3, r3, r2
 2079 003c DB00     		lsls	r3, r3, #3
 2080 003e 4FF4D872 		mov	r2, #432
 2081 0042 01FB02F2 		mul	r2, r1, r2
 2082 0046 1344     		add	r3, r3, r2
 2083 0048 234A     		ldr	r2, .L93+4
 2084 004a 1344     		add	r3, r3, r2
 2085              		.loc 1 324 5
 2086 004c 4822     		movs	r2, #72
 2087 004e 0021     		movs	r1, #0
 2088 0050 1846     		mov	r0, r3
 2089 0052 FFF7FEFF 		bl	memset
 325:User/Hardware/motor.c ****     
 326:User/Hardware/motor.c ****     // ???????ID
 327:User/Hardware/motor.c ****     LZ_Motors[cantype][canid].id = canid + 1;
 2090              		.loc 1 327 30
 2091 0056 F97B     		ldrb	r1, [r7, #15]	@ zero_extendqisi2
 2092 0058 BA7B     		ldrb	r2, [r7, #14]	@ zero_extendqisi2
 2093              		.loc 1 327 42
 2094 005a BB7B     		ldrb	r3, [r7, #14]
 2095 005c 0133     		adds	r3, r3, #1
 2096 005e DCB2     		uxtb	r4, r3
 2097              		.loc 1 327 34
 2098 0060 1D48     		ldr	r0, .L93+4
 2099 0062 1346     		mov	r3, r2
 2100 0064 DB00     		lsls	r3, r3, #3
 2101 0066 1344     		add	r3, r3, r2
ARM GAS  C:\Users\Godwin\AppData\Local\Temp\ccGpVFiP.s 			page 44


 2102 0068 DB00     		lsls	r3, r3, #3
 2103 006a 4FF4D872 		mov	r2, #432
 2104 006e 01FB02F2 		mul	r2, r1, r2
 2105 0072 1344     		add	r3, r3, r2
 2106 0074 0344     		add	r3, r3, r0
 2107 0076 2246     		mov	r2, r4
 2108 0078 1A70     		strb	r2, [r3]
 328:User/Hardware/motor.c ****     LZ_Motors[cantype][canid].master_id = canid + 1;
 2109              		.loc 1 328 30
 2110 007a F97B     		ldrb	r1, [r7, #15]	@ zero_extendqisi2
 2111 007c BA7B     		ldrb	r2, [r7, #14]	@ zero_extendqisi2
 2112              		.loc 1 328 49
 2113 007e BB7B     		ldrb	r3, [r7, #14]
 2114 0080 0133     		adds	r3, r3, #1
 2115 0082 DCB2     		uxtb	r4, r3
 2116              		.loc 1 328 41
 2117 0084 1448     		ldr	r0, .L93+4
 2118 0086 1346     		mov	r3, r2
 2119 0088 DB00     		lsls	r3, r3, #3
 2120 008a 1344     		add	r3, r3, r2
 2121 008c DB00     		lsls	r3, r3, #3
 2122 008e 4FF4D872 		mov	r2, #432
 2123 0092 01FB02F2 		mul	r2, r1, r2
 2124 0096 1344     		add	r3, r3, r2
 2125 0098 0344     		add	r3, r3, r0
 2126 009a 0133     		adds	r3, r3, #1
 2127 009c 2246     		mov	r2, r4
 2128 009e 1A70     		strb	r2, [r3]
 329:User/Hardware/motor.c ****     LZ_Motors[cantype][canid].mode = LZ_MODE_POSITION;
 2129              		.loc 1 329 30
 2130 00a0 F97B     		ldrb	r1, [r7, #15]	@ zero_extendqisi2
 2131 00a2 BA7B     		ldrb	r2, [r7, #14]	@ zero_extendqisi2
 2132              		.loc 1 329 36
 2133 00a4 0C48     		ldr	r0, .L93+4
 2134 00a6 1346     		mov	r3, r2
 2135 00a8 DB00     		lsls	r3, r3, #3
 2136 00aa 1344     		add	r3, r3, r2
 2137 00ac DB00     		lsls	r3, r3, #3
 2138 00ae 4FF4D872 		mov	r2, #432
 2139 00b2 01FB02F2 		mul	r2, r1, r2
 2140 00b6 1344     		add	r3, r3, r2
 2141 00b8 0344     		add	r3, r3, r0
 2142 00ba 0233     		adds	r3, r3, #2
 2143 00bc 0122     		movs	r2, #1
 2144 00be 1A70     		strb	r2, [r3]
 330:User/Hardware/motor.c **** 
 331:User/Hardware/motor.c ****     // ?????
 332:User/Hardware/motor.c ****     LZMotor_position_enable(motor_id);
 2145              		.loc 1 332 5
 2146 00c0 FB79     		ldrb	r3, [r7, #7]	@ zero_extendqisi2
 2147 00c2 1846     		mov	r0, r3
 2148 00c4 FFF7FEFF 		bl	LZMotor_position_enable
 2149 00c8 00E0     		b	.L89
 2150              	.L92:
 319:User/Hardware/motor.c **** 
 2151              		.loc 1 319 35
 2152 00ca 00BF     		nop
ARM GAS  C:\Users\Godwin\AppData\Local\Temp\ccGpVFiP.s 			page 45


 2153              	.L89:
 333:User/Hardware/motor.c **** }
 2154              		.loc 1 333 1
 2155 00cc 1437     		adds	r7, r7, #20
 2156              	.LCFI62:
 2157              		.cfi_def_cfa_offset 12
 2158 00ce BD46     		mov	sp, r7
 2159              	.LCFI63:
 2160              		.cfi_def_cfa_register 13
 2161              		@ sp needed
 2162 00d0 90BD     		pop	{r4, r7, pc}
 2163              	.L94:
 2164 00d2 00BF     		.align	2
 2165              	.L93:
 2166 00d4 ABAAAAAA 		.word	-1431655765
 2167 00d8 00000000 		.word	LZ_Motors
 2168              		.cfi_endproc
 2169              	.LFE155:
 2171              		.section	.text.LZMotor_init,"ax",%progbits
 2172              		.align	1
 2173              		.global	LZMotor_init
 2174              		.syntax unified
 2175              		.thumb
 2176              		.thumb_func
 2178              	LZMotor_init:
 2179              	.LFB156:
 334:User/Hardware/motor.c **** void LZMotor_init(LZ_Motor_ID_t motor_id) {
 2180              		.loc 1 334 43
 2181              		.cfi_startproc
 2182              		@ args = 0, pretend = 0, frame = 16
 2183              		@ frame_needed = 1, uses_anonymous_args = 0
 2184 0000 90B5     		push	{r4, r7, lr}
 2185              	.LCFI64:
 2186              		.cfi_def_cfa_offset 12
 2187              		.cfi_offset 4, -12
 2188              		.cfi_offset 7, -8
 2189              		.cfi_offset 14, -4
 2190 0002 85B0     		sub	sp, sp, #20
 2191              	.LCFI65:
 2192              		.cfi_def_cfa_offset 32
 2193 0004 00AF     		add	r7, sp, #0
 2194              	.LCFI66:
 2195              		.cfi_def_cfa_register 7
 2196 0006 0346     		mov	r3, r0
 2197 0008 FB71     		strb	r3, [r7, #7]
 335:User/Hardware/motor.c ****     if (motor_id >= LZ_MOTOR_NUM) return;
 2198              		.loc 1 335 8
 2199 000a FB79     		ldrb	r3, [r7, #7]	@ zero_extendqisi2
 2200 000c 112B     		cmp	r3, #17
 2201 000e 5CD8     		bhi	.L98
 336:User/Hardware/motor.c **** 
 337:User/Hardware/motor.c ****     uint8_t cantype = motor_id / 6; // ?????????can・
 2202              		.loc 1 337 13
 2203 0010 FB79     		ldrb	r3, [r7, #7]	@ zero_extendqisi2
 2204 0012 304A     		ldr	r2, .L99
 2205 0014 A2FB0323 		umull	r2, r3, r2, r3
 2206 0018 9B08     		lsrs	r3, r3, #2
ARM GAS  C:\Users\Godwin\AppData\Local\Temp\ccGpVFiP.s 			page 46


 2207 001a FB73     		strb	r3, [r7, #15]
 338:User/Hardware/motor.c ****     uint8_t canid = motor_id % 6;   // ??????ID???
 2208              		.loc 1 338 13
 2209 001c FA79     		ldrb	r2, [r7, #7]	@ zero_extendqisi2
 2210 001e 2D4B     		ldr	r3, .L99
 2211 0020 A3FB0213 		umull	r1, r3, r3, r2
 2212 0024 9908     		lsrs	r1, r3, #2
 2213 0026 0B46     		mov	r3, r1
 2214 0028 5B00     		lsls	r3, r3, #1
 2215 002a 0B44     		add	r3, r3, r1
 2216 002c 5B00     		lsls	r3, r3, #1
 2217 002e D31A     		subs	r3, r2, r3
 2218 0030 BB73     		strb	r3, [r7, #14]
 339:User/Hardware/motor.c **** 
 340:User/Hardware/motor.c ****     memset(&LZ_Motors[cantype][canid], 0, sizeof(LZ_Motor_t));
 2219              		.loc 1 340 31
 2220 0032 F97B     		ldrb	r1, [r7, #15]	@ zero_extendqisi2
 2221 0034 BA7B     		ldrb	r2, [r7, #14]	@ zero_extendqisi2
 2222              		.loc 1 340 12
 2223 0036 1346     		mov	r3, r2
 2224 0038 DB00     		lsls	r3, r3, #3
 2225 003a 1344     		add	r3, r3, r2
 2226 003c DB00     		lsls	r3, r3, #3
 2227 003e 4FF4D872 		mov	r2, #432
 2228 0042 01FB02F2 		mul	r2, r1, r2
 2229 0046 1344     		add	r3, r3, r2
 2230 0048 234A     		ldr	r2, .L99+4
 2231 004a 1344     		add	r3, r3, r2
 2232              		.loc 1 340 5
 2233 004c 4822     		movs	r2, #72
 2234 004e 0021     		movs	r1, #0
 2235 0050 1846     		mov	r0, r3
 2236 0052 FFF7FEFF 		bl	memset
 341:User/Hardware/motor.c ****     
 342:User/Hardware/motor.c ****     // ???????ID
 343:User/Hardware/motor.c ****     LZ_Motors[cantype][canid].id = canid + 1;
 2237              		.loc 1 343 30
 2238 0056 F97B     		ldrb	r1, [r7, #15]	@ zero_extendqisi2
 2239 0058 BA7B     		ldrb	r2, [r7, #14]	@ zero_extendqisi2
 2240              		.loc 1 343 42
 2241 005a BB7B     		ldrb	r3, [r7, #14]
 2242 005c 0133     		adds	r3, r3, #1
 2243 005e DCB2     		uxtb	r4, r3
 2244              		.loc 1 343 34
 2245 0060 1D48     		ldr	r0, .L99+4
 2246 0062 1346     		mov	r3, r2
 2247 0064 DB00     		lsls	r3, r3, #3
 2248 0066 1344     		add	r3, r3, r2
 2249 0068 DB00     		lsls	r3, r3, #3
 2250 006a 4FF4D872 		mov	r2, #432
 2251 006e 01FB02F2 		mul	r2, r1, r2
 2252 0072 1344     		add	r3, r3, r2
 2253 0074 0344     		add	r3, r3, r0
 2254 0076 2246     		mov	r2, r4
 2255 0078 1A70     		strb	r2, [r3]
 344:User/Hardware/motor.c ****     LZ_Motors[cantype][canid].master_id = canid + 1;
 2256              		.loc 1 344 30
ARM GAS  C:\Users\Godwin\AppData\Local\Temp\ccGpVFiP.s 			page 47


 2257 007a F97B     		ldrb	r1, [r7, #15]	@ zero_extendqisi2
 2258 007c BA7B     		ldrb	r2, [r7, #14]	@ zero_extendqisi2
 2259              		.loc 1 344 49
 2260 007e BB7B     		ldrb	r3, [r7, #14]
 2261 0080 0133     		adds	r3, r3, #1
 2262 0082 DCB2     		uxtb	r4, r3
 2263              		.loc 1 344 41
 2264 0084 1448     		ldr	r0, .L99+4
 2265 0086 1346     		mov	r3, r2
 2266 0088 DB00     		lsls	r3, r3, #3
 2267 008a 1344     		add	r3, r3, r2
 2268 008c DB00     		lsls	r3, r3, #3
 2269 008e 4FF4D872 		mov	r2, #432
 2270 0092 01FB02F2 		mul	r2, r1, r2
 2271 0096 1344     		add	r3, r3, r2
 2272 0098 0344     		add	r3, r3, r0
 2273 009a 0133     		adds	r3, r3, #1
 2274 009c 2246     		mov	r2, r4
 2275 009e 1A70     		strb	r2, [r3]
 345:User/Hardware/motor.c ****     LZ_Motors[cantype][canid].mode = LZ_MODE_MIT;
 2276              		.loc 1 345 30
 2277 00a0 F97B     		ldrb	r1, [r7, #15]	@ zero_extendqisi2
 2278 00a2 BA7B     		ldrb	r2, [r7, #14]	@ zero_extendqisi2
 2279              		.loc 1 345 36
 2280 00a4 0C48     		ldr	r0, .L99+4
 2281 00a6 1346     		mov	r3, r2
 2282 00a8 DB00     		lsls	r3, r3, #3
 2283 00aa 1344     		add	r3, r3, r2
 2284 00ac DB00     		lsls	r3, r3, #3
 2285 00ae 4FF4D872 		mov	r2, #432
 2286 00b2 01FB02F2 		mul	r2, r1, r2
 2287 00b6 1344     		add	r3, r3, r2
 2288 00b8 0344     		add	r3, r3, r0
 2289 00ba 0233     		adds	r3, r3, #2
 2290 00bc 0022     		movs	r2, #0
 2291 00be 1A70     		strb	r2, [r3]
 346:User/Hardware/motor.c **** 
 347:User/Hardware/motor.c ****     // ?????
 348:User/Hardware/motor.c ****     LZMotor_velocity_enable(motor_id);
 2292              		.loc 1 348 5
 2293 00c0 FB79     		ldrb	r3, [r7, #7]	@ zero_extendqisi2
 2294 00c2 1846     		mov	r0, r3
 2295 00c4 FFF7FEFF 		bl	LZMotor_velocity_enable
 2296 00c8 00E0     		b	.L95
 2297              	.L98:
 335:User/Hardware/motor.c **** 
 2298              		.loc 1 335 35
 2299 00ca 00BF     		nop
 2300              	.L95:
 349:User/Hardware/motor.c **** }
 2301              		.loc 1 349 1
 2302 00cc 1437     		adds	r7, r7, #20
 2303              	.LCFI67:
 2304              		.cfi_def_cfa_offset 12
 2305 00ce BD46     		mov	sp, r7
 2306              	.LCFI68:
 2307              		.cfi_def_cfa_register 13
ARM GAS  C:\Users\Godwin\AppData\Local\Temp\ccGpVFiP.s 			page 48


 2308              		@ sp needed
 2309 00d0 90BD     		pop	{r4, r7, pc}
 2310              	.L100:
 2311 00d2 00BF     		.align	2
 2312              	.L99:
 2313 00d4 ABAAAAAA 		.word	-1431655765
 2314 00d8 00000000 		.word	LZ_Motors
 2315              		.cfi_endproc
 2316              	.LFE156:
 2318              		.section	.text.LZMotor_set_params,"ax",%progbits
 2319              		.align	1
 2320              		.global	LZMotor_set_params
 2321              		.syntax unified
 2322              		.thumb
 2323              		.thumb_func
 2325              	LZMotor_set_params:
 2326              	.LFB157:
 350:User/Hardware/motor.c **** 
 351:User/Hardware/motor.c **** /**
 352:User/Hardware/motor.c ****  * @brief ?????????????????
 353:User/Hardware/motor.c ****  */
 354:User/Hardware/motor.c **** void LZMotor_set_params(LZ_Motor_ID_t motor_id, float pos, float vel, float tor, float kp, float kd
 355:User/Hardware/motor.c **** {
 2327              		.loc 1 355 1
 2328              		.cfi_startproc
 2329              		@ args = 0, pretend = 0, frame = 32
 2330              		@ frame_needed = 1, uses_anonymous_args = 0
 2331              		@ link register save eliminated.
 2332 0000 80B4     		push	{r7}
 2333              	.LCFI69:
 2334              		.cfi_def_cfa_offset 4
 2335              		.cfi_offset 7, -4
 2336 0002 89B0     		sub	sp, sp, #36
 2337              	.LCFI70:
 2338              		.cfi_def_cfa_offset 40
 2339 0004 00AF     		add	r7, sp, #0
 2340              	.LCFI71:
 2341              		.cfi_def_cfa_register 7
 2342 0006 0346     		mov	r3, r0
 2343 0008 87ED040A 		vstr.32	s0, [r7, #16]
 2344 000c C7ED030A 		vstr.32	s1, [r7, #12]
 2345 0010 87ED021A 		vstr.32	s2, [r7, #8]
 2346 0014 C7ED011A 		vstr.32	s3, [r7, #4]
 2347 0018 87ED002A 		vstr.32	s4, [r7]
 2348 001c FB75     		strb	r3, [r7, #23]
 356:User/Hardware/motor.c ****     if (motor_id >= LZ_MOTOR_NUM) return;
 2349              		.loc 1 356 8
 2350 001e FB7D     		ldrb	r3, [r7, #23]	@ zero_extendqisi2
 2351 0020 112B     		cmp	r3, #17
 2352 0022 61D8     		bhi	.L104
 357:User/Hardware/motor.c ****     
 358:User/Hardware/motor.c ****     uint8_t cantype = motor_id / 6; // ?????????can・
 2353              		.loc 1 358 13
 2354 0024 FB7D     		ldrb	r3, [r7, #23]	@ zero_extendqisi2
 2355 0026 334A     		ldr	r2, .L105
 2356 0028 A2FB0323 		umull	r2, r3, r2, r3
 2357 002c 9B08     		lsrs	r3, r3, #2
ARM GAS  C:\Users\Godwin\AppData\Local\Temp\ccGpVFiP.s 			page 49


 2358 002e FB77     		strb	r3, [r7, #31]
 359:User/Hardware/motor.c ****     uint8_t canid = motor_id % 6;   // ??????ID???
 2359              		.loc 1 359 13
 2360 0030 FA7D     		ldrb	r2, [r7, #23]	@ zero_extendqisi2
 2361 0032 304B     		ldr	r3, .L105
 2362 0034 A3FB0213 		umull	r1, r3, r3, r2
 2363 0038 9908     		lsrs	r1, r3, #2
 2364 003a 0B46     		mov	r3, r1
 2365 003c 5B00     		lsls	r3, r3, #1
 2366 003e 0B44     		add	r3, r3, r1
 2367 0040 5B00     		lsls	r3, r3, #1
 2368 0042 D31A     		subs	r3, r2, r3
 2369 0044 BB77     		strb	r3, [r7, #30]
 360:User/Hardware/motor.c ****     
 361:User/Hardware/motor.c ****     LZ_Motors[cantype][canid].pos_set = pos;
 2370              		.loc 1 361 30
 2371 0046 F97F     		ldrb	r1, [r7, #31]	@ zero_extendqisi2
 2372 0048 BA7F     		ldrb	r2, [r7, #30]	@ zero_extendqisi2
 2373              		.loc 1 361 39
 2374 004a 2B48     		ldr	r0, .L105+4
 2375 004c 1346     		mov	r3, r2
 2376 004e DB00     		lsls	r3, r3, #3
 2377 0050 1344     		add	r3, r3, r2
 2378 0052 DB00     		lsls	r3, r3, #3
 2379 0054 4FF4D872 		mov	r2, #432
 2380 0058 01FB02F2 		mul	r2, r1, r2
 2381 005c 1344     		add	r3, r3, r2
 2382 005e 0344     		add	r3, r3, r0
 2383 0060 0433     		adds	r3, r3, #4
 2384 0062 3A69     		ldr	r2, [r7, #16]	@ float
 2385 0064 1A60     		str	r2, [r3]	@ float
 362:User/Hardware/motor.c ****     LZ_Motors[cantype][canid].vel_set = vel;
 2386              		.loc 1 362 30
 2387 0066 F97F     		ldrb	r1, [r7, #31]	@ zero_extendqisi2
 2388 0068 BA7F     		ldrb	r2, [r7, #30]	@ zero_extendqisi2
 2389              		.loc 1 362 39
 2390 006a 2348     		ldr	r0, .L105+4
 2391 006c 1346     		mov	r3, r2
 2392 006e DB00     		lsls	r3, r3, #3
 2393 0070 1344     		add	r3, r3, r2
 2394 0072 DB00     		lsls	r3, r3, #3
 2395 0074 4FF4D872 		mov	r2, #432
 2396 0078 01FB02F2 		mul	r2, r1, r2
 2397 007c 1344     		add	r3, r3, r2
 2398 007e 0344     		add	r3, r3, r0
 2399 0080 0833     		adds	r3, r3, #8
 2400 0082 FA68     		ldr	r2, [r7, #12]	@ float
 2401 0084 1A60     		str	r2, [r3]	@ float
 363:User/Hardware/motor.c ****     LZ_Motors[cantype][canid].tor_set = tor;
 2402              		.loc 1 363 30
 2403 0086 F97F     		ldrb	r1, [r7, #31]	@ zero_extendqisi2
 2404 0088 BA7F     		ldrb	r2, [r7, #30]	@ zero_extendqisi2
 2405              		.loc 1 363 39
 2406 008a 1B48     		ldr	r0, .L105+4
 2407 008c 1346     		mov	r3, r2
 2408 008e DB00     		lsls	r3, r3, #3
 2409 0090 1344     		add	r3, r3, r2
ARM GAS  C:\Users\Godwin\AppData\Local\Temp\ccGpVFiP.s 			page 50


 2410 0092 DB00     		lsls	r3, r3, #3
 2411 0094 4FF4D872 		mov	r2, #432
 2412 0098 01FB02F2 		mul	r2, r1, r2
 2413 009c 1344     		add	r3, r3, r2
 2414 009e 0344     		add	r3, r3, r0
 2415 00a0 0C33     		adds	r3, r3, #12
 2416 00a2 BA68     		ldr	r2, [r7, #8]	@ float
 2417 00a4 1A60     		str	r2, [r3]	@ float
 364:User/Hardware/motor.c ****     LZ_Motors[cantype][canid].kp_set = kp;
 2418              		.loc 1 364 30
 2419 00a6 F97F     		ldrb	r1, [r7, #31]	@ zero_extendqisi2
 2420 00a8 BA7F     		ldrb	r2, [r7, #30]	@ zero_extendqisi2
 2421              		.loc 1 364 38
 2422 00aa 1348     		ldr	r0, .L105+4
 2423 00ac 1346     		mov	r3, r2
 2424 00ae DB00     		lsls	r3, r3, #3
 2425 00b0 1344     		add	r3, r3, r2
 2426 00b2 DB00     		lsls	r3, r3, #3
 2427 00b4 4FF4D872 		mov	r2, #432
 2428 00b8 01FB02F2 		mul	r2, r1, r2
 2429 00bc 1344     		add	r3, r3, r2
 2430 00be 0344     		add	r3, r3, r0
 2431 00c0 1033     		adds	r3, r3, #16
 2432 00c2 7A68     		ldr	r2, [r7, #4]	@ float
 2433 00c4 1A60     		str	r2, [r3]	@ float
 365:User/Hardware/motor.c ****     LZ_Motors[cantype][canid].kd_set = kd;
 2434              		.loc 1 365 30
 2435 00c6 F97F     		ldrb	r1, [r7, #31]	@ zero_extendqisi2
 2436 00c8 BA7F     		ldrb	r2, [r7, #30]	@ zero_extendqisi2
 2437              		.loc 1 365 38
 2438 00ca 0B48     		ldr	r0, .L105+4
 2439 00cc 1346     		mov	r3, r2
 2440 00ce DB00     		lsls	r3, r3, #3
 2441 00d0 1344     		add	r3, r3, r2
 2442 00d2 DB00     		lsls	r3, r3, #3
 2443 00d4 4FF4D872 		mov	r2, #432
 2444 00d8 01FB02F2 		mul	r2, r1, r2
 2445 00dc 1344     		add	r3, r3, r2
 2446 00de 0344     		add	r3, r3, r0
 2447 00e0 1433     		adds	r3, r3, #20
 2448 00e2 3A68     		ldr	r2, [r7]	@ float
 2449 00e4 1A60     		str	r2, [r3]	@ float
 2450 00e6 00E0     		b	.L101
 2451              	.L104:
 356:User/Hardware/motor.c ****     
 2452              		.loc 1 356 35
 2453 00e8 00BF     		nop
 2454              	.L101:
 366:User/Hardware/motor.c **** }
 2455              		.loc 1 366 1
 2456 00ea 2437     		adds	r7, r7, #36
 2457              	.LCFI72:
 2458              		.cfi_def_cfa_offset 4
 2459 00ec BD46     		mov	sp, r7
 2460              	.LCFI73:
 2461              		.cfi_def_cfa_register 13
 2462              		@ sp needed
ARM GAS  C:\Users\Godwin\AppData\Local\Temp\ccGpVFiP.s 			page 51


 2463 00ee 5DF8047B 		ldr	r7, [sp], #4
 2464              	.LCFI74:
 2465              		.cfi_restore 7
 2466              		.cfi_def_cfa_offset 0
 2467 00f2 7047     		bx	lr
 2468              	.L106:
 2469              		.align	2
 2470              	.L105:
 2471 00f4 ABAAAAAA 		.word	-1431655765
 2472 00f8 00000000 		.word	LZ_Motors
 2473              		.cfi_endproc
 2474              	.LFE157:
 2476              		.section	.text.LZMotor_set_pos_param,"ax",%progbits
 2477              		.align	1
 2478              		.global	LZMotor_set_pos_param
 2479              		.syntax unified
 2480              		.thumb
 2481              		.thumb_func
 2483              	LZMotor_set_pos_param:
 2484              	.LFB158:
 367:User/Hardware/motor.c **** 
 368:User/Hardware/motor.c **** void LZMotor_set_pos_param(LZ_Motor_ID_t motor_id, float pos, float vel) 
 369:User/Hardware/motor.c **** {
 2485              		.loc 1 369 1
 2486              		.cfi_startproc
 2487              		@ args = 0, pretend = 0, frame = 24
 2488              		@ frame_needed = 1, uses_anonymous_args = 0
 2489              		@ link register save eliminated.
 2490 0000 80B4     		push	{r7}
 2491              	.LCFI75:
 2492              		.cfi_def_cfa_offset 4
 2493              		.cfi_offset 7, -4
 2494 0002 87B0     		sub	sp, sp, #28
 2495              	.LCFI76:
 2496              		.cfi_def_cfa_offset 32
 2497 0004 00AF     		add	r7, sp, #0
 2498              	.LCFI77:
 2499              		.cfi_def_cfa_register 7
 2500 0006 0346     		mov	r3, r0
 2501 0008 87ED020A 		vstr.32	s0, [r7, #8]
 2502 000c C7ED010A 		vstr.32	s1, [r7, #4]
 2503 0010 FB73     		strb	r3, [r7, #15]
 370:User/Hardware/motor.c ****     if (motor_id >= LZ_MOTOR_NUM) return;
 2504              		.loc 1 370 8
 2505 0012 FB7B     		ldrb	r3, [r7, #15]	@ zero_extendqisi2
 2506 0014 112B     		cmp	r3, #17
 2507 0016 31D8     		bhi	.L110
 371:User/Hardware/motor.c ****     
 372:User/Hardware/motor.c ****     uint8_t cantype = motor_id / 6; // ?????????can・
 2508              		.loc 1 372 13
 2509 0018 FB7B     		ldrb	r3, [r7, #15]	@ zero_extendqisi2
 2510 001a 1B4A     		ldr	r2, .L111
 2511 001c A2FB0323 		umull	r2, r3, r2, r3
 2512 0020 9B08     		lsrs	r3, r3, #2
 2513 0022 FB75     		strb	r3, [r7, #23]
 373:User/Hardware/motor.c ****     uint8_t canid = motor_id % 6;   // ??????ID???
 2514              		.loc 1 373 13
ARM GAS  C:\Users\Godwin\AppData\Local\Temp\ccGpVFiP.s 			page 52


 2515 0024 FA7B     		ldrb	r2, [r7, #15]	@ zero_extendqisi2
 2516 0026 184B     		ldr	r3, .L111
 2517 0028 A3FB0213 		umull	r1, r3, r3, r2
 2518 002c 9908     		lsrs	r1, r3, #2
 2519 002e 0B46     		mov	r3, r1
 2520 0030 5B00     		lsls	r3, r3, #1
 2521 0032 0B44     		add	r3, r3, r1
 2522 0034 5B00     		lsls	r3, r3, #1
 2523 0036 D31A     		subs	r3, r2, r3
 2524 0038 BB75     		strb	r3, [r7, #22]
 374:User/Hardware/motor.c ****     
 375:User/Hardware/motor.c ****     LZ_Motors[cantype][canid].pos_set = pos;
 2525              		.loc 1 375 30
 2526 003a F97D     		ldrb	r1, [r7, #23]	@ zero_extendqisi2
 2527 003c BA7D     		ldrb	r2, [r7, #22]	@ zero_extendqisi2
 2528              		.loc 1 375 39
 2529 003e 1348     		ldr	r0, .L111+4
 2530 0040 1346     		mov	r3, r2
 2531 0042 DB00     		lsls	r3, r3, #3
 2532 0044 1344     		add	r3, r3, r2
 2533 0046 DB00     		lsls	r3, r3, #3
 2534 0048 4FF4D872 		mov	r2, #432
 2535 004c 01FB02F2 		mul	r2, r1, r2
 2536 0050 1344     		add	r3, r3, r2
 2537 0052 0344     		add	r3, r3, r0
 2538 0054 0433     		adds	r3, r3, #4
 2539 0056 BA68     		ldr	r2, [r7, #8]	@ float
 2540 0058 1A60     		str	r2, [r3]	@ float
 376:User/Hardware/motor.c ****     LZ_Motors[cantype][canid].vel_set = vel;
 2541              		.loc 1 376 30
 2542 005a F97D     		ldrb	r1, [r7, #23]	@ zero_extendqisi2
 2543 005c BA7D     		ldrb	r2, [r7, #22]	@ zero_extendqisi2
 2544              		.loc 1 376 39
 2545 005e 0B48     		ldr	r0, .L111+4
 2546 0060 1346     		mov	r3, r2
 2547 0062 DB00     		lsls	r3, r3, #3
 2548 0064 1344     		add	r3, r3, r2
 2549 0066 DB00     		lsls	r3, r3, #3
 2550 0068 4FF4D872 		mov	r2, #432
 2551 006c 01FB02F2 		mul	r2, r1, r2
 2552 0070 1344     		add	r3, r3, r2
 2553 0072 0344     		add	r3, r3, r0
 2554 0074 0833     		adds	r3, r3, #8
 2555 0076 7A68     		ldr	r2, [r7, #4]	@ float
 2556 0078 1A60     		str	r2, [r3]	@ float
 2557 007a 00E0     		b	.L107
 2558              	.L110:
 370:User/Hardware/motor.c ****     
 2559              		.loc 1 370 35
 2560 007c 00BF     		nop
 2561              	.L107:
 377:User/Hardware/motor.c **** }
 2562              		.loc 1 377 1
 2563 007e 1C37     		adds	r7, r7, #28
 2564              	.LCFI78:
 2565              		.cfi_def_cfa_offset 4
 2566 0080 BD46     		mov	sp, r7
ARM GAS  C:\Users\Godwin\AppData\Local\Temp\ccGpVFiP.s 			page 53


 2567              	.LCFI79:
 2568              		.cfi_def_cfa_register 13
 2569              		@ sp needed
 2570 0082 5DF8047B 		ldr	r7, [sp], #4
 2571              	.LCFI80:
 2572              		.cfi_restore 7
 2573              		.cfi_def_cfa_offset 0
 2574 0086 7047     		bx	lr
 2575              	.L112:
 2576              		.align	2
 2577              	.L111:
 2578 0088 ABAAAAAA 		.word	-1431655765
 2579 008c 00000000 		.word	LZ_Motors
 2580              		.cfi_endproc
 2581              	.LFE158:
 2583              		.section	.text.LZMotor_set_vel_param,"ax",%progbits
 2584              		.align	1
 2585              		.global	LZMotor_set_vel_param
 2586              		.syntax unified
 2587              		.thumb
 2588              		.thumb_func
 2590              	LZMotor_set_vel_param:
 2591              	.LFB159:
 378:User/Hardware/motor.c **** void LZMotor_set_vel_param(LZ_Motor_ID_t motor_id, float vel,float current_limit) 
 379:User/Hardware/motor.c **** {
 2592              		.loc 1 379 1
 2593              		.cfi_startproc
 2594              		@ args = 0, pretend = 0, frame = 24
 2595              		@ frame_needed = 1, uses_anonymous_args = 0
 2596              		@ link register save eliminated.
 2597 0000 80B4     		push	{r7}
 2598              	.LCFI81:
 2599              		.cfi_def_cfa_offset 4
 2600              		.cfi_offset 7, -4
 2601 0002 87B0     		sub	sp, sp, #28
 2602              	.LCFI82:
 2603              		.cfi_def_cfa_offset 32
 2604 0004 00AF     		add	r7, sp, #0
 2605              	.LCFI83:
 2606              		.cfi_def_cfa_register 7
 2607 0006 0346     		mov	r3, r0
 2608 0008 87ED020A 		vstr.32	s0, [r7, #8]
 2609 000c C7ED010A 		vstr.32	s1, [r7, #4]
 2610 0010 FB73     		strb	r3, [r7, #15]
 380:User/Hardware/motor.c ****     if (motor_id >= LZ_MOTOR_NUM) return;
 2611              		.loc 1 380 8
 2612 0012 FB7B     		ldrb	r3, [r7, #15]	@ zero_extendqisi2
 2613 0014 112B     		cmp	r3, #17
 2614 0016 31D8     		bhi	.L116
 381:User/Hardware/motor.c ****     
 382:User/Hardware/motor.c ****     uint8_t cantype = motor_id / 6; // ?????????can・
 2615              		.loc 1 382 13
 2616 0018 FB7B     		ldrb	r3, [r7, #15]	@ zero_extendqisi2
 2617 001a 1B4A     		ldr	r2, .L117
 2618 001c A2FB0323 		umull	r2, r3, r2, r3
 2619 0020 9B08     		lsrs	r3, r3, #2
 2620 0022 FB75     		strb	r3, [r7, #23]
ARM GAS  C:\Users\Godwin\AppData\Local\Temp\ccGpVFiP.s 			page 54


 383:User/Hardware/motor.c ****     uint8_t canid = motor_id % 6;   // ??????ID???
 2621              		.loc 1 383 13
 2622 0024 FA7B     		ldrb	r2, [r7, #15]	@ zero_extendqisi2
 2623 0026 184B     		ldr	r3, .L117
 2624 0028 A3FB0213 		umull	r1, r3, r3, r2
 2625 002c 9908     		lsrs	r1, r3, #2
 2626 002e 0B46     		mov	r3, r1
 2627 0030 5B00     		lsls	r3, r3, #1
 2628 0032 0B44     		add	r3, r3, r1
 2629 0034 5B00     		lsls	r3, r3, #1
 2630 0036 D31A     		subs	r3, r2, r3
 2631 0038 BB75     		strb	r3, [r7, #22]
 384:User/Hardware/motor.c ****     
 385:User/Hardware/motor.c ****     LZ_Motors[cantype][canid].vel_set = vel;
 2632              		.loc 1 385 30
 2633 003a F97D     		ldrb	r1, [r7, #23]	@ zero_extendqisi2
 2634 003c BA7D     		ldrb	r2, [r7, #22]	@ zero_extendqisi2
 2635              		.loc 1 385 39
 2636 003e 1348     		ldr	r0, .L117+4
 2637 0040 1346     		mov	r3, r2
 2638 0042 DB00     		lsls	r3, r3, #3
 2639 0044 1344     		add	r3, r3, r2
 2640 0046 DB00     		lsls	r3, r3, #3
 2641 0048 4FF4D872 		mov	r2, #432
 2642 004c 01FB02F2 		mul	r2, r1, r2
 2643 0050 1344     		add	r3, r3, r2
 2644 0052 0344     		add	r3, r3, r0
 2645 0054 0833     		adds	r3, r3, #8
 2646 0056 BA68     		ldr	r2, [r7, #8]	@ float
 2647 0058 1A60     		str	r2, [r3]	@ float
 386:User/Hardware/motor.c ****     LZ_Motors[cantype][canid].current_limit = current_limit;
 2648              		.loc 1 386 30
 2649 005a F97D     		ldrb	r1, [r7, #23]	@ zero_extendqisi2
 2650 005c BA7D     		ldrb	r2, [r7, #22]	@ zero_extendqisi2
 2651              		.loc 1 386 45
 2652 005e 0B48     		ldr	r0, .L117+4
 2653 0060 1346     		mov	r3, r2
 2654 0062 DB00     		lsls	r3, r3, #3
 2655 0064 1344     		add	r3, r3, r2
 2656 0066 DB00     		lsls	r3, r3, #3
 2657 0068 4FF4D872 		mov	r2, #432
 2658 006c 01FB02F2 		mul	r2, r1, r2
 2659 0070 1344     		add	r3, r3, r2
 2660 0072 0344     		add	r3, r3, r0
 2661 0074 1833     		adds	r3, r3, #24
 2662 0076 7A68     		ldr	r2, [r7, #4]	@ float
 2663 0078 1A60     		str	r2, [r3]	@ float
 2664 007a 00E0     		b	.L113
 2665              	.L116:
 380:User/Hardware/motor.c ****     
 2666              		.loc 1 380 35
 2667 007c 00BF     		nop
 2668              	.L113:
 387:User/Hardware/motor.c **** }
 2669              		.loc 1 387 1
 2670 007e 1C37     		adds	r7, r7, #28
 2671              	.LCFI84:
ARM GAS  C:\Users\Godwin\AppData\Local\Temp\ccGpVFiP.s 			page 55


 2672              		.cfi_def_cfa_offset 4
 2673 0080 BD46     		mov	sp, r7
 2674              	.LCFI85:
 2675              		.cfi_def_cfa_register 13
 2676              		@ sp needed
 2677 0082 5DF8047B 		ldr	r7, [sp], #4
 2678              	.LCFI86:
 2679              		.cfi_restore 7
 2680              		.cfi_def_cfa_offset 0
 2681 0086 7047     		bx	lr
 2682              	.L118:
 2683              		.align	2
 2684              	.L117:
 2685 0088 ABAAAAAA 		.word	-1431655765
 2686 008c 00000000 		.word	LZ_Motors
 2687              		.cfi_endproc
 2688              	.LFE159:
 2690              		.section	.text.LZMotor_send_command,"ax",%progbits
 2691              		.align	1
 2692              		.global	LZMotor_send_command
 2693              		.syntax unified
 2694              		.thumb
 2695              		.thumb_func
 2697              	LZMotor_send_command:
 2698              	.LFB160:
 388:User/Hardware/motor.c **** /**
 389:User/Hardware/motor.c ****  * @brief ??????????????????
 390:User/Hardware/motor.c ****  */
 391:User/Hardware/motor.c **** int LZMotor_send_command(LZ_Motor_ID_t motor_id) {
 2699              		.loc 1 391 50
 2700              		.cfi_startproc
 2701              		@ args = 0, pretend = 0, frame = 24
 2702              		@ frame_needed = 1, uses_anonymous_args = 0
 2703 0000 80B5     		push	{r7, lr}
 2704              	.LCFI87:
 2705              		.cfi_def_cfa_offset 8
 2706              		.cfi_offset 7, -8
 2707              		.cfi_offset 14, -4
 2708 0002 86B0     		sub	sp, sp, #24
 2709              	.LCFI88:
 2710              		.cfi_def_cfa_offset 32
 2711 0004 00AF     		add	r7, sp, #0
 2712              	.LCFI89:
 2713              		.cfi_def_cfa_register 7
 2714 0006 0346     		mov	r3, r0
 2715 0008 FB71     		strb	r3, [r7, #7]
 392:User/Hardware/motor.c ****     if (motor_id >= LZ_MOTOR_NUM) 
 2716              		.loc 1 392 8
 2717 000a FB79     		ldrb	r3, [r7, #7]	@ zero_extendqisi2
 2718 000c 112B     		cmp	r3, #17
 2719 000e 01D9     		bls	.L120
 393:User/Hardware/motor.c ****         return 0;
 2720              		.loc 1 393 16
 2721 0010 0023     		movs	r3, #0
 2722 0012 7BE0     		b	.L121
 2723              	.L120:
 394:User/Hardware/motor.c ****     
ARM GAS  C:\Users\Godwin\AppData\Local\Temp\ccGpVFiP.s 			page 56


 395:User/Hardware/motor.c ****     uint8_t cantype = motor_id / 6; // ?????????can・
 2724              		.loc 1 395 13
 2725 0014 FB79     		ldrb	r3, [r7, #7]	@ zero_extendqisi2
 2726 0016 3F4A     		ldr	r2, .L124
 2727 0018 A2FB0323 		umull	r2, r3, r2, r3
 2728 001c 9B08     		lsrs	r3, r3, #2
 2729 001e FB75     		strb	r3, [r7, #23]
 396:User/Hardware/motor.c ****     uint8_t canid = motor_id % 6;   // ??????ID???
 2730              		.loc 1 396 13
 2731 0020 FA79     		ldrb	r2, [r7, #7]	@ zero_extendqisi2
 2732 0022 3C4B     		ldr	r3, .L124
 2733 0024 A3FB0213 		umull	r1, r3, r3, r2
 2734 0028 9908     		lsrs	r1, r3, #2
 2735 002a 0B46     		mov	r3, r1
 2736 002c 5B00     		lsls	r3, r3, #1
 2737 002e 0B44     		add	r3, r3, r1
 2738 0030 5B00     		lsls	r3, r3, #1
 2739 0032 D31A     		subs	r3, r2, r3
 2740 0034 BB75     		strb	r3, [r7, #22]
 397:User/Hardware/motor.c ****     
 398:User/Hardware/motor.c ****     LZ_Motor_t *motor = &LZ_Motors[cantype][canid];
 2741              		.loc 1 398 44
 2742 0036 F97D     		ldrb	r1, [r7, #23]	@ zero_extendqisi2
 2743 0038 BA7D     		ldrb	r2, [r7, #22]	@ zero_extendqisi2
 2744              		.loc 1 398 17
 2745 003a 1346     		mov	r3, r2
 2746 003c DB00     		lsls	r3, r3, #3
 2747 003e 1344     		add	r3, r3, r2
 2748 0040 DB00     		lsls	r3, r3, #3
 2749 0042 4FF4D872 		mov	r2, #432
 2750 0046 01FB02F2 		mul	r2, r1, r2
 2751 004a 1344     		add	r3, r3, r2
 2752 004c 324A     		ldr	r2, .L124+4
 2753 004e 1344     		add	r3, r3, r2
 2754 0050 3B61     		str	r3, [r7, #16]
 399:User/Hardware/motor.c ****     if (motor->mode == LZ_MODE_VELOCITY) {
 2755              		.loc 1 399 14
 2756 0052 3B69     		ldr	r3, [r7, #16]
 2757 0054 9B78     		ldrb	r3, [r3, #2]	@ zero_extendqisi2
 2758              		.loc 1 399 8
 2759 0056 022B     		cmp	r3, #2
 2760 0058 17D1     		bne	.L122
 2761              	.LBB12:
 400:User/Hardware/motor.c ****         uint16_t  vel_id=(0x02 << 8) | (canid+1);
 2762              		.loc 1 400 46
 2763 005a BB7D     		ldrb	r3, [r7, #22]	@ zero_extendqisi2
 2764 005c 9BB2     		uxth	r3, r3
 2765 005e 0133     		adds	r3, r3, #1
 2766 0060 9BB2     		uxth	r3, r3
 2767 0062 1BB2     		sxth	r3, r3
 2768              		.loc 1 400 38
 2769 0064 43F40073 		orr	r3, r3, #512
 2770 0068 1BB2     		sxth	r3, r3
 2771              		.loc 1 400 19
 2772 006a BB81     		strh	r3, [r7, #12]	@ movhi
 401:User/Hardware/motor.c ****         lz_set_velocity(cantype, vel_id, motor->vel_set, 10);
 2773              		.loc 1 401 9
ARM GAS  C:\Users\Godwin\AppData\Local\Temp\ccGpVFiP.s 			page 57


 2774 006c 3B69     		ldr	r3, [r7, #16]
 2775 006e D3ED027A 		vldr.32	s15, [r3, #8]
 2776 0072 BA89     		ldrh	r2, [r7, #12]
 2777 0074 FB7D     		ldrb	r3, [r7, #23]	@ zero_extendqisi2
 2778 0076 F2EE040A 		vmov.f32	s1, #1.0e+1
 2779 007a B0EE670A 		vmov.f32	s0, s15
 2780 007e 1146     		mov	r1, r2
 2781 0080 1846     		mov	r0, r3
 2782 0082 FFF7FEFF 		bl	lz_set_velocity
 402:User/Hardware/motor.c ****         return 1;
 2783              		.loc 1 402 16
 2784 0086 0123     		movs	r3, #1
 2785 0088 40E0     		b	.L121
 2786              	.L122:
 2787              	.LBE12:
 403:User/Hardware/motor.c ****     } else if (motor->mode == LZ_MODE_POSITION) {
 2788              		.loc 1 403 21
 2789 008a 3B69     		ldr	r3, [r7, #16]
 2790 008c 9B78     		ldrb	r3, [r3, #2]	@ zero_extendqisi2
 2791              		.loc 1 403 15
 2792 008e 012B     		cmp	r3, #1
 2793 0090 1BD1     		bne	.L123
 2794              	.LBB13:
 404:User/Hardware/motor.c ****         uint16_t  pos_id=(0x01 << 8) | (canid+1);
 2795              		.loc 1 404 46
 2796 0092 BB7D     		ldrb	r3, [r7, #22]	@ zero_extendqisi2
 2797 0094 9BB2     		uxth	r3, r3
 2798 0096 0133     		adds	r3, r3, #1
 2799 0098 9BB2     		uxth	r3, r3
 2800 009a 1BB2     		sxth	r3, r3
 2801              		.loc 1 404 38
 2802 009c 43F48073 		orr	r3, r3, #256
 2803 00a0 1BB2     		sxth	r3, r3
 2804              		.loc 1 404 19
 2805 00a2 FB81     		strh	r3, [r7, #14]	@ movhi
 405:User/Hardware/motor.c ****         lz_set_position(cantype, pos_id, motor->pos_set, motor->vel_set);
 2806              		.loc 1 405 9
 2807 00a4 FB89     		ldrh	r3, [r7, #14]	@ movhi
 2808 00a6 DAB2     		uxtb	r2, r3
 2809 00a8 3B69     		ldr	r3, [r7, #16]
 2810 00aa D3ED017A 		vldr.32	s15, [r3, #4]
 2811 00ae 3B69     		ldr	r3, [r7, #16]
 2812 00b0 93ED027A 		vldr.32	s14, [r3, #8]
 2813 00b4 FB7D     		ldrb	r3, [r7, #23]	@ zero_extendqisi2
 2814 00b6 F0EE470A 		vmov.f32	s1, s14
 2815 00ba B0EE670A 		vmov.f32	s0, s15
 2816 00be 1146     		mov	r1, r2
 2817 00c0 1846     		mov	r0, r3
 2818 00c2 FFF7FEFF 		bl	lz_set_position
 406:User/Hardware/motor.c ****         return 1;
 2819              		.loc 1 406 16
 2820 00c6 0123     		movs	r3, #1
 2821 00c8 20E0     		b	.L121
 2822              	.L123:
 2823              	.LBE13:
 407:User/Hardware/motor.c ****     } 
 408:User/Hardware/motor.c ****     else
ARM GAS  C:\Users\Godwin\AppData\Local\Temp\ccGpVFiP.s 			page 58


 409:User/Hardware/motor.c ****     {
 410:User/Hardware/motor.c ****         lz_send_mit_params(cantype, motor->id, motor->pos_set, motor->vel_set, motor->kp_set, motor
 2824              		.loc 1 410 9
 2825 00ca 3B69     		ldr	r3, [r7, #16]
 2826 00cc 1A78     		ldrb	r2, [r3]	@ zero_extendqisi2
 2827 00ce 3B69     		ldr	r3, [r7, #16]
 2828 00d0 D3ED017A 		vldr.32	s15, [r3, #4]
 2829 00d4 3B69     		ldr	r3, [r7, #16]
 2830 00d6 93ED027A 		vldr.32	s14, [r3, #8]
 2831 00da 3B69     		ldr	r3, [r7, #16]
 2832 00dc D3ED046A 		vldr.32	s13, [r3, #16]
 2833 00e0 3B69     		ldr	r3, [r7, #16]
 2834 00e2 93ED056A 		vldr.32	s12, [r3, #20]
 2835 00e6 3B69     		ldr	r3, [r7, #16]
 2836 00e8 D3ED035A 		vldr.32	s11, [r3, #12]
 2837 00ec FB7D     		ldrb	r3, [r7, #23]	@ zero_extendqisi2
 2838 00ee B0EE652A 		vmov.f32	s4, s11
 2839 00f2 F0EE461A 		vmov.f32	s3, s12
 2840 00f6 B0EE661A 		vmov.f32	s2, s13
 2841 00fa F0EE470A 		vmov.f32	s1, s14
 2842 00fe B0EE670A 		vmov.f32	s0, s15
 2843 0102 1146     		mov	r1, r2
 2844 0104 1846     		mov	r0, r3
 2845 0106 FFF7FEFF 		bl	lz_send_mit_params
 411:User/Hardware/motor.c ****         return 1;
 2846              		.loc 1 411 16
 2847 010a 0123     		movs	r3, #1
 2848              	.L121:
 412:User/Hardware/motor.c ****         /* code */
 413:User/Hardware/motor.c ****     }
 414:User/Hardware/motor.c ****     
 415:User/Hardware/motor.c **** }
 2849              		.loc 1 415 1
 2850 010c 1846     		mov	r0, r3
 2851 010e 1837     		adds	r7, r7, #24
 2852              	.LCFI90:
 2853              		.cfi_def_cfa_offset 8
 2854 0110 BD46     		mov	sp, r7
 2855              	.LCFI91:
 2856              		.cfi_def_cfa_register 13
 2857              		@ sp needed
 2858 0112 80BD     		pop	{r7, pc}
 2859              	.L125:
 2860              		.align	2
 2861              	.L124:
 2862 0114 ABAAAAAA 		.word	-1431655765
 2863 0118 00000000 		.word	LZ_Motors
 2864              		.cfi_endproc
 2865              	.LFE160:
 2867              		.section	.text.LZMotor_get,"ax",%progbits
 2868              		.align	1
 2869              		.global	LZMotor_get
 2870              		.syntax unified
 2871              		.thumb
 2872              		.thumb_func
 2874              	LZMotor_get:
 2875              	.LFB161:
ARM GAS  C:\Users\Godwin\AppData\Local\Temp\ccGpVFiP.s 			page 59


 416:User/Hardware/motor.c **** 
 417:User/Hardware/motor.c **** /**
 418:User/Hardware/motor.c ****  * @brief ?????????????
 419:User/Hardware/motor.c ****  */
 420:User/Hardware/motor.c **** LZ_Motor_t LZMotor_get(LZ_Motor_ID_t motor_id) {
 2876              		.loc 1 420 48
 2877              		.cfi_startproc
 2878              		@ args = 0, pretend = 0, frame = 16
 2879              		@ frame_needed = 1, uses_anonymous_args = 0
 2880 0000 90B5     		push	{r4, r7, lr}
 2881              	.LCFI92:
 2882              		.cfi_def_cfa_offset 12
 2883              		.cfi_offset 4, -12
 2884              		.cfi_offset 7, -8
 2885              		.cfi_offset 14, -4
 2886 0002 85B0     		sub	sp, sp, #20
 2887              	.LCFI93:
 2888              		.cfi_def_cfa_offset 32
 2889 0004 00AF     		add	r7, sp, #0
 2890              	.LCFI94:
 2891              		.cfi_def_cfa_register 7
 2892 0006 7860     		str	r0, [r7, #4]
 2893 0008 0B46     		mov	r3, r1
 2894 000a FB70     		strb	r3, [r7, #3]
 421:User/Hardware/motor.c ****     
 422:User/Hardware/motor.c ****     uint8_t cantype = motor_id / 6; // ?????????can・
 2895              		.loc 1 422 13
 2896 000c FB78     		ldrb	r3, [r7, #3]	@ zero_extendqisi2
 2897 000e 144A     		ldr	r2, .L128
 2898 0010 A2FB0323 		umull	r2, r3, r2, r3
 2899 0014 9B08     		lsrs	r3, r3, #2
 2900 0016 FB73     		strb	r3, [r7, #15]
 423:User/Hardware/motor.c ****     uint8_t canid = motor_id % 6;   // ??????ID???
 2901              		.loc 1 423 13
 2902 0018 FA78     		ldrb	r2, [r7, #3]	@ zero_extendqisi2
 2903 001a 114B     		ldr	r3, .L128
 2904 001c A3FB0213 		umull	r1, r3, r3, r2
 2905 0020 9908     		lsrs	r1, r3, #2
 2906 0022 0B46     		mov	r3, r1
 2907 0024 5B00     		lsls	r3, r3, #1
 2908 0026 0B44     		add	r3, r3, r1
 2909 0028 5B00     		lsls	r3, r3, #1
 2910 002a D31A     		subs	r3, r2, r3
 2911 002c BB73     		strb	r3, [r7, #14]
 424:User/Hardware/motor.c ****     
 425:User/Hardware/motor.c ****     return LZ_Motors[cantype][canid];
 2912              		.loc 1 425 30
 2913 002e F97B     		ldrb	r1, [r7, #15]	@ zero_extendqisi2
 2914 0030 BA7B     		ldrb	r2, [r7, #14]	@ zero_extendqisi2
 2915 0032 7C68     		ldr	r4, [r7, #4]
 2916 0034 0B48     		ldr	r0, .L128+4
 2917 0036 1346     		mov	r3, r2
 2918 0038 DB00     		lsls	r3, r3, #3
 2919 003a 1344     		add	r3, r3, r2
 2920 003c DB00     		lsls	r3, r3, #3
 2921 003e 4FF4D872 		mov	r2, #432
 2922 0042 01FB02F2 		mul	r2, r1, r2
ARM GAS  C:\Users\Godwin\AppData\Local\Temp\ccGpVFiP.s 			page 60


 2923 0046 1344     		add	r3, r3, r2
 2924 0048 0344     		add	r3, r3, r0
 2925 004a 2046     		mov	r0, r4
 2926 004c 1946     		mov	r1, r3
 2927 004e 4823     		movs	r3, #72
 2928 0050 1A46     		mov	r2, r3
 2929 0052 FFF7FEFF 		bl	memcpy
 426:User/Hardware/motor.c **** }
 2930              		.loc 1 426 1
 2931 0056 7868     		ldr	r0, [r7, #4]
 2932 0058 1437     		adds	r7, r7, #20
 2933              	.LCFI95:
 2934              		.cfi_def_cfa_offset 12
 2935 005a BD46     		mov	sp, r7
 2936              	.LCFI96:
 2937              		.cfi_def_cfa_register 13
 2938              		@ sp needed
 2939 005c 90BD     		pop	{r4, r7, pc}
 2940              	.L129:
 2941 005e 00BF     		.align	2
 2942              	.L128:
 2943 0060 ABAAAAAA 		.word	-1431655765
 2944 0064 00000000 		.word	LZ_Motors
 2945              		.cfi_endproc
 2946              	.LFE161:
 2948              		.section	.text.LZMotor_decode_candata,"ax",%progbits
 2949              		.align	1
 2950              		.global	LZMotor_decode_candata
 2951              		.syntax unified
 2952              		.thumb
 2953              		.thumb_func
 2955              	LZMotor_decode_candata:
 2956              	.LFB162:
 427:User/Hardware/motor.c **** /**
 428:User/Hardware/motor.c ****  * @brief ??????CAN???????
 429:User/Hardware/motor.c ****  */
 430:User/Hardware/motor.c **** void LZMotor_decode_candata(FDCAN_HandleTypeDef *hfdcan, uint32_t id, uint8_t *data)
 431:User/Hardware/motor.c ****  {
 2957              		.loc 1 431 2
 2958              		.cfi_startproc
 2959              		@ args = 0, pretend = 0, frame = 24
 2960              		@ frame_needed = 1, uses_anonymous_args = 0
 2961 0000 B0B5     		push	{r4, r5, r7, lr}
 2962              	.LCFI97:
 2963              		.cfi_def_cfa_offset 16
 2964              		.cfi_offset 4, -16
 2965              		.cfi_offset 5, -12
 2966              		.cfi_offset 7, -8
 2967              		.cfi_offset 14, -4
 2968 0002 86B0     		sub	sp, sp, #24
 2969              	.LCFI98:
 2970              		.cfi_def_cfa_offset 40
 2971 0004 00AF     		add	r7, sp, #0
 2972              	.LCFI99:
 2973              		.cfi_def_cfa_register 7
 2974 0006 F860     		str	r0, [r7, #12]
 2975 0008 B960     		str	r1, [r7, #8]
ARM GAS  C:\Users\Godwin\AppData\Local\Temp\ccGpVFiP.s 			page 61


 2976 000a 7A60     		str	r2, [r7, #4]
 432:User/Hardware/motor.c ****     uint8_t motor_id = (data[0] - 1);
 2977              		.loc 1 432 29
 2978 000c 7B68     		ldr	r3, [r7, #4]
 2979 000e 1B78     		ldrb	r3, [r3]	@ zero_extendqisi2
 2980              		.loc 1 432 13
 2981 0010 013B     		subs	r3, r3, #1
 2982 0012 BB75     		strb	r3, [r7, #22]
 433:User/Hardware/motor.c ****     
 434:User/Hardware/motor.c ****     // ???CAN????
 435:User/Hardware/motor.c ****     uint8_t can_bus = 0;
 2983              		.loc 1 435 13
 2984 0014 0023     		movs	r3, #0
 2985 0016 FB75     		strb	r3, [r7, #23]
 436:User/Hardware/motor.c ****     if (hfdcan == &hfdcan2) can_bus = 1;
 2986              		.loc 1 436 8
 2987 0018 FB68     		ldr	r3, [r7, #12]
 2988 001a CB4A     		ldr	r2, .L145+40
 2989 001c 9342     		cmp	r3, r2
 2990 001e 02D1     		bne	.L131
 2991              		.loc 1 436 37 discriminator 1
 2992 0020 0123     		movs	r3, #1
 2993 0022 FB75     		strb	r3, [r7, #23]
 2994 0024 05E0     		b	.L132
 2995              	.L131:
 437:User/Hardware/motor.c ****     else if (hfdcan == &hfdcan3) can_bus = 2;
 2996              		.loc 1 437 13
 2997 0026 FB68     		ldr	r3, [r7, #12]
 2998 0028 C84A     		ldr	r2, .L145+44
 2999 002a 9342     		cmp	r3, r2
 3000 002c 01D1     		bne	.L132
 3001              		.loc 1 437 42 discriminator 1
 3002 002e 0223     		movs	r3, #2
 3003 0030 FB75     		strb	r3, [r7, #23]
 3004              	.L132:
 438:User/Hardware/motor.c **** 
 439:User/Hardware/motor.c ****     LZ_Motors[can_bus][motor_id].state.angle_last = LZ_Motors[can_bus][motor_id].state.angle;
 3005              		.loc 1 439 87
 3006 0032 FC7D     		ldrb	r4, [r7, #23]	@ zero_extendqisi2
 3007 0034 B97D     		ldrb	r1, [r7, #22]	@ zero_extendqisi2
 3008              		.loc 1 439 39
 3009 0036 F87D     		ldrb	r0, [r7, #23]	@ zero_extendqisi2
 3010 0038 BA7D     		ldrb	r2, [r7, #22]	@ zero_extendqisi2
 3011              		.loc 1 439 87
 3012 003a C54D     		ldr	r5, .L145+48
 3013 003c 0B46     		mov	r3, r1
 3014 003e DB00     		lsls	r3, r3, #3
 3015 0040 0B44     		add	r3, r3, r1
 3016 0042 DB00     		lsls	r3, r3, #3
 3017 0044 4FF4D871 		mov	r1, #432
 3018 0048 04FB01F1 		mul	r1, r4, r1
 3019 004c 0B44     		add	r3, r3, r1
 3020 004e 2B44     		add	r3, r3, r5
 3021 0050 2033     		adds	r3, r3, #32
 3022 0052 1968     		ldr	r1, [r3]	@ float
 3023              		.loc 1 439 51
 3024 0054 BE4C     		ldr	r4, .L145+48
ARM GAS  C:\Users\Godwin\AppData\Local\Temp\ccGpVFiP.s 			page 62


 3025 0056 1346     		mov	r3, r2
 3026 0058 DB00     		lsls	r3, r3, #3
 3027 005a 1344     		add	r3, r3, r2
 3028 005c DB00     		lsls	r3, r3, #3
 3029 005e 4FF4D872 		mov	r2, #432
 3030 0062 00FB02F2 		mul	r2, r0, r2
 3031 0066 1344     		add	r3, r3, r2
 3032 0068 2344     		add	r3, r3, r4
 3033 006a 3433     		adds	r3, r3, #52
 3034 006c 1960     		str	r1, [r3]	@ float
 440:User/Hardware/motor.c ****     LZ_Motors[can_bus][motor_id].state.angle = uint16_to_float((data[1]<<8) | (data[2]),P_MIN,P_MAX
 3035              		.loc 1 440 69
 3036 006e 7B68     		ldr	r3, [r7, #4]
 3037 0070 0133     		adds	r3, r3, #1
 3038 0072 1B78     		ldrb	r3, [r3]	@ zero_extendqisi2
 3039              		.loc 1 440 72
 3040 0074 1B02     		lsls	r3, r3, #8
 3041              		.loc 1 440 84
 3042 0076 7A68     		ldr	r2, [r7, #4]
 3043 0078 0232     		adds	r2, r2, #2
 3044 007a 1278     		ldrb	r2, [r2]	@ zero_extendqisi2
 3045              		.loc 1 440 48
 3046 007c 1343     		orrs	r3, r3, r2
 3047 007e 1021     		movs	r1, #16
 3048 0080 9FEDA71B 		vldr.64	d1, .L145
 3049 0084 9FEDA80B 		vldr.64	d0, .L145+8
 3050 0088 1846     		mov	r0, r3
 3051 008a FFF7FEFF 		bl	uint16_to_float
 3052 008e 07EE900A 		vmov	s15, r0	@ int
 3053              		.loc 1 440 39 discriminator 1
 3054 0092 F97D     		ldrb	r1, [r7, #23]	@ zero_extendqisi2
 3055 0094 BA7D     		ldrb	r2, [r7, #22]	@ zero_extendqisi2
 3056              		.loc 1 440 46 discriminator 1
 3057 0096 F8EEE77A 		vcvt.f32.s32	s15, s15
 3058 009a AD48     		ldr	r0, .L145+48
 3059 009c 1346     		mov	r3, r2
 3060 009e DB00     		lsls	r3, r3, #3
 3061 00a0 1344     		add	r3, r3, r2
 3062 00a2 DB00     		lsls	r3, r3, #3
 3063 00a4 4FF4D872 		mov	r2, #432
 3064 00a8 01FB02F2 		mul	r2, r1, r2
 3065 00ac 1344     		add	r3, r3, r2
 3066 00ae 0344     		add	r3, r3, r0
 3067 00b0 2033     		adds	r3, r3, #32
 3068 00b2 C3ED007A 		vstr.32	s15, [r3]
 441:User/Hardware/motor.c ****     LZ_Motors[can_bus][motor_id].state.velocity = uint16_to_float((data[3]<<4) | (data[4]>>4),V_MIN
 3069              		.loc 1 441 72
 3070 00b6 7B68     		ldr	r3, [r7, #4]
 3071 00b8 0333     		adds	r3, r3, #3
 3072 00ba 1B78     		ldrb	r3, [r3]	@ zero_extendqisi2
 3073              		.loc 1 441 75
 3074 00bc 1B01     		lsls	r3, r3, #4
 3075              		.loc 1 441 87
 3076 00be 7A68     		ldr	r2, [r7, #4]
 3077 00c0 0432     		adds	r2, r2, #4
 3078 00c2 1278     		ldrb	r2, [r2]	@ zero_extendqisi2
 3079              		.loc 1 441 90
ARM GAS  C:\Users\Godwin\AppData\Local\Temp\ccGpVFiP.s 			page 63


 3080 00c4 1209     		lsrs	r2, r2, #4
 3081 00c6 D2B2     		uxtb	r2, r2
 3082              		.loc 1 441 51
 3083 00c8 1343     		orrs	r3, r3, r2
 3084 00ca 0C21     		movs	r1, #12
 3085 00cc 9FED981B 		vldr.64	d1, .L145+16
 3086 00d0 9FED990B 		vldr.64	d0, .L145+24
 3087 00d4 1846     		mov	r0, r3
 3088 00d6 FFF7FEFF 		bl	uint16_to_float
 3089 00da 07EE900A 		vmov	s15, r0	@ int
 3090              		.loc 1 441 39 discriminator 1
 3091 00de F97D     		ldrb	r1, [r7, #23]	@ zero_extendqisi2
 3092 00e0 BA7D     		ldrb	r2, [r7, #22]	@ zero_extendqisi2
 3093              		.loc 1 441 49 discriminator 1
 3094 00e2 F8EEE77A 		vcvt.f32.s32	s15, s15
 3095 00e6 9A48     		ldr	r0, .L145+48
 3096 00e8 1346     		mov	r3, r2
 3097 00ea DB00     		lsls	r3, r3, #3
 3098 00ec 1344     		add	r3, r3, r2
 3099 00ee DB00     		lsls	r3, r3, #3
 3100 00f0 4FF4D872 		mov	r2, #432
 3101 00f4 01FB02F2 		mul	r2, r1, r2
 3102 00f8 1344     		add	r3, r3, r2
 3103 00fa 0344     		add	r3, r3, r0
 3104 00fc 2433     		adds	r3, r3, #36
 3105 00fe C3ED007A 		vstr.32	s15, [r3]
 442:User/Hardware/motor.c ****     LZ_Motors[can_bus][motor_id].state.torque = uint16_to_float((data[4]<<8) | (data[5]),T_MIN,T_MA
 3106              		.loc 1 442 70
 3107 0102 7B68     		ldr	r3, [r7, #4]
 3108 0104 0433     		adds	r3, r3, #4
 3109 0106 1B78     		ldrb	r3, [r3]	@ zero_extendqisi2
 3110              		.loc 1 442 73
 3111 0108 1B02     		lsls	r3, r3, #8
 3112              		.loc 1 442 85
 3113 010a 7A68     		ldr	r2, [r7, #4]
 3114 010c 0532     		adds	r2, r2, #5
 3115 010e 1278     		ldrb	r2, [r2]	@ zero_extendqisi2
 3116              		.loc 1 442 49
 3117 0110 1343     		orrs	r3, r3, r2
 3118 0112 0C21     		movs	r1, #12
 3119 0114 B2EE0C1B 		vmov.f64	d1, #1.4e+1
 3120 0118 BAEE0C0B 		vmov.f64	d0, #-1.4e+1
 3121 011c 1846     		mov	r0, r3
 3122 011e FFF7FEFF 		bl	uint16_to_float
 3123 0122 07EE900A 		vmov	s15, r0	@ int
 3124              		.loc 1 442 39 discriminator 1
 3125 0126 F97D     		ldrb	r1, [r7, #23]	@ zero_extendqisi2
 3126 0128 BA7D     		ldrb	r2, [r7, #22]	@ zero_extendqisi2
 3127              		.loc 1 442 47 discriminator 1
 3128 012a F8EEE77A 		vcvt.f32.s32	s15, s15
 3129 012e 8848     		ldr	r0, .L145+48
 3130 0130 1346     		mov	r3, r2
 3131 0132 DB00     		lsls	r3, r3, #3
 3132 0134 1344     		add	r3, r3, r2
 3133 0136 DB00     		lsls	r3, r3, #3
 3134 0138 4FF4D872 		mov	r2, #432
 3135 013c 01FB02F2 		mul	r2, r1, r2
ARM GAS  C:\Users\Godwin\AppData\Local\Temp\ccGpVFiP.s 			page 64


 3136 0140 1344     		add	r3, r3, r2
 3137 0142 0344     		add	r3, r3, r0
 3138 0144 2833     		adds	r3, r3, #40
 3139 0146 C3ED007A 		vstr.32	s15, [r3]
 443:User/Hardware/motor.c ****     LZ_Motors[can_bus][motor_id].state.temperature = ((data[6]<<8) | data[7])*0.1;
 3140              		.loc 1 443 60
 3141 014a 7B68     		ldr	r3, [r7, #4]
 3142 014c 0633     		adds	r3, r3, #6
 3143 014e 1B78     		ldrb	r3, [r3]	@ zero_extendqisi2
 3144              		.loc 1 443 63
 3145 0150 1B02     		lsls	r3, r3, #8
 3146              		.loc 1 443 74
 3147 0152 7A68     		ldr	r2, [r7, #4]
 3148 0154 0732     		adds	r2, r2, #7
 3149 0156 1278     		ldrb	r2, [r2]	@ zero_extendqisi2
 3150              		.loc 1 443 68
 3151 0158 1343     		orrs	r3, r3, r2
 3152              		.loc 1 443 78
 3153 015a 07EE903A 		vmov	s15, r3	@ int
 3154 015e B8EEE77B 		vcvt.f64.s32	d7, s15
 3155 0162 9FED776B 		vldr.64	d6, .L145+32
 3156 0166 27EE067B 		vmul.f64	d7, d7, d6
 3157              		.loc 1 443 39
 3158 016a F97D     		ldrb	r1, [r7, #23]	@ zero_extendqisi2
 3159 016c BA7D     		ldrb	r2, [r7, #22]	@ zero_extendqisi2
 3160              		.loc 1 443 78
 3161 016e F7EEC77B 		vcvt.f32.f64	s15, d7
 3162              		.loc 1 443 52
 3163 0172 7748     		ldr	r0, .L145+48
 3164 0174 1346     		mov	r3, r2
 3165 0176 DB00     		lsls	r3, r3, #3
 3166 0178 1344     		add	r3, r3, r2
 3167 017a DB00     		lsls	r3, r3, #3
 3168 017c 4FF4D872 		mov	r2, #432
 3169 0180 01FB02F2 		mul	r2, r1, r2
 3170 0184 1344     		add	r3, r3, r2
 3171 0186 0344     		add	r3, r3, r0
 3172 0188 2C33     		adds	r3, r3, #44
 3173 018a C3ED007A 		vstr.32	s15, [r3]
 444:User/Hardware/motor.c ****     
 445:User/Hardware/motor.c ****     //???????
 446:User/Hardware/motor.c ****         // count cnt
 447:User/Hardware/motor.c ****     if(LZ_Motors[can_bus][motor_id].state.sign == 0) {LZ_Motors[can_bus][motor_id].state.sign ++ ; 
 3174              		.loc 1 447 42
 3175 018e F97D     		ldrb	r1, [r7, #23]	@ zero_extendqisi2
 3176 0190 BA7D     		ldrb	r2, [r7, #22]	@ zero_extendqisi2
 3177 0192 6F48     		ldr	r0, .L145+48
 3178 0194 1346     		mov	r3, r2
 3179 0196 DB00     		lsls	r3, r3, #3
 3180 0198 1344     		add	r3, r3, r2
 3181 019a DB00     		lsls	r3, r3, #3
 3182 019c 4FF4D872 		mov	r2, #432
 3183 01a0 01FB02F2 		mul	r2, r1, r2
 3184 01a4 1344     		add	r3, r3, r2
 3185 01a6 0344     		add	r3, r3, r0
 3186 01a8 3833     		adds	r3, r3, #56
 3187 01aa 1B68     		ldr	r3, [r3]
ARM GAS  C:\Users\Godwin\AppData\Local\Temp\ccGpVFiP.s 			page 65


 3188              		.loc 1 447 7
 3189 01ac 002B     		cmp	r3, #0
 3190 01ae 3AD1     		bne	.L133
 3191              		.loc 1 447 89 discriminator 1
 3192 01b0 F97D     		ldrb	r1, [r7, #23]	@ zero_extendqisi2
 3193 01b2 BA7D     		ldrb	r2, [r7, #22]	@ zero_extendqisi2
 3194 01b4 664C     		ldr	r4, .L145+48
 3195 01b6 1346     		mov	r3, r2
 3196 01b8 DB00     		lsls	r3, r3, #3
 3197 01ba 1344     		add	r3, r3, r2
 3198 01bc DB00     		lsls	r3, r3, #3
 3199 01be 4FF4D870 		mov	r0, #432
 3200 01c2 01FB00F0 		mul	r0, r1, r0
 3201 01c6 0344     		add	r3, r3, r0
 3202 01c8 2344     		add	r3, r3, r4
 3203 01ca 3833     		adds	r3, r3, #56
 3204 01cc 1B68     		ldr	r3, [r3]
 3205              		.loc 1 447 95 discriminator 1
 3206 01ce 581C     		adds	r0, r3, #1
 3207 01d0 5F4C     		ldr	r4, .L145+48
 3208 01d2 1346     		mov	r3, r2
 3209 01d4 DB00     		lsls	r3, r3, #3
 3210 01d6 1344     		add	r3, r3, r2
 3211 01d8 DB00     		lsls	r3, r3, #3
 3212 01da 4FF4D872 		mov	r2, #432
 3213 01de 01FB02F2 		mul	r2, r1, r2
 3214 01e2 1344     		add	r3, r3, r2
 3215 01e4 2344     		add	r3, r3, r4
 3216 01e6 3833     		adds	r3, r3, #56
 3217 01e8 1860     		str	r0, [r3]
 3218              		.loc 1 447 182 discriminator 1
 3219 01ea FC7D     		ldrb	r4, [r7, #23]	@ zero_extendqisi2
 3220 01ec B97D     		ldrb	r1, [r7, #22]	@ zero_extendqisi2
 3221              		.loc 1 447 134 discriminator 1
 3222 01ee F87D     		ldrb	r0, [r7, #23]	@ zero_extendqisi2
 3223 01f0 BA7D     		ldrb	r2, [r7, #22]	@ zero_extendqisi2
 3224              		.loc 1 447 182 discriminator 1
 3225 01f2 574D     		ldr	r5, .L145+48
 3226 01f4 0B46     		mov	r3, r1
 3227 01f6 DB00     		lsls	r3, r3, #3
 3228 01f8 0B44     		add	r3, r3, r1
 3229 01fa DB00     		lsls	r3, r3, #3
 3230 01fc 4FF4D871 		mov	r1, #432
 3231 0200 04FB01F1 		mul	r1, r4, r1
 3232 0204 0B44     		add	r3, r3, r1
 3233 0206 2B44     		add	r3, r3, r5
 3234 0208 2033     		adds	r3, r3, #32
 3235 020a 1968     		ldr	r1, [r3]	@ float
 3236              		.loc 1 447 146 discriminator 1
 3237 020c 504C     		ldr	r4, .L145+48
 3238 020e 1346     		mov	r3, r2
 3239 0210 DB00     		lsls	r3, r3, #3
 3240 0212 1344     		add	r3, r3, r2
 3241 0214 DB00     		lsls	r3, r3, #3
 3242 0216 4FF4D872 		mov	r2, #432
 3243 021a 00FB02F2 		mul	r2, r0, r2
 3244 021e 1344     		add	r3, r3, r2
ARM GAS  C:\Users\Godwin\AppData\Local\Temp\ccGpVFiP.s 			page 66


 3245 0220 2344     		add	r3, r3, r4
 3246 0222 3433     		adds	r3, r3, #52
 3247 0224 1960     		str	r1, [r3]	@ float
 3248              	.L133:
 448:User/Hardware/motor.c ****     if (LZ_Motors[can_bus][motor_id].state.angle_last > 12 && LZ_Motors[can_bus][motor_id].state.an
 3249              		.loc 1 448 43
 3250 0226 F97D     		ldrb	r1, [r7, #23]	@ zero_extendqisi2
 3251 0228 BA7D     		ldrb	r2, [r7, #22]	@ zero_extendqisi2
 3252 022a 4948     		ldr	r0, .L145+48
 3253 022c 1346     		mov	r3, r2
 3254 022e DB00     		lsls	r3, r3, #3
 3255 0230 1344     		add	r3, r3, r2
 3256 0232 DB00     		lsls	r3, r3, #3
 3257 0234 4FF4D872 		mov	r2, #432
 3258 0238 01FB02F2 		mul	r2, r1, r2
 3259 023c 1344     		add	r3, r3, r2
 3260 023e 0344     		add	r3, r3, r0
 3261 0240 3433     		adds	r3, r3, #52
 3262 0242 D3ED007A 		vldr.32	s15, [r3]
 3263              		.loc 1 448 8
 3264 0246 B2EE087A 		vmov.f32	s14, #1.2e+1
 3265 024a F4EEC77A 		vcmpe.f32	s15, s14
 3266 024e F1EE10FA 		vmrs	APSR_nzcv, FPSCR
 3267 0252 40F38180 		ble	.L134
 3268              		.loc 1 448 97 discriminator 1
 3269 0256 F97D     		ldrb	r1, [r7, #23]	@ zero_extendqisi2
 3270 0258 BA7D     		ldrb	r2, [r7, #22]	@ zero_extendqisi2
 3271 025a 3D48     		ldr	r0, .L145+48
 3272 025c 1346     		mov	r3, r2
 3273 025e DB00     		lsls	r3, r3, #3
 3274 0260 1344     		add	r3, r3, r2
 3275 0262 DB00     		lsls	r3, r3, #3
 3276 0264 4FF4D872 		mov	r2, #432
 3277 0268 01FB02F2 		mul	r2, r1, r2
 3278 026c 1344     		add	r3, r3, r2
 3279 026e 0344     		add	r3, r3, r0
 3280 0270 2033     		adds	r3, r3, #32
 3281 0272 D3ED007A 		vldr.32	s15, [r3]
 3282              		.loc 1 448 60 discriminator 1
 3283 0276 BAEE087A 		vmov.f32	s14, #-1.2e+1
 3284 027a F4EEC77A 		vcmpe.f32	s15, s14
 3285 027e F1EE10FA 		vmrs	APSR_nzcv, FPSCR
 3286 0282 69D5     		bpl	.L134
 449:User/Hardware/motor.c ****         LZ_Motors[can_bus][motor_id].state.angle_cnt += ((P_MAX - LZ_Motors[can_bus][motor_id].stat
 3287              		.loc 1 449 43
 3288 0284 F97D     		ldrb	r1, [r7, #23]	@ zero_extendqisi2
 3289 0286 BA7D     		ldrb	r2, [r7, #22]	@ zero_extendqisi2
 3290 0288 3148     		ldr	r0, .L145+48
 3291 028a 1346     		mov	r3, r2
 3292 028c DB00     		lsls	r3, r3, #3
 3293 028e 1344     		add	r3, r3, r2
 3294 0290 DB00     		lsls	r3, r3, #3
 3295 0292 4FF4D872 		mov	r2, #432
 3296 0296 01FB02F2 		mul	r2, r1, r2
 3297 029a 1344     		add	r3, r3, r2
 3298 029c 0344     		add	r3, r3, r0
 3299 029e 3033     		adds	r3, r3, #48
ARM GAS  C:\Users\Godwin\AppData\Local\Temp\ccGpVFiP.s 			page 67


 3300 02a0 93ED007A 		vldr.32	s14, [r3]
 3301              		.loc 1 449 101
 3302 02a4 F97D     		ldrb	r1, [r7, #23]	@ zero_extendqisi2
 3303 02a6 BA7D     		ldrb	r2, [r7, #22]	@ zero_extendqisi2
 3304 02a8 2948     		ldr	r0, .L145+48
 3305 02aa 1346     		mov	r3, r2
 3306 02ac DB00     		lsls	r3, r3, #3
 3307 02ae 1344     		add	r3, r3, r2
 3308 02b0 DB00     		lsls	r3, r3, #3
 3309 02b2 4FF4D872 		mov	r2, #432
 3310 02b6 01FB02F2 		mul	r2, r1, r2
 3311 02ba 1344     		add	r3, r3, r2
 3312 02bc 0344     		add	r3, r3, r0
 3313 02be 3433     		adds	r3, r3, #52
 3314 02c0 D3ED007A 		vldr.32	s15, [r3]
 3315              		.loc 1 449 65
 3316 02c4 DFED236A 		vldr.32	s13, .L145+52
 3317 02c8 76EEE76A 		vsub.f32	s13, s13, s15
 3318              		.loc 1 449 151
 3319 02cc F97D     		ldrb	r1, [r7, #23]	@ zero_extendqisi2
 3320 02ce BA7D     		ldrb	r2, [r7, #22]	@ zero_extendqisi2
 3321 02d0 1F48     		ldr	r0, .L145+48
 3322 02d2 1346     		mov	r3, r2
 3323 02d4 DB00     		lsls	r3, r3, #3
 3324 02d6 1344     		add	r3, r3, r2
 3325 02d8 DB00     		lsls	r3, r3, #3
 3326 02da 4FF4D872 		mov	r2, #432
 3327 02de 01FB02F2 		mul	r2, r1, r2
 3328 02e2 1344     		add	r3, r3, r2
 3329 02e4 0344     		add	r3, r3, r0
 3330 02e6 2033     		adds	r3, r3, #32
 3331 02e8 D3ED007A 		vldr.32	s15, [r3]
 3332              		.loc 1 449 158
 3333 02ec 9FED196A 		vldr.32	s12, .L145+52
 3334 02f0 77EE867A 		vadd.f32	s15, s15, s12
 3335              		.loc 1 449 114
 3336 02f4 76EEA77A 		vadd.f32	s15, s13, s15
 3337              		.loc 1 449 43
 3338 02f8 F97D     		ldrb	r1, [r7, #23]	@ zero_extendqisi2
 3339 02fa BA7D     		ldrb	r2, [r7, #22]	@ zero_extendqisi2
 3340              		.loc 1 449 54
 3341 02fc 77EE277A 		vadd.f32	s15, s14, s15
 3342 0300 1348     		ldr	r0, .L145+48
 3343 0302 1346     		mov	r3, r2
 3344 0304 DB00     		lsls	r3, r3, #3
 3345 0306 1344     		add	r3, r3, r2
 3346 0308 DB00     		lsls	r3, r3, #3
 3347 030a 4FF4D872 		mov	r2, #432
 3348 030e 01FB02F2 		mul	r2, r1, r2
 3349 0312 1344     		add	r3, r3, r2
 3350 0314 0344     		add	r3, r3, r0
 3351 0316 3033     		adds	r3, r3, #48
 3352 0318 C3ED007A 		vstr.32	s15, [r3]
 3353 031c DCE0     		b	.L137
 3354              	.L146:
 3355 031e 00BF     		.align	3
 3356              	.L145:
ARM GAS  C:\Users\Godwin\AppData\Local\Temp\ccGpVFiP.s 			page 68


 3357 0320 00000000 		.word	0
 3358 0324 D7232940 		.word	1076437975
 3359 0328 00000000 		.word	0
 3360 032c D72329C0 		.word	-1071045673
 3361 0330 00000000 		.word	0
 3362 0334 00804040 		.word	1077968896
 3363 0338 00000000 		.word	0
 3364 033c 008040C0 		.word	-1069514752
 3365 0340 9A999999 		.word	-1717986918
 3366 0344 9999B93F 		.word	1069128089
 3367 0348 00000000 		.word	hfdcan2
 3368 034c 00000000 		.word	hfdcan3
 3369 0350 00000000 		.word	LZ_Motors
 3370 0354 B81E4941 		.word	1095311032
 3371              	.L134:
 450:User/Hardware/motor.c ****     else if (LZ_Motors[can_bus][motor_id].state.angle_last < -12 && LZ_Motors[can_bus][motor_id].st
 3372              		.loc 1 450 48
 3373 0358 F97D     		ldrb	r1, [r7, #23]	@ zero_extendqisi2
 3374 035a BA7D     		ldrb	r2, [r7, #22]	@ zero_extendqisi2
 3375 035c 6048     		ldr	r0, .L147
 3376 035e 1346     		mov	r3, r2
 3377 0360 DB00     		lsls	r3, r3, #3
 3378 0362 1344     		add	r3, r3, r2
 3379 0364 DB00     		lsls	r3, r3, #3
 3380 0366 4FF4D872 		mov	r2, #432
 3381 036a 01FB02F2 		mul	r2, r1, r2
 3382 036e 1344     		add	r3, r3, r2
 3383 0370 0344     		add	r3, r3, r0
 3384 0372 3433     		adds	r3, r3, #52
 3385 0374 D3ED007A 		vldr.32	s15, [r3]
 3386              		.loc 1 450 13
 3387 0378 BAEE087A 		vmov.f32	s14, #-1.2e+1
 3388 037c F4EEC77A 		vcmpe.f32	s15, s14
 3389 0380 F1EE10FA 		vmrs	APSR_nzcv, FPSCR
 3390 0384 63D5     		bpl	.L138
 3391              		.loc 1 450 103 discriminator 1
 3392 0386 F97D     		ldrb	r1, [r7, #23]	@ zero_extendqisi2
 3393 0388 BA7D     		ldrb	r2, [r7, #22]	@ zero_extendqisi2
 3394 038a 5548     		ldr	r0, .L147
 3395 038c 1346     		mov	r3, r2
 3396 038e DB00     		lsls	r3, r3, #3
 3397 0390 1344     		add	r3, r3, r2
 3398 0392 DB00     		lsls	r3, r3, #3
 3399 0394 4FF4D872 		mov	r2, #432
 3400 0398 01FB02F2 		mul	r2, r1, r2
 3401 039c 1344     		add	r3, r3, r2
 3402 039e 0344     		add	r3, r3, r0
 3403 03a0 2033     		adds	r3, r3, #32
 3404 03a2 D3ED007A 		vldr.32	s15, [r3]
 3405              		.loc 1 450 66 discriminator 1
 3406 03a6 B2EE087A 		vmov.f32	s14, #1.2e+1
 3407 03aa F4EEC77A 		vcmpe.f32	s15, s14
 3408 03ae F1EE10FA 		vmrs	APSR_nzcv, FPSCR
 3409 03b2 4CDD     		ble	.L138
 451:User/Hardware/motor.c ****         LZ_Motors[can_bus][motor_id].state.angle_cnt -= ((P_MAX - LZ_Motors[can_bus][motor_id].stat
 3410              		.loc 1 451 43
 3411 03b4 F97D     		ldrb	r1, [r7, #23]	@ zero_extendqisi2
ARM GAS  C:\Users\Godwin\AppData\Local\Temp\ccGpVFiP.s 			page 69


 3412 03b6 BA7D     		ldrb	r2, [r7, #22]	@ zero_extendqisi2
 3413 03b8 4948     		ldr	r0, .L147
 3414 03ba 1346     		mov	r3, r2
 3415 03bc DB00     		lsls	r3, r3, #3
 3416 03be 1344     		add	r3, r3, r2
 3417 03c0 DB00     		lsls	r3, r3, #3
 3418 03c2 4FF4D872 		mov	r2, #432
 3419 03c6 01FB02F2 		mul	r2, r1, r2
 3420 03ca 1344     		add	r3, r3, r2
 3421 03cc 0344     		add	r3, r3, r0
 3422 03ce 3033     		adds	r3, r3, #48
 3423 03d0 93ED007A 		vldr.32	s14, [r3]
 3424              		.loc 1 451 101
 3425 03d4 F97D     		ldrb	r1, [r7, #23]	@ zero_extendqisi2
 3426 03d6 BA7D     		ldrb	r2, [r7, #22]	@ zero_extendqisi2
 3427 03d8 4148     		ldr	r0, .L147
 3428 03da 1346     		mov	r3, r2
 3429 03dc DB00     		lsls	r3, r3, #3
 3430 03de 1344     		add	r3, r3, r2
 3431 03e0 DB00     		lsls	r3, r3, #3
 3432 03e2 4FF4D872 		mov	r2, #432
 3433 03e6 01FB02F2 		mul	r2, r1, r2
 3434 03ea 1344     		add	r3, r3, r2
 3435 03ec 0344     		add	r3, r3, r0
 3436 03ee 2033     		adds	r3, r3, #32
 3437 03f0 D3ED007A 		vldr.32	s15, [r3]
 3438              		.loc 1 451 65
 3439 03f4 DFED3B6A 		vldr.32	s13, .L147+4
 3440 03f8 76EEE76A 		vsub.f32	s13, s13, s15
 3441              		.loc 1 451 145
 3442 03fc F97D     		ldrb	r1, [r7, #23]	@ zero_extendqisi2
 3443 03fe BA7D     		ldrb	r2, [r7, #22]	@ zero_extendqisi2
 3444 0400 3748     		ldr	r0, .L147
 3445 0402 1346     		mov	r3, r2
 3446 0404 DB00     		lsls	r3, r3, #3
 3447 0406 1344     		add	r3, r3, r2
 3448 0408 DB00     		lsls	r3, r3, #3
 3449 040a 4FF4D872 		mov	r2, #432
 3450 040e 01FB02F2 		mul	r2, r1, r2
 3451 0412 1344     		add	r3, r3, r2
 3452 0414 0344     		add	r3, r3, r0
 3453 0416 3433     		adds	r3, r3, #52
 3454 0418 D3ED007A 		vldr.32	s15, [r3]
 3455              		.loc 1 451 109
 3456 041c 76EEA77A 		vadd.f32	s15, s13, s15
 3457              		.loc 1 451 157
 3458 0420 DFED306A 		vldr.32	s13, .L147+4
 3459 0424 77EEA67A 		vadd.f32	s15, s15, s13
 3460              		.loc 1 451 43
 3461 0428 F97D     		ldrb	r1, [r7, #23]	@ zero_extendqisi2
 3462 042a BA7D     		ldrb	r2, [r7, #22]	@ zero_extendqisi2
 3463              		.loc 1 451 54
 3464 042c 77EE677A 		vsub.f32	s15, s14, s15
 3465 0430 2B48     		ldr	r0, .L147
 3466 0432 1346     		mov	r3, r2
 3467 0434 DB00     		lsls	r3, r3, #3
 3468 0436 1344     		add	r3, r3, r2
ARM GAS  C:\Users\Godwin\AppData\Local\Temp\ccGpVFiP.s 			page 70


 3469 0438 DB00     		lsls	r3, r3, #3
 3470 043a 4FF4D872 		mov	r2, #432
 3471 043e 01FB02F2 		mul	r2, r1, r2
 3472 0442 1344     		add	r3, r3, r2
 3473 0444 0344     		add	r3, r3, r0
 3474 0446 3033     		adds	r3, r3, #48
 3475 0448 C3ED007A 		vstr.32	s15, [r3]
 3476 044c 44E0     		b	.L137
 3477              	.L138:
 452:User/Hardware/motor.c ****     else
 453:User/Hardware/motor.c ****         LZ_Motors[can_bus][motor_id].state.angle_cnt += (LZ_Motors[can_bus][motor_id].state.angle -
 3478              		.loc 1 453 43
 3479 044e F97D     		ldrb	r1, [r7, #23]	@ zero_extendqisi2
 3480 0450 BA7D     		ldrb	r2, [r7, #22]	@ zero_extendqisi2
 3481 0452 2348     		ldr	r0, .L147
 3482 0454 1346     		mov	r3, r2
 3483 0456 DB00     		lsls	r3, r3, #3
 3484 0458 1344     		add	r3, r3, r2
 3485 045a DB00     		lsls	r3, r3, #3
 3486 045c 4FF4D872 		mov	r2, #432
 3487 0460 01FB02F2 		mul	r2, r1, r2
 3488 0464 1344     		add	r3, r3, r2
 3489 0466 0344     		add	r3, r3, r0
 3490 0468 3033     		adds	r3, r3, #48
 3491 046a 93ED007A 		vldr.32	s14, [r3]
 3492              		.loc 1 453 92
 3493 046e F97D     		ldrb	r1, [r7, #23]	@ zero_extendqisi2
 3494 0470 BA7D     		ldrb	r2, [r7, #22]	@ zero_extendqisi2
 3495 0472 1B48     		ldr	r0, .L147
 3496 0474 1346     		mov	r3, r2
 3497 0476 DB00     		lsls	r3, r3, #3
 3498 0478 1344     		add	r3, r3, r2
 3499 047a DB00     		lsls	r3, r3, #3
 3500 047c 4FF4D872 		mov	r2, #432
 3501 0480 01FB02F2 		mul	r2, r1, r2
 3502 0484 1344     		add	r3, r3, r2
 3503 0486 0344     		add	r3, r3, r0
 3504 0488 2033     		adds	r3, r3, #32
 3505 048a D3ED006A 		vldr.32	s13, [r3]
 3506              		.loc 1 453 135
 3507 048e F97D     		ldrb	r1, [r7, #23]	@ zero_extendqisi2
 3508 0490 BA7D     		ldrb	r2, [r7, #22]	@ zero_extendqisi2
 3509 0492 1348     		ldr	r0, .L147
 3510 0494 1346     		mov	r3, r2
 3511 0496 DB00     		lsls	r3, r3, #3
 3512 0498 1344     		add	r3, r3, r2
 3513 049a DB00     		lsls	r3, r3, #3
 3514 049c 4FF4D872 		mov	r2, #432
 3515 04a0 01FB02F2 		mul	r2, r1, r2
 3516 04a4 1344     		add	r3, r3, r2
 3517 04a6 0344     		add	r3, r3, r0
 3518 04a8 3433     		adds	r3, r3, #52
 3519 04aa D3ED007A 		vldr.32	s15, [r3]
 3520              		.loc 1 453 99
 3521 04ae 76EEE77A 		vsub.f32	s15, s13, s15
 3522              		.loc 1 453 43
 3523 04b2 F97D     		ldrb	r1, [r7, #23]	@ zero_extendqisi2
ARM GAS  C:\Users\Godwin\AppData\Local\Temp\ccGpVFiP.s 			page 71


 3524 04b4 BA7D     		ldrb	r2, [r7, #22]	@ zero_extendqisi2
 3525              		.loc 1 453 54
 3526 04b6 77EE277A 		vadd.f32	s15, s14, s15
 3527 04ba 0948     		ldr	r0, .L147
 3528 04bc 1346     		mov	r3, r2
 3529 04be DB00     		lsls	r3, r3, #3
 3530 04c0 1344     		add	r3, r3, r2
 3531 04c2 DB00     		lsls	r3, r3, #3
 3532 04c4 4FF4D872 		mov	r2, #432
 3533 04c8 01FB02F2 		mul	r2, r1, r2
 3534 04cc 1344     		add	r3, r3, r2
 3535 04ce 0344     		add	r3, r3, r0
 3536 04d0 3033     		adds	r3, r3, #48
 3537 04d2 C3ED007A 		vstr.32	s15, [r3]
 454:User/Hardware/motor.c ****  }
 3538              		.loc 1 454 2
 3539 04d6 00BF     		nop
 3540              	.L137:
 3541 04d8 00BF     		nop
 3542 04da 1837     		adds	r7, r7, #24
 3543              	.LCFI100:
 3544              		.cfi_def_cfa_offset 16
 3545 04dc BD46     		mov	sp, r7
 3546              	.LCFI101:
 3547              		.cfi_def_cfa_register 13
 3548              		@ sp needed
 3549 04de B0BD     		pop	{r4, r5, r7, pc}
 3550              	.L148:
 3551              		.align	2
 3552              	.L147:
 3553 04e0 00000000 		.word	LZ_Motors
 3554 04e4 B81E4941 		.word	1095311032
 3555              		.cfi_endproc
 3556              	.LFE162:
 3558              		.section	.bss.tx_message.0,"aw",%nobits
 3559              		.align	2
 3562              	tx_message.0:
 3563 0000 00000000 		.space	36
 3563      00000000 
 3563      00000000 
 3563      00000000 
 3563      00000000 
 3564              		.text
 3565              	.Letext0:
 3566              		.file 2 "C:/Users/Godwin/13.2 Rel1/arm-none-eabi/include/machine/_default_types.h"
 3567              		.file 3 "C:/Users/Godwin/13.2 Rel1/arm-none-eabi/include/sys/_stdint.h"
 3568              		.file 4 "Drivers/CMSIS/Device/ST/STM32H7xx/Include/stm32h723xx.h"
 3569              		.file 5 "Drivers/CMSIS/Device/ST/STM32H7xx/Include/stm32h7xx.h"
 3570              		.file 6 "Drivers/STM32H7xx_HAL_Driver/Inc/stm32h7xx_hal_def.h"
 3571              		.file 7 "Drivers/STM32H7xx_HAL_Driver/Inc/stm32h7xx_hal_fdcan.h"
 3572              		.file 8 "Core/Inc/fdcan.h"
 3573              		.file 9 "User/Hardware/motor.h"
 3574              		.file 10 "User/Hardware/LZ_motor_driver.h"
 3575              		.file 11 "User/BSP/CAN_receive_send.h"
 3576              		.file 12 "<built-in>"
ARM GAS  C:\Users\Godwin\AppData\Local\Temp\ccGpVFiP.s 			page 72

