ARM GAS  C:\Users\Godwin\AppData\Local\Temp\ccNCbe5d.s 			page 1


   1              		.cpu cortex-m7
   2              		.arch armv7e-m
   3              		.fpu fpv5-d16
   4              		.eabi_attribute 28, 1
   5              		.eabi_attribute 20, 1
   6              		.eabi_attribute 21, 1
   7              		.eabi_attribute 23, 3
   8              		.eabi_attribute 24, 1
   9              		.eabi_attribute 25, 1
  10              		.eabi_attribute 26, 1
  11              		.eabi_attribute 30, 6
  12              		.eabi_attribute 34, 1
  13              		.eabi_attribute 18, 4
  14              		.file	"Robstride04.c"
  15              		.text
  16              	.Ltext0:
  17              		.cfi_sections	.debug_frame
  18              		.file 1 "User/Hardware/Robstride04.c"
  19              		.global	Index_List
  20              		.section	.rodata.Index_List,"a"
  21              		.align	2
  24              	Index_List:
  25 0000 0570     		.short	28677
  26 0002 0670     		.short	28678
  27 0004 0A70     		.short	28682
  28 0006 0B70     		.short	28683
  29 0008 1070     		.short	28688
  30 000a 1170     		.short	28689
  31 000c 1470     		.short	28692
  32 000e 1670     		.short	28694
  33 0010 1770     		.short	28695
  34 0012 1870     		.short	28696
  35 0014 1970     		.short	28697
  36 0016 1A70     		.short	28698
  37 0018 1B70     		.short	28699
  38 001a 1C70     		.short	28700
  39 001c 1D70     		.short	28701
  40              		.global	Mailbox
  41              		.section	.bss.Mailbox,"aw",%nobits
  42              		.align	2
  45              	Mailbox:
  46 0000 00000000 		.space	4
  47              		.section	.text.uint16_to_float,"ax",%progbits
  48              		.align	1
  49              		.global	uint16_to_float
  50              		.syntax unified
  51              		.thumb
  52              		.thumb_func
  54              	uint16_to_float:
  55              	.LFB144:
   1:User/Hardware/Robstride04.c **** #include "Robstride04.h"
   2:User/Hardware/Robstride04.c **** #include <string.h>
   3:User/Hardware/Robstride04.c **** #include "fdcan.h"
   4:User/Hardware/Robstride04.c **** 
   5:User/Hardware/Robstride04.c **** // 外部CAN句柄声明
   6:User/Hardware/Robstride04.c **** extern FDCAN_HandleTypeDef hfdcan2;  // 假设使用FDCAN1
   7:User/Hardware/Robstride04.c **** 
ARM GAS  C:\Users\Godwin\AppData\Local\Temp\ccNCbe5d.s 			page 2


   8:User/Hardware/Robstride04.c **** // RS04电机参数范围
   9:User/Hardware/Robstride04.c **** #define P_MIN -12.57f      // RS04: -12.57rad
  10:User/Hardware/Robstride04.c **** #define P_MAX 12.57f       // RS04: 12.57rad
  11:User/Hardware/Robstride04.c **** #define V_MIN -15.0f       // RS04: -15rad/s
  12:User/Hardware/Robstride04.c **** #define V_MAX 15.0f        // RS04: 15rad/s
  13:User/Hardware/Robstride04.c **** #define KP_MIN 0.0f
  14:User/Hardware/Robstride04.c **** #define KP_MAX 5000.0f     // RS04: 0~5000
  15:User/Hardware/Robstride04.c **** #define KD_MIN 0.0f
  16:User/Hardware/Robstride04.c **** #define KD_MAX 100.0f      // RS04: 0~100
  17:User/Hardware/Robstride04.c **** #define T_MIN -120.0f      // RS04: -120Nm
  18:User/Hardware/Robstride04.c **** #define T_MAX 120.0f       // RS04: 120Nm
  19:User/Hardware/Robstride04.c **** 
  20:User/Hardware/Robstride04.c **** const uint16_t Index_List[] = {0X7005, 0X7006, 0X700A, 0X700B, 0X7010, 0X7011, 0X7014, 0X7016, 0X70
  21:User/Hardware/Robstride04.c **** 
  22:User/Hardware/Robstride04.c **** uint32_t Mailbox; // 邮箱变量
  23:User/Hardware/Robstride04.c **** 
  24:User/Hardware/Robstride04.c **** // 如果没有定义CAN相关类型，定义它们
  25:User/Hardware/Robstride04.c **** #ifndef CAN_TxHeaderTypeDef
  26:User/Hardware/Robstride04.c **** // 这里定义基本的CAN类型，实际使用时应该包含STM32 HAL头文件
  27:User/Hardware/Robstride04.c **** typedef struct {
  28:User/Hardware/Robstride04.c ****     uint32_t StdId;
  29:User/Hardware/Robstride04.c ****     uint32_t ExtId;
  30:User/Hardware/Robstride04.c ****     uint32_t IDE;
  31:User/Hardware/Robstride04.c ****     uint32_t RTR;
  32:User/Hardware/Robstride04.c ****     uint32_t DLC;
  33:User/Hardware/Robstride04.c **** } CAN_TxHeaderTypeDef;
  34:User/Hardware/Robstride04.c **** #endif
  35:User/Hardware/Robstride04.c **** 
  36:User/Hardware/Robstride04.c **** #ifndef CAN_ID_EXT
  37:User/Hardware/Robstride04.c **** #define CAN_ID_EXT 1
  38:User/Hardware/Robstride04.c **** #endif
  39:User/Hardware/Robstride04.c **** 
  40:User/Hardware/Robstride04.c **** #ifndef CAN_ID_STD
  41:User/Hardware/Robstride04.c **** #define CAN_ID_STD 0
  42:User/Hardware/Robstride04.c **** #endif
  43:User/Hardware/Robstride04.c **** 
  44:User/Hardware/Robstride04.c **** #ifndef CAN_RTR_DATA
  45:User/Hardware/Robstride04.c **** #define CAN_RTR_DATA 0
  46:User/Hardware/Robstride04.c **** #endif
  47:User/Hardware/Robstride04.c **** 
  48:User/Hardware/Robstride04.c **** /*******************************************************************************
  49:User/Hardware/Robstride04.c **** * 函数功能  : uint16_t型转float型浮点数
  50:User/Hardware/Robstride04.c **** *******************************************************************************/
  51:User/Hardware/Robstride04.c **** float uint16_to_float(uint16_t x, float x_min, float x_max, uint8_t bits)
  52:User/Hardware/Robstride04.c **** {
  56              		.loc 1 52 1
  57              		.cfi_startproc
  58              		@ args = 0, pretend = 0, frame = 24
  59              		@ frame_needed = 1, uses_anonymous_args = 0
  60              		@ link register save eliminated.
  61 0000 80B4     		push	{r7}
  62              	.LCFI0:
  63              		.cfi_def_cfa_offset 4
  64              		.cfi_offset 7, -4
  65 0002 87B0     		sub	sp, sp, #28
  66              	.LCFI1:
  67              		.cfi_def_cfa_offset 32
ARM GAS  C:\Users\Godwin\AppData\Local\Temp\ccNCbe5d.s 			page 3


  68 0004 00AF     		add	r7, sp, #0
  69              	.LCFI2:
  70              		.cfi_def_cfa_register 7
  71 0006 0346     		mov	r3, r0
  72 0008 87ED020A 		vstr.32	s0, [r7, #8]
  73 000c C7ED010A 		vstr.32	s1, [r7, #4]
  74 0010 0A46     		mov	r2, r1
  75 0012 FB81     		strh	r3, [r7, #14]	@ movhi
  76 0014 1346     		mov	r3, r2
  77 0016 7B73     		strb	r3, [r7, #13]
  53:User/Hardware/Robstride04.c ****     uint32_t span = (1 << bits) - 1;
  78              		.loc 1 53 24
  79 0018 7B7B     		ldrb	r3, [r7, #13]	@ zero_extendqisi2
  80 001a 0122     		movs	r2, #1
  81 001c 02FA03F3 		lsl	r3, r2, r3
  82              		.loc 1 53 33
  83 0020 013B     		subs	r3, r3, #1
  84              		.loc 1 53 14
  85 0022 7B61     		str	r3, [r7, #20]
  54:User/Hardware/Robstride04.c ****     x &= span;
  86              		.loc 1 54 7
  87 0024 7B69     		ldr	r3, [r7, #20]
  88 0026 9AB2     		uxth	r2, r3
  89 0028 FB89     		ldrh	r3, [r7, #14]	@ movhi
  90 002a 1340     		ands	r3, r3, r2
  91 002c FB81     		strh	r3, [r7, #14]	@ movhi
  55:User/Hardware/Robstride04.c ****     float offset = x_max - x_min;
  92              		.loc 1 55 11
  93 002e 97ED017A 		vldr.32	s14, [r7, #4]
  94 0032 D7ED027A 		vldr.32	s15, [r7, #8]
  95 0036 77EE677A 		vsub.f32	s15, s14, s15
  96 003a C7ED047A 		vstr.32	s15, [r7, #16]
  56:User/Hardware/Robstride04.c ****     return offset * x / span + x_min;
  97              		.loc 1 56 19
  98 003e FB89     		ldrh	r3, [r7, #14]
  99 0040 07EE903A 		vmov	s15, r3	@ int
 100 0044 B8EEE77A 		vcvt.f32.s32	s14, s15
 101 0048 D7ED047A 		vldr.32	s15, [r7, #16]
 102 004c 67EE276A 		vmul.f32	s13, s14, s15
 103              		.loc 1 56 23
 104 0050 7B69     		ldr	r3, [r7, #20]
 105 0052 07EE903A 		vmov	s15, r3	@ int
 106 0056 F8EE677A 		vcvt.f32.u32	s15, s15
 107 005a 86EEA77A 		vdiv.f32	s14, s13, s15
 108              		.loc 1 56 30
 109 005e D7ED027A 		vldr.32	s15, [r7, #8]
 110 0062 77EE277A 		vadd.f32	s15, s14, s15
  57:User/Hardware/Robstride04.c **** }
 111              		.loc 1 57 1
 112 0066 B0EE670A 		vmov.f32	s0, s15
 113 006a 1C37     		adds	r7, r7, #28
 114              	.LCFI3:
 115              		.cfi_def_cfa_offset 4
 116 006c BD46     		mov	sp, r7
 117              	.LCFI4:
 118              		.cfi_def_cfa_register 13
 119              		@ sp needed
ARM GAS  C:\Users\Godwin\AppData\Local\Temp\ccNCbe5d.s 			page 4


 120 006e 5DF8047B 		ldr	r7, [sp], #4
 121              	.LCFI5:
 122              		.cfi_restore 7
 123              		.cfi_def_cfa_offset 0
 124 0072 7047     		bx	lr
 125              		.cfi_endproc
 126              	.LFE144:
 128              		.section	.text.float_to_uint_lz_lz,"ax",%progbits
 129              		.align	1
 130              		.global	float_to_uint_lz_lz
 131              		.syntax unified
 132              		.thumb
 133              		.thumb_func
 135              	float_to_uint_lz_lz:
 136              	.LFB145:
  58:User/Hardware/Robstride04.c **** 
  59:User/Hardware/Robstride04.c **** /*******************************************************************************
  60:User/Hardware/Robstride04.c **** * 函数功能  : float浮点数转int型
  61:User/Hardware/Robstride04.c **** *******************************************************************************/
  62:User/Hardware/Robstride04.c **** uint16_t float_to_uint_lz_lz(float x, float x_min, float x_max, uint8_t bits)
  63:User/Hardware/Robstride04.c **** {
 137              		.loc 1 63 1
 138              		.cfi_startproc
 139              		@ args = 0, pretend = 0, frame = 24
 140              		@ frame_needed = 1, uses_anonymous_args = 0
 141              		@ link register save eliminated.
 142 0000 80B4     		push	{r7}
 143              	.LCFI6:
 144              		.cfi_def_cfa_offset 4
 145              		.cfi_offset 7, -4
 146 0002 87B0     		sub	sp, sp, #28
 147              	.LCFI7:
 148              		.cfi_def_cfa_offset 32
 149 0004 00AF     		add	r7, sp, #0
 150              	.LCFI8:
 151              		.cfi_def_cfa_register 7
 152 0006 87ED030A 		vstr.32	s0, [r7, #12]
 153 000a C7ED020A 		vstr.32	s1, [r7, #8]
 154 000e 87ED011A 		vstr.32	s2, [r7, #4]
 155 0012 0346     		mov	r3, r0
 156 0014 FB70     		strb	r3, [r7, #3]
  64:User/Hardware/Robstride04.c ****     float span = x_max - x_min;
 157              		.loc 1 64 11
 158 0016 97ED017A 		vldr.32	s14, [r7, #4]
 159 001a D7ED027A 		vldr.32	s15, [r7, #8]
 160 001e 77EE677A 		vsub.f32	s15, s14, s15
 161 0022 C7ED057A 		vstr.32	s15, [r7, #20]
  65:User/Hardware/Robstride04.c ****     float offset = x_min;
 162              		.loc 1 65 11
 163 0026 BB68     		ldr	r3, [r7, #8]	@ float
 164 0028 3B61     		str	r3, [r7, #16]	@ float
  66:User/Hardware/Robstride04.c ****     if (x > x_max) x = x_max;
 165              		.loc 1 66 8
 166 002a 97ED037A 		vldr.32	s14, [r7, #12]
 167 002e D7ED017A 		vldr.32	s15, [r7, #4]
 168 0032 B4EEE77A 		vcmpe.f32	s14, s15
 169 0036 F1EE10FA 		vmrs	APSR_nzcv, FPSCR
ARM GAS  C:\Users\Godwin\AppData\Local\Temp\ccNCbe5d.s 			page 5


 170 003a 02DD     		ble	.L11
 171              		.loc 1 66 22 discriminator 1
 172 003c 7B68     		ldr	r3, [r7, #4]	@ float
 173 003e FB60     		str	r3, [r7, #12]	@ float
 174 0040 0AE0     		b	.L6
 175              	.L11:
  67:User/Hardware/Robstride04.c ****     else if (x < x_min) x = x_min;
 176              		.loc 1 67 13
 177 0042 97ED037A 		vldr.32	s14, [r7, #12]
 178 0046 D7ED027A 		vldr.32	s15, [r7, #8]
 179 004a B4EEE77A 		vcmpe.f32	s14, s15
 180 004e F1EE10FA 		vmrs	APSR_nzcv, FPSCR
 181 0052 01D5     		bpl	.L6
 182              		.loc 1 67 27 discriminator 1
 183 0054 BB68     		ldr	r3, [r7, #8]	@ float
 184 0056 FB60     		str	r3, [r7, #12]	@ float
 185              	.L6:
  68:User/Hardware/Robstride04.c ****     return (uint16_t)((x - offset) * ((float)((1 << bits) - 1)) / span);
 186              		.loc 1 68 26
 187 0058 97ED037A 		vldr.32	s14, [r7, #12]
 188 005c D7ED047A 		vldr.32	s15, [r7, #16]
 189 0060 37EE677A 		vsub.f32	s14, s14, s15
 190              		.loc 1 68 50
 191 0064 FB78     		ldrb	r3, [r7, #3]	@ zero_extendqisi2
 192 0066 0122     		movs	r2, #1
 193 0068 02FA03F3 		lsl	r3, r2, r3
 194              		.loc 1 68 59
 195 006c 013B     		subs	r3, r3, #1
 196              		.loc 1 68 39
 197 006e 07EE903A 		vmov	s15, r3	@ int
 198 0072 F8EEE77A 		vcvt.f32.s32	s15, s15
 199              		.loc 1 68 36
 200 0076 67EE276A 		vmul.f32	s13, s14, s15
 201              		.loc 1 68 65
 202 007a 97ED057A 		vldr.32	s14, [r7, #20]
 203 007e C6EE877A 		vdiv.f32	s15, s13, s14
 204              		.loc 1 68 12
 205 0082 FCEEE77A 		vcvt.u32.f32	s15, s15
 206 0086 17EE903A 		vmov	r3, s15	@ int
 207 008a 9BB2     		uxth	r3, r3
  69:User/Hardware/Robstride04.c **** }
 208              		.loc 1 69 1
 209 008c 1846     		mov	r0, r3
 210 008e 1C37     		adds	r7, r7, #28
 211              	.LCFI9:
 212              		.cfi_def_cfa_offset 4
 213 0090 BD46     		mov	sp, r7
 214              	.LCFI10:
 215              		.cfi_def_cfa_register 13
 216              		@ sp needed
 217 0092 5DF8047B 		ldr	r7, [sp], #4
 218              	.LCFI11:
 219              		.cfi_restore 7
 220              		.cfi_def_cfa_offset 0
 221 0096 7047     		bx	lr
 222              		.cfi_endproc
 223              	.LFE145:
ARM GAS  C:\Users\Godwin\AppData\Local\Temp\ccNCbe5d.s 			page 6


 225              		.section	.text.Byte_to_float,"ax",%progbits
 226              		.align	1
 227              		.global	Byte_to_float
 228              		.syntax unified
 229              		.thumb
 230              		.thumb_func
 232              	Byte_to_float:
 233              	.LFB146:
  70:User/Hardware/Robstride04.c **** 
  71:User/Hardware/Robstride04.c **** /*******************************************************************************
  72:User/Hardware/Robstride04.c **** * 函数功能  : uint8_t数组转float浮点数
  73:User/Hardware/Robstride04.c **** *******************************************************************************/
  74:User/Hardware/Robstride04.c **** float Byte_to_float(uint8_t* bytedata)
  75:User/Hardware/Robstride04.c **** {
 234              		.loc 1 75 1
 235              		.cfi_startproc
 236              		@ args = 0, pretend = 0, frame = 16
 237              		@ frame_needed = 1, uses_anonymous_args = 0
 238              		@ link register save eliminated.
 239 0000 80B4     		push	{r7}
 240              	.LCFI12:
 241              		.cfi_def_cfa_offset 4
 242              		.cfi_offset 7, -4
 243 0002 85B0     		sub	sp, sp, #20
 244              	.LCFI13:
 245              		.cfi_def_cfa_offset 24
 246 0004 00AF     		add	r7, sp, #0
 247              	.LCFI14:
 248              		.cfi_def_cfa_register 7
 249 0006 7860     		str	r0, [r7, #4]
  76:User/Hardware/Robstride04.c ****     uint32_t data = (uint32_t)bytedata[7] << 24 | (uint32_t)bytedata[6] << 16 | (uint32_t)bytedata[
 250              		.loc 1 76 39
 251 0008 7B68     		ldr	r3, [r7, #4]
 252 000a 0733     		adds	r3, r3, #7
 253 000c 1B78     		ldrb	r3, [r3]	@ zero_extendqisi2
 254              		.loc 1 76 43
 255 000e 1A06     		lsls	r2, r3, #24
 256              		.loc 1 76 69
 257 0010 7B68     		ldr	r3, [r7, #4]
 258 0012 0633     		adds	r3, r3, #6
 259 0014 1B78     		ldrb	r3, [r3]	@ zero_extendqisi2
 260              		.loc 1 76 73
 261 0016 1B04     		lsls	r3, r3, #16
 262              		.loc 1 76 49
 263 0018 1A43     		orrs	r2, r2, r3
 264              		.loc 1 76 99
 265 001a 7B68     		ldr	r3, [r7, #4]
 266 001c 0533     		adds	r3, r3, #5
 267 001e 1B78     		ldrb	r3, [r3]	@ zero_extendqisi2
 268              		.loc 1 76 103
 269 0020 1B02     		lsls	r3, r3, #8
 270              		.loc 1 76 79
 271 0022 1343     		orrs	r3, r3, r2
 272              		.loc 1 76 118
 273 0024 7A68     		ldr	r2, [r7, #4]
 274 0026 0432     		adds	r2, r2, #4
 275 0028 1278     		ldrb	r2, [r2]	@ zero_extendqisi2
ARM GAS  C:\Users\Godwin\AppData\Local\Temp\ccNCbe5d.s 			page 7


 276              		.loc 1 76 108
 277 002a 1343     		orrs	r3, r3, r2
 278              		.loc 1 76 14
 279 002c BB60     		str	r3, [r7, #8]
  77:User/Hardware/Robstride04.c ****     float data_float = *(float*)(&data);
 280              		.loc 1 77 34
 281 002e 07F10803 		add	r3, r7, #8
 282              		.loc 1 77 11
 283 0032 1B68     		ldr	r3, [r3]	@ float
 284 0034 FB60     		str	r3, [r7, #12]	@ float
  78:User/Hardware/Robstride04.c ****     return data_float;
 285              		.loc 1 78 12
 286 0036 FB68     		ldr	r3, [r7, #12]	@ float
 287 0038 07EE903A 		vmov	s15, r3
  79:User/Hardware/Robstride04.c **** }
 288              		.loc 1 79 1
 289 003c B0EE670A 		vmov.f32	s0, s15
 290 0040 1437     		adds	r7, r7, #20
 291              	.LCFI15:
 292              		.cfi_def_cfa_offset 4
 293 0042 BD46     		mov	sp, r7
 294              	.LCFI16:
 295              		.cfi_def_cfa_register 13
 296              		@ sp needed
 297 0044 5DF8047B 		ldr	r7, [sp], #4
 298              	.LCFI17:
 299              		.cfi_restore 7
 300              		.cfi_def_cfa_offset 0
 301 0048 7047     		bx	lr
 302              		.cfi_endproc
 303              	.LFE146:
 305              		.section	.text.mapFaults,"ax",%progbits
 306              		.align	1
 307              		.global	mapFaults
 308              		.syntax unified
 309              		.thumb
 310              		.thumb_func
 312              	mapFaults:
 313              	.LFB147:
  80:User/Hardware/Robstride04.c **** 
  81:User/Hardware/Robstride04.c **** /*******************************************************************************
  82:User/Hardware/Robstride04.c **** * 函数功能  : MIT错位码转换至私有模式错位码
  83:User/Hardware/Robstride04.c **** *******************************************************************************/
  84:User/Hardware/Robstride04.c **** uint8_t mapFaults(uint16_t fault16)
  85:User/Hardware/Robstride04.c **** {
 314              		.loc 1 85 1
 315              		.cfi_startproc
 316              		@ args = 0, pretend = 0, frame = 16
 317              		@ frame_needed = 1, uses_anonymous_args = 0
 318              		@ link register save eliminated.
 319 0000 80B4     		push	{r7}
 320              	.LCFI18:
 321              		.cfi_def_cfa_offset 4
 322              		.cfi_offset 7, -4
 323 0002 85B0     		sub	sp, sp, #20
 324              	.LCFI19:
 325              		.cfi_def_cfa_offset 24
ARM GAS  C:\Users\Godwin\AppData\Local\Temp\ccNCbe5d.s 			page 8


 326 0004 00AF     		add	r7, sp, #0
 327              	.LCFI20:
 328              		.cfi_def_cfa_register 7
 329 0006 0346     		mov	r3, r0
 330 0008 FB80     		strh	r3, [r7, #6]	@ movhi
  86:User/Hardware/Robstride04.c ****     uint8_t fault8 = 0;
 331              		.loc 1 86 13
 332 000a 0023     		movs	r3, #0
 333 000c FB73     		strb	r3, [r7, #15]
  87:User/Hardware/Robstride04.c ****     
  88:User/Hardware/Robstride04.c ****     // 根据RS04说明书第55页的故障位定义进行映射
  89:User/Hardware/Robstride04.c ****     if (fault16 & (1 << 16)) fault8 |= (1 << 0); // A相电流采样过流 -> 欠压故障(位0)
 334              		.loc 1 89 17
 335 000e FB88     		ldrh	r3, [r7, #6]
 336 0010 03F48033 		and	r3, r3, #65536
 337              		.loc 1 89 8
 338 0014 002B     		cmp	r3, #0
 339 0016 03D0     		beq	.L15
 340              		.loc 1 89 37 discriminator 1
 341 0018 FB7B     		ldrb	r3, [r7, #15]
 342 001a 43F00103 		orr	r3, r3, #1
 343 001e FB73     		strb	r3, [r7, #15]
 344              	.L15:
  90:User/Hardware/Robstride04.c ****     if (fault16 & (1 << 14)) fault8 |= (1 << 4); // 电机堵转过载算法保护 -> 过载故障(位4)
 345              		.loc 1 90 17
 346 0020 FB88     		ldrh	r3, [r7, #6]
 347 0022 03F48043 		and	r3, r3, #16384
 348              		.loc 1 90 8
 349 0026 002B     		cmp	r3, #0
 350 0028 03D0     		beq	.L16
 351              		.loc 1 90 37 discriminator 1
 352 002a FB7B     		ldrb	r3, [r7, #15]
 353 002c 43F01003 		orr	r3, r3, #16
 354 0030 FB73     		strb	r3, [r7, #15]
 355              	.L16:
  91:User/Hardware/Robstride04.c ****     if (fault16 & (1 << 9))  fault8 |= (1 << 5); // 位置初始化故障 -> 未标定(位5)
 356              		.loc 1 91 17
 357 0032 FB88     		ldrh	r3, [r7, #6]
 358 0034 03F40073 		and	r3, r3, #512
 359              		.loc 1 91 8
 360 0038 002B     		cmp	r3, #0
 361 003a 03D0     		beq	.L17
 362              		.loc 1 91 37 discriminator 1
 363 003c FB7B     		ldrb	r3, [r7, #15]
 364 003e 43F02003 		orr	r3, r3, #32
 365 0042 FB73     		strb	r3, [r7, #15]
 366              	.L17:
  92:User/Hardware/Robstride04.c ****     if (fault16 & (1 << 8))  fault8 |= (1 << 1); // 硬件识别故障 -> 驱动故障(位1)
 367              		.loc 1 92 17
 368 0044 FB88     		ldrh	r3, [r7, #6]
 369 0046 03F48073 		and	r3, r3, #256
 370              		.loc 1 92 8
 371 004a 002B     		cmp	r3, #0
 372 004c 03D0     		beq	.L18
 373              		.loc 1 92 37 discriminator 1
 374 004e FB7B     		ldrb	r3, [r7, #15]
 375 0050 43F00203 		orr	r3, r3, #2
ARM GAS  C:\Users\Godwin\AppData\Local\Temp\ccNCbe5d.s 			page 9


 376 0054 FB73     		strb	r3, [r7, #15]
 377              	.L18:
  93:User/Hardware/Robstride04.c ****     if (fault16 & (1 << 7))  fault8 |= (1 << 5); // 编码器未标定 -> 未标定(位5)
 378              		.loc 1 93 17
 379 0056 FB88     		ldrh	r3, [r7, #6]
 380 0058 03F08003 		and	r3, r3, #128
 381              		.loc 1 93 8
 382 005c 002B     		cmp	r3, #0
 383 005e 03D0     		beq	.L19
 384              		.loc 1 93 37 discriminator 1
 385 0060 FB7B     		ldrb	r3, [r7, #15]
 386 0062 43F02003 		orr	r3, r3, #32
 387 0066 FB73     		strb	r3, [r7, #15]
 388              	.L19:
  94:User/Hardware/Robstride04.c ****     if (fault16 & (1 << 5))  fault8 |= (1 << 2); // C相电流采样过流 -> 过温(位2)
 389              		.loc 1 94 17
 390 0068 FB88     		ldrh	r3, [r7, #6]
 391 006a 03F02003 		and	r3, r3, #32
 392              		.loc 1 94 8
 393 006e 002B     		cmp	r3, #0
 394 0070 03D0     		beq	.L20
 395              		.loc 1 94 37 discriminator 1
 396 0072 FB7B     		ldrb	r3, [r7, #15]
 397 0074 43F00403 		orr	r3, r3, #4
 398 0078 FB73     		strb	r3, [r7, #15]
 399              	.L20:
  95:User/Hardware/Robstride04.c ****     if (fault16 & (1 << 4))  fault8 |= (1 << 2); // B相电流采样过流 -> 过温(位2)
 400              		.loc 1 95 17
 401 007a FB88     		ldrh	r3, [r7, #6]
 402 007c 03F01003 		and	r3, r3, #16
 403              		.loc 1 95 8
 404 0080 002B     		cmp	r3, #0
 405 0082 03D0     		beq	.L21
 406              		.loc 1 95 37 discriminator 1
 407 0084 FB7B     		ldrb	r3, [r7, #15]
 408 0086 43F00403 		orr	r3, r3, #4
 409 008a FB73     		strb	r3, [r7, #15]
 410              	.L21:
  96:User/Hardware/Robstride04.c ****     if (fault16 & (1 << 3))  fault8 |= (1 << 3); // 过压故障 -> 磁编码故障(位3)
 411              		.loc 1 96 17
 412 008c FB88     		ldrh	r3, [r7, #6]
 413 008e 03F00803 		and	r3, r3, #8
 414              		.loc 1 96 8
 415 0092 002B     		cmp	r3, #0
 416 0094 03D0     		beq	.L22
 417              		.loc 1 96 37 discriminator 1
 418 0096 FB7B     		ldrb	r3, [r7, #15]
 419 0098 43F00803 		orr	r3, r3, #8
 420 009c FB73     		strb	r3, [r7, #15]
 421              	.L22:
  97:User/Hardware/Robstride04.c ****     
  98:User/Hardware/Robstride04.c ****     return fault8;
 422              		.loc 1 98 12
 423 009e FB7B     		ldrb	r3, [r7, #15]	@ zero_extendqisi2
  99:User/Hardware/Robstride04.c **** }
 424              		.loc 1 99 1
 425 00a0 1846     		mov	r0, r3
ARM GAS  C:\Users\Godwin\AppData\Local\Temp\ccNCbe5d.s 			page 10


 426 00a2 1437     		adds	r7, r7, #20
 427              	.LCFI21:
 428              		.cfi_def_cfa_offset 4
 429 00a4 BD46     		mov	sp, r7
 430              	.LCFI22:
 431              		.cfi_def_cfa_register 13
 432              		@ sp needed
 433 00a6 5DF8047B 		ldr	r7, [sp], #4
 434              	.LCFI23:
 435              		.cfi_restore 7
 436              		.cfi_def_cfa_offset 0
 437 00aa 7047     		bx	lr
 438              		.cfi_endproc
 439              	.LFE147:
 441              		.section	.text.RobStride_Motor_Init,"ax",%progbits
 442              		.align	1
 443              		.global	RobStride_Motor_Init
 444              		.syntax unified
 445              		.thumb
 446              		.thumb_func
 448              	RobStride_Motor_Init:
 449              	.LFB148:
 100:User/Hardware/Robstride04.c **** 
 101:User/Hardware/Robstride04.c **** /*******************************************************************************
 102:User/Hardware/Robstride04.c **** * 函数功能  : RobStride电机初始化
 103:User/Hardware/Robstride04.c **** *******************************************************************************/
 104:User/Hardware/Robstride04.c **** void RobStride_Motor_Init(RobStride_Motor_t* motor, uint8_t CAN_Id, bool MIT_mode)
 105:User/Hardware/Robstride04.c **** {
 450              		.loc 1 105 1
 451              		.cfi_startproc
 452              		@ args = 0, pretend = 0, frame = 8
 453              		@ frame_needed = 1, uses_anonymous_args = 0
 454 0000 80B5     		push	{r7, lr}
 455              	.LCFI24:
 456              		.cfi_def_cfa_offset 8
 457              		.cfi_offset 7, -8
 458              		.cfi_offset 14, -4
 459 0002 82B0     		sub	sp, sp, #8
 460              	.LCFI25:
 461              		.cfi_def_cfa_offset 16
 462 0004 00AF     		add	r7, sp, #0
 463              	.LCFI26:
 464              		.cfi_def_cfa_register 7
 465 0006 7860     		str	r0, [r7, #4]
 466 0008 0B46     		mov	r3, r1
 467 000a FB70     		strb	r3, [r7, #3]
 468 000c 1346     		mov	r3, r2
 469 000e BB70     		strb	r3, [r7, #2]
 106:User/Hardware/Robstride04.c ****     motor->CAN_ID = CAN_Id;
 470              		.loc 1 106 19
 471 0010 7B68     		ldr	r3, [r7, #4]
 472 0012 FA78     		ldrb	r2, [r7, #3]
 473 0014 1A70     		strb	r2, [r3]
 107:User/Hardware/Robstride04.c ****     motor->Master_CAN_ID = 0xFD;
 474              		.loc 1 107 26
 475 0016 7B68     		ldr	r3, [r7, #4]
 476 0018 FD22     		movs	r2, #253
ARM GAS  C:\Users\Godwin\AppData\Local\Temp\ccNCbe5d.s 			page 11


 477 001a 1A82     		strh	r2, [r3, #16]	@ movhi
 108:User/Hardware/Robstride04.c ****     motor->Motor_Set_All.set_motor_mode = move_control_mode;
 478              		.loc 1 108 41
 479 001c 7B68     		ldr	r3, [r7, #4]
 480 001e 0022     		movs	r2, #0
 481 0020 1A75     		strb	r2, [r3, #20]
 109:User/Hardware/Robstride04.c ****     motor->MIT_Mode = MIT_mode;
 482              		.loc 1 109 21
 483 0022 7B68     		ldr	r3, [r7, #4]
 484 0024 BA78     		ldrb	r2, [r7, #2]
 485 0026 83F84120 		strb	r2, [r3, #65]
 110:User/Hardware/Robstride04.c ****     motor->MIT_Type = operationControl;
 486              		.loc 1 110 21
 487 002a 7B68     		ldr	r3, [r7, #4]
 488 002c 0022     		movs	r2, #0
 489 002e 83F84220 		strb	r2, [r3, #66]
 111:User/Hardware/Robstride04.c ****     
 112:User/Hardware/Robstride04.c ****     // 初始化数据读写结构
 113:User/Hardware/Robstride04.c ****     data_read_write_init(&motor->drw);
 490              		.loc 1 113 5
 491 0032 7B68     		ldr	r3, [r7, #4]
 492 0034 6033     		adds	r3, r3, #96
 493 0036 1846     		mov	r0, r3
 494 0038 FFF7FEFF 		bl	data_read_write_init
 114:User/Hardware/Robstride04.c **** }
 495              		.loc 1 114 1
 496 003c 00BF     		nop
 497 003e 0837     		adds	r7, r7, #8
 498              	.LCFI27:
 499              		.cfi_def_cfa_offset 8
 500 0040 BD46     		mov	sp, r7
 501              	.LCFI28:
 502              		.cfi_def_cfa_register 13
 503              		@ sp needed
 504 0042 80BD     		pop	{r7, pc}
 505              		.cfi_endproc
 506              	.LFE148:
 508              		.section	.text.RobStride_Motor_Init_Offset,"ax",%progbits
 509              		.align	1
 510              		.global	RobStride_Motor_Init_Offset
 511              		.syntax unified
 512              		.thumb
 513              		.thumb_func
 515              	RobStride_Motor_Init_Offset:
 516              	.LFB149:
 115:User/Hardware/Robstride04.c **** 
 116:User/Hardware/Robstride04.c **** void RobStride_Motor_Init_Offset(RobStride_Motor_t* motor, uint8_t CAN_Id, bool MIT_mode)
 117:User/Hardware/Robstride04.c **** {
 517              		.loc 1 117 1
 518              		.cfi_startproc
 519              		@ args = 0, pretend = 0, frame = 8
 520              		@ frame_needed = 1, uses_anonymous_args = 0
 521 0000 80B5     		push	{r7, lr}
 522              	.LCFI29:
 523              		.cfi_def_cfa_offset 8
 524              		.cfi_offset 7, -8
 525              		.cfi_offset 14, -4
ARM GAS  C:\Users\Godwin\AppData\Local\Temp\ccNCbe5d.s 			page 12


 526 0002 82B0     		sub	sp, sp, #8
 527              	.LCFI30:
 528              		.cfi_def_cfa_offset 16
 529 0004 00AF     		add	r7, sp, #0
 530              	.LCFI31:
 531              		.cfi_def_cfa_register 7
 532 0006 7860     		str	r0, [r7, #4]
 533 0008 0B46     		mov	r3, r1
 534 000a FB70     		strb	r3, [r7, #3]
 535 000c 1346     		mov	r3, r2
 536 000e BB70     		strb	r3, [r7, #2]
 118:User/Hardware/Robstride04.c ****     RobStride_Motor_Init(motor, CAN_Id, MIT_mode);
 537              		.loc 1 118 5
 538 0010 BA78     		ldrb	r2, [r7, #2]	@ zero_extendqisi2
 539 0012 FB78     		ldrb	r3, [r7, #3]	@ zero_extendqisi2
 540 0014 1946     		mov	r1, r3
 541 0016 7868     		ldr	r0, [r7, #4]
 542 0018 FFF7FEFF 		bl	RobStride_Motor_Init
 119:User/Hardware/Robstride04.c **** }
 543              		.loc 1 119 1
 544 001c 00BF     		nop
 545 001e 0837     		adds	r7, r7, #8
 546              	.LCFI32:
 547              		.cfi_def_cfa_offset 8
 548 0020 BD46     		mov	sp, r7
 549              	.LCFI33:
 550              		.cfi_def_cfa_register 13
 551              		@ sp needed
 552 0022 80BD     		pop	{r7, pc}
 553              		.cfi_endproc
 554              	.LFE149:
 556              		.section	.text.RobStride_Motor_Analysis,"ax",%progbits
 557              		.align	1
 558              		.global	RobStride_Motor_Analysis
 559              		.syntax unified
 560              		.thumb
 561              		.thumb_func
 563              	RobStride_Motor_Analysis:
 564              	.LFB150:
 120:User/Hardware/Robstride04.c **** 
 121:User/Hardware/Robstride04.c **** /*******************************************************************************
 122:User/Hardware/Robstride04.c **** * 函数功能  : 接收处理函数
 123:User/Hardware/Robstride04.c **** *******************************************************************************/
 124:User/Hardware/Robstride04.c **** void RobStride_Motor_Analysis(RobStride_Motor_t* motor, uint8_t* DataFrame, uint32_t ID_ExtId)
 125:User/Hardware/Robstride04.c **** {
 565              		.loc 1 125 1
 566              		.cfi_startproc
 567              		@ args = 0, pretend = 0, frame = 32
 568              		@ frame_needed = 1, uses_anonymous_args = 0
 569 0000 80B5     		push	{r7, lr}
 570              	.LCFI34:
 571              		.cfi_def_cfa_offset 8
 572              		.cfi_offset 7, -8
 573              		.cfi_offset 14, -4
 574 0002 88B0     		sub	sp, sp, #32
 575              	.LCFI35:
 576              		.cfi_def_cfa_offset 40
ARM GAS  C:\Users\Godwin\AppData\Local\Temp\ccNCbe5d.s 			page 13


 577 0004 00AF     		add	r7, sp, #0
 578              	.LCFI36:
 579              		.cfi_def_cfa_register 7
 580 0006 F860     		str	r0, [r7, #12]
 581 0008 B960     		str	r1, [r7, #8]
 582 000a 7A60     		str	r2, [r7, #4]
 126:User/Hardware/Robstride04.c ****     if (motor->MIT_Mode)
 583              		.loc 1 126 14
 584 000c FB68     		ldr	r3, [r7, #12]
 585 000e 93F84130 		ldrb	r3, [r3, #65]	@ zero_extendqisi2
 586              		.loc 1 126 8
 587 0012 002B     		cmp	r3, #0
 588 0014 00F0A480 		beq	.L27
 127:User/Hardware/Robstride04.c ****     {
 128:User/Hardware/Robstride04.c ****         // MIT协议使用标准帧，主机ID为0xFD
 129:User/Hardware/Robstride04.c ****         if ((ID_ExtId & 0xFF) == 0xFD)
 589              		.loc 1 129 23
 590 0018 7B68     		ldr	r3, [r7, #4]
 591 001a DBB2     		uxtb	r3, r3
 592              		.loc 1 129 12
 593 001c FD2B     		cmp	r3, #253
 594 001e 40F09280 		bne	.L28
 130:User/Hardware/Robstride04.c ****         {
 131:User/Hardware/Robstride04.c ****             // 检查是否为故障反馈帧
 132:User/Hardware/Robstride04.c ****             if (DataFrame[3] == 0x00 && DataFrame[4] == 0x00 && DataFrame[5] == 0x00 &&
 595              		.loc 1 132 26
 596 0022 BB68     		ldr	r3, [r7, #8]
 597 0024 0333     		adds	r3, r3, #3
 598 0026 1B78     		ldrb	r3, [r3]	@ zero_extendqisi2
 599              		.loc 1 132 16
 600 0028 002B     		cmp	r3, #0
 601 002a 27D1     		bne	.L29
 602              		.loc 1 132 50 discriminator 1
 603 002c BB68     		ldr	r3, [r7, #8]
 604 002e 0433     		adds	r3, r3, #4
 605 0030 1B78     		ldrb	r3, [r3]	@ zero_extendqisi2
 606              		.loc 1 132 38 discriminator 1
 607 0032 002B     		cmp	r3, #0
 608 0034 22D1     		bne	.L29
 609              		.loc 1 132 74 discriminator 2
 610 0036 BB68     		ldr	r3, [r7, #8]
 611 0038 0533     		adds	r3, r3, #5
 612 003a 1B78     		ldrb	r3, [r3]	@ zero_extendqisi2
 613              		.loc 1 132 62 discriminator 2
 614 003c 002B     		cmp	r3, #0
 615 003e 1DD1     		bne	.L29
 133:User/Hardware/Robstride04.c ****                 DataFrame[6] == 0x00 && DataFrame[7] == 0x00)
 616              		.loc 1 133 26
 617 0040 BB68     		ldr	r3, [r7, #8]
 618 0042 0633     		adds	r3, r3, #6
 619 0044 1B78     		ldrb	r3, [r3]	@ zero_extendqisi2
 132:User/Hardware/Robstride04.c ****                 DataFrame[6] == 0x00 && DataFrame[7] == 0x00)
 620              		.loc 1 132 86 discriminator 3
 621 0046 002B     		cmp	r3, #0
 622 0048 18D1     		bne	.L29
 623              		.loc 1 133 50
 624 004a BB68     		ldr	r3, [r7, #8]
ARM GAS  C:\Users\Godwin\AppData\Local\Temp\ccNCbe5d.s 			page 14


 625 004c 0733     		adds	r3, r3, #7
 626 004e 1B78     		ldrb	r3, [r3]	@ zero_extendqisi2
 627              		.loc 1 133 38
 628 0050 002B     		cmp	r3, #0
 629 0052 13D1     		bne	.L29
 630              	.LBB2:
 134:User/Hardware/Robstride04.c ****             {
 135:User/Hardware/Robstride04.c ****                 // 故障信息在Byte1-2中
 136:User/Hardware/Robstride04.c ****                 uint16_t fault16 = (uint16_t)(DataFrame[1] << 8) | DataFrame[2];
 631              		.loc 1 136 56
 632 0054 BB68     		ldr	r3, [r7, #8]
 633 0056 0133     		adds	r3, r3, #1
 634 0058 1B78     		ldrb	r3, [r3]	@ zero_extendqisi2
 635              		.loc 1 136 36
 636 005a 1B02     		lsls	r3, r3, #8
 637 005c 9BB2     		uxth	r3, r3
 638              		.loc 1 136 77
 639 005e BA68     		ldr	r2, [r7, #8]
 640 0060 0232     		adds	r2, r2, #2
 641 0062 1278     		ldrb	r2, [r2]	@ zero_extendqisi2
 642              		.loc 1 136 26
 643 0064 1343     		orrs	r3, r3, r2
 644 0066 7B83     		strh	r3, [r7, #26]	@ movhi
 137:User/Hardware/Robstride04.c ****                 motor->error_code = mapFaults(fault16);
 645              		.loc 1 137 37
 646 0068 7B8B     		ldrh	r3, [r7, #26]
 647 006a 1846     		mov	r0, r3
 648 006c FFF7FEFF 		bl	mapFaults
 649 0070 0346     		mov	r3, r0
 650 0072 1A46     		mov	r2, r3
 651              		.loc 1 137 35 discriminator 1
 652 0074 FB68     		ldr	r3, [r7, #12]
 653 0076 83F84020 		strb	r2, [r3, #64]
 654              	.LBE2:
 134:User/Hardware/Robstride04.c ****             {
 655              		.loc 1 134 13
 656 007a D0E1     		b	.L31
 657              	.L29:
 658              	.LBB3:
 138:User/Hardware/Robstride04.c ****             }
 139:User/Hardware/Robstride04.c ****             else
 140:User/Hardware/Robstride04.c ****             {
 141:User/Hardware/Robstride04.c ****                 // 正常数据帧解析
 142:User/Hardware/Robstride04.c ****                 motor->Pos_Info.Angle = uint16_to_float((uint16_t)(DataFrame[1] << 8) | DataFrame[2
 659              		.loc 1 142 77
 660 007c BB68     		ldr	r3, [r7, #8]
 661 007e 0133     		adds	r3, r3, #1
 662 0080 1B78     		ldrb	r3, [r3]	@ zero_extendqisi2
 663              		.loc 1 142 57
 664 0082 1B02     		lsls	r3, r3, #8
 665 0084 9BB2     		uxth	r3, r3
 666              		.loc 1 142 98
 667 0086 BA68     		ldr	r2, [r7, #8]
 668 0088 0232     		adds	r2, r2, #2
 669 008a 1278     		ldrb	r2, [r2]	@ zero_extendqisi2
 670              		.loc 1 142 41
 671 008c 1343     		orrs	r3, r3, r2
ARM GAS  C:\Users\Godwin\AppData\Local\Temp\ccNCbe5d.s 			page 15


 672 008e 9BB2     		uxth	r3, r3
 673 0090 1021     		movs	r1, #16
 674 0092 DFEDBD0A 		vldr.32	s1, .L57
 675 0096 9FEDBD0A 		vldr.32	s0, .L57+4
 676 009a 1846     		mov	r0, r3
 677 009c FFF7FEFF 		bl	uint16_to_float
 678 00a0 F0EE407A 		vmov.f32	s15, s0
 679              		.loc 1 142 39 discriminator 1
 680 00a4 FB68     		ldr	r3, [r7, #12]
 681 00a6 C3ED137A 		vstr.32	s15, [r3, #76]
 143:User/Hardware/Robstride04.c ****                 
 144:User/Hardware/Robstride04.c ****                 // 速度：12位
 145:User/Hardware/Robstride04.c ****                 uint16_t speed_raw = (uint16_t)(DataFrame[3] << 4) | (DataFrame[4] >> 4);
 682              		.loc 1 145 58
 683 00aa BB68     		ldr	r3, [r7, #8]
 684 00ac 0333     		adds	r3, r3, #3
 685 00ae 1B78     		ldrb	r3, [r3]	@ zero_extendqisi2
 686              		.loc 1 145 38
 687 00b0 1B01     		lsls	r3, r3, #4
 688 00b2 9BB2     		uxth	r3, r3
 689              		.loc 1 145 80
 690 00b4 BA68     		ldr	r2, [r7, #8]
 691 00b6 0432     		adds	r2, r2, #4
 692 00b8 1278     		ldrb	r2, [r2]	@ zero_extendqisi2
 693              		.loc 1 145 68
 694 00ba 1209     		lsrs	r2, r2, #4
 695 00bc D2B2     		uxtb	r2, r2
 696              		.loc 1 145 26
 697 00be 1343     		orrs	r3, r3, r2
 698 00c0 3B83     		strh	r3, [r7, #24]	@ movhi
 146:User/Hardware/Robstride04.c ****                 motor->Pos_Info.Speed = uint16_to_float(speed_raw, V_MIN, V_MAX, 12);
 699              		.loc 1 146 41
 700 00c2 3B8B     		ldrh	r3, [r7, #24]
 701 00c4 0C21     		movs	r1, #12
 702 00c6 F2EE0E0A 		vmov.f32	s1, #1.5e+1
 703 00ca BAEE0E0A 		vmov.f32	s0, #-1.5e+1
 704 00ce 1846     		mov	r0, r3
 705 00d0 FFF7FEFF 		bl	uint16_to_float
 706 00d4 F0EE407A 		vmov.f32	s15, s0
 707              		.loc 1 146 39 discriminator 1
 708 00d8 FB68     		ldr	r3, [r7, #12]
 709 00da C3ED147A 		vstr.32	s15, [r3, #80]
 147:User/Hardware/Robstride04.c ****                 
 148:User/Hardware/Robstride04.c ****                 // 力矩：12位
 149:User/Hardware/Robstride04.c ****                 uint16_t torque_raw = (uint16_t)((DataFrame[4] & 0x0F) << 8) | DataFrame[5];
 710              		.loc 1 149 60
 711 00de BB68     		ldr	r3, [r7, #8]
 712 00e0 0433     		adds	r3, r3, #4
 713 00e2 1B78     		ldrb	r3, [r3]	@ zero_extendqisi2
 714              		.loc 1 149 72
 715 00e4 1BB2     		sxth	r3, r3
 716 00e6 1B02     		lsls	r3, r3, #8
 717 00e8 1BB2     		sxth	r3, r3
 718              		.loc 1 149 39
 719 00ea 03F47063 		and	r3, r3, #3840
 720 00ee 1AB2     		sxth	r2, r3
 721              		.loc 1 149 89
ARM GAS  C:\Users\Godwin\AppData\Local\Temp\ccNCbe5d.s 			page 16


 722 00f0 BB68     		ldr	r3, [r7, #8]
 723 00f2 0533     		adds	r3, r3, #5
 724 00f4 1B78     		ldrb	r3, [r3]	@ zero_extendqisi2
 725 00f6 1BB2     		sxth	r3, r3
 726              		.loc 1 149 78
 727 00f8 1343     		orrs	r3, r3, r2
 728 00fa 1BB2     		sxth	r3, r3
 729              		.loc 1 149 26
 730 00fc FB82     		strh	r3, [r7, #22]	@ movhi
 150:User/Hardware/Robstride04.c ****                 motor->Pos_Info.Torque = uint16_to_float(torque_raw, T_MIN, T_MAX, 12);
 731              		.loc 1 150 42
 732 00fe FB8A     		ldrh	r3, [r7, #22]
 733 0100 0C21     		movs	r1, #12
 734 0102 DFEDA30A 		vldr.32	s1, .L57+8
 735 0106 9FEDA30A 		vldr.32	s0, .L57+12
 736 010a 1846     		mov	r0, r3
 737 010c FFF7FEFF 		bl	uint16_to_float
 738 0110 F0EE407A 		vmov.f32	s15, s0
 739              		.loc 1 150 40 discriminator 1
 740 0114 FB68     		ldr	r3, [r7, #12]
 741 0116 C3ED157A 		vstr.32	s15, [r3, #84]
 151:User/Hardware/Robstride04.c ****                 
 152:User/Hardware/Robstride04.c ****                 motor->Pos_Info.Temp = (float)((uint16_t)(DataFrame[6] << 8) | DataFrame[7]) * 0.1f
 742              		.loc 1 152 68
 743 011a BB68     		ldr	r3, [r7, #8]
 744 011c 0633     		adds	r3, r3, #6
 745 011e 1B78     		ldrb	r3, [r3]	@ zero_extendqisi2
 746              		.loc 1 152 48
 747 0120 1B02     		lsls	r3, r3, #8
 748 0122 9BB2     		uxth	r3, r3
 749 0124 1A46     		mov	r2, r3
 750              		.loc 1 152 89
 751 0126 BB68     		ldr	r3, [r7, #8]
 752 0128 0733     		adds	r3, r3, #7
 753 012a 1B78     		ldrb	r3, [r3]	@ zero_extendqisi2
 754              		.loc 1 152 78
 755 012c 1343     		orrs	r3, r3, r2
 756              		.loc 1 152 40
 757 012e 07EE903A 		vmov	s15, r3	@ int
 758 0132 F8EEE77A 		vcvt.f32.s32	s15, s15
 759              		.loc 1 152 94
 760 0136 9FED987A 		vldr.32	s14, .L57+16
 761 013a 67EE877A 		vmul.f32	s15, s15, s14
 762              		.loc 1 152 38
 763 013e FB68     		ldr	r3, [r7, #12]
 764 0140 C3ED167A 		vstr.32	s15, [r3, #88]
 765              	.LBE3:
 153:User/Hardware/Robstride04.c ****             }
 154:User/Hardware/Robstride04.c ****         }
 155:User/Hardware/Robstride04.c ****         else if ((ID_ExtId & 0xFF) == 0xFE)
 156:User/Hardware/Robstride04.c ****         {
 157:User/Hardware/Robstride04.c ****             // 获取ID应答帧
 158:User/Hardware/Robstride04.c ****             memcpy(&motor->Unique_ID, DataFrame, 8);
 159:User/Hardware/Robstride04.c ****         }
 160:User/Hardware/Robstride04.c ****     }
 161:User/Hardware/Robstride04.c ****     else
 162:User/Hardware/Robstride04.c ****     {
ARM GAS  C:\Users\Godwin\AppData\Local\Temp\ccNCbe5d.s 			page 17


 163:User/Hardware/Robstride04.c ****         // 私有协议解析
 164:User/Hardware/Robstride04.c ****         if (((ID_ExtId >> 8) & 0xFF) == motor->CAN_ID)
 165:User/Hardware/Robstride04.c ****         {
 166:User/Hardware/Robstride04.c ****             uint8_t communication_type = (uint8_t)((ID_ExtId >> 24) & 0x3F);
 167:User/Hardware/Robstride04.c ****             
 168:User/Hardware/Robstride04.c ****             if (communication_type == 2)
 169:User/Hardware/Robstride04.c ****             {
 170:User/Hardware/Robstride04.c ****                 // 通信类型2：电机反馈数据
 171:User/Hardware/Robstride04.c ****                 motor->Pos_Info.Angle = uint16_to_float((uint16_t)(DataFrame[0] << 8) | DataFrame[1
 172:User/Hardware/Robstride04.c ****                 motor->Pos_Info.Speed = uint16_to_float((uint16_t)(DataFrame[2] << 8) | DataFrame[3
 173:User/Hardware/Robstride04.c ****                 motor->Pos_Info.Torque = uint16_to_float((uint16_t)(DataFrame[4] << 8) | DataFrame[
 174:User/Hardware/Robstride04.c ****                 motor->Pos_Info.Temp = (float)((uint16_t)(DataFrame[6] << 8) | DataFrame[7]) * 0.1f
 175:User/Hardware/Robstride04.c ****                 
 176:User/Hardware/Robstride04.c ****                 motor->error_code = (uint8_t)((ID_ExtId >> 16) & 0x3F);
 177:User/Hardware/Robstride04.c ****                 motor->Pos_Info.pattern = (uint8_t)((ID_ExtId >> 22) & 0x03);
 178:User/Hardware/Robstride04.c ****             }
 179:User/Hardware/Robstride04.c ****             else if (communication_type == 17)
 180:User/Hardware/Robstride04.c ****             {
 181:User/Hardware/Robstride04.c ****                 // 通信类型17：参数读取应答
 182:User/Hardware/Robstride04.c ****                 uint16_t index = (uint16_t)(DataFrame[1] << 8) | DataFrame[0];
 183:User/Hardware/Robstride04.c ****                 
 184:User/Hardware/Robstride04.c ****                 for (uint8_t index_num = 0; index_num <= 13; index_num++)
 185:User/Hardware/Robstride04.c ****                 {
 186:User/Hardware/Robstride04.c ****                     if (index == Index_List[index_num])
 187:User/Hardware/Robstride04.c ****                     {
 188:User/Hardware/Robstride04.c ****                         switch (index_num)
 189:User/Hardware/Robstride04.c ****                         {
 190:User/Hardware/Robstride04.c ****                             case 0:
 191:User/Hardware/Robstride04.c ****                                 motor->drw.run_mode.data = (float)DataFrame[4];
 192:User/Hardware/Robstride04.c ****                                 break;
 193:User/Hardware/Robstride04.c ****                             case 1:
 194:User/Hardware/Robstride04.c ****                                 motor->drw.iq_ref.data = Byte_to_float(DataFrame);
 195:User/Hardware/Robstride04.c ****                                 break;
 196:User/Hardware/Robstride04.c ****                             case 2:
 197:User/Hardware/Robstride04.c ****                                 motor->drw.spd_ref.data = Byte_to_float(DataFrame);
 198:User/Hardware/Robstride04.c ****                                 break;
 199:User/Hardware/Robstride04.c ****                             case 3:
 200:User/Hardware/Robstride04.c ****                                 motor->drw.imit_torque.data = Byte_to_float(DataFrame);
 201:User/Hardware/Robstride04.c ****                                 break;
 202:User/Hardware/Robstride04.c ****                             case 4:
 203:User/Hardware/Robstride04.c ****                                 motor->drw.cur_kp.data = Byte_to_float(DataFrame);
 204:User/Hardware/Robstride04.c ****                                 break;
 205:User/Hardware/Robstride04.c ****                             case 5:
 206:User/Hardware/Robstride04.c ****                                 motor->drw.cur_ki.data = Byte_to_float(DataFrame);
 207:User/Hardware/Robstride04.c ****                                 break;
 208:User/Hardware/Robstride04.c ****                             case 6:
 209:User/Hardware/Robstride04.c ****                                 motor->drw.cur_filt_gain.data = Byte_to_float(DataFrame);
 210:User/Hardware/Robstride04.c ****                                 break;
 211:User/Hardware/Robstride04.c ****                             case 7:
 212:User/Hardware/Robstride04.c ****                                 motor->drw.loc_ref.data = Byte_to_float(DataFrame);
 213:User/Hardware/Robstride04.c ****                                 break;
 214:User/Hardware/Robstride04.c ****                             case 8:
 215:User/Hardware/Robstride04.c ****                                 motor->drw.limit_spd.data = Byte_to_float(DataFrame);
 216:User/Hardware/Robstride04.c ****                                 break;
 217:User/Hardware/Robstride04.c ****                             case 9:
 218:User/Hardware/Robstride04.c ****                                 motor->drw.limit_cur.data = Byte_to_float(DataFrame);
 219:User/Hardware/Robstride04.c ****                                 break;
ARM GAS  C:\Users\Godwin\AppData\Local\Temp\ccNCbe5d.s 			page 18


 220:User/Hardware/Robstride04.c ****                             case 10:
 221:User/Hardware/Robstride04.c ****                                 motor->drw.mechPos.data = Byte_to_float(DataFrame);
 222:User/Hardware/Robstride04.c ****                                 break;
 223:User/Hardware/Robstride04.c ****                             case 11:
 224:User/Hardware/Robstride04.c ****                                 motor->drw.iqf.data = Byte_to_float(DataFrame);
 225:User/Hardware/Robstride04.c ****                                 break;
 226:User/Hardware/Robstride04.c ****                             case 12:
 227:User/Hardware/Robstride04.c ****                                 motor->drw.mechVel.data = Byte_to_float(DataFrame);
 228:User/Hardware/Robstride04.c ****                                 break;
 229:User/Hardware/Robstride04.c ****                             case 13:
 230:User/Hardware/Robstride04.c ****                                 motor->drw.VBUS.data = Byte_to_float(DataFrame);
 231:User/Hardware/Robstride04.c ****                                 break;
 232:User/Hardware/Robstride04.c ****                         }
 233:User/Hardware/Robstride04.c ****                         break;
 234:User/Hardware/Robstride04.c ****                     }
 235:User/Hardware/Robstride04.c ****                 }
 236:User/Hardware/Robstride04.c ****             }
 237:User/Hardware/Robstride04.c ****             else if ((ID_ExtId & 0xFF) == 0xFE)
 238:User/Hardware/Robstride04.c ****             {
 239:User/Hardware/Robstride04.c ****                 // 获取ID应答帧
 240:User/Hardware/Robstride04.c ****                 motor->CAN_ID = (uint8_t)((ID_ExtId >> 8) & 0xFF);
 241:User/Hardware/Robstride04.c ****                 memcpy(&motor->Unique_ID, DataFrame, 8);
 242:User/Hardware/Robstride04.c ****             }
 243:User/Hardware/Robstride04.c ****         }
 244:User/Hardware/Robstride04.c ****     }
 245:User/Hardware/Robstride04.c **** }
 766              		.loc 1 245 1
 767 0144 6BE1     		b	.L54
 768              	.L28:
 155:User/Hardware/Robstride04.c ****         {
 769              		.loc 1 155 28
 770 0146 7B68     		ldr	r3, [r7, #4]
 771 0148 DBB2     		uxtb	r3, r3
 155:User/Hardware/Robstride04.c ****         {
 772              		.loc 1 155 17
 773 014a FE2B     		cmp	r3, #254
 774 014c 40F06781 		bne	.L54
 158:User/Hardware/Robstride04.c ****         }
 775              		.loc 1 158 20
 776 0150 FB68     		ldr	r3, [r7, #12]
 777 0152 0833     		adds	r3, r3, #8
 158:User/Hardware/Robstride04.c ****         }
 778              		.loc 1 158 13
 779 0154 0822     		movs	r2, #8
 780 0156 B968     		ldr	r1, [r7, #8]
 781 0158 1846     		mov	r0, r3
 782 015a FFF7FEFF 		bl	memcpy
 783              		.loc 1 245 1
 784 015e 5EE1     		b	.L54
 785              	.L27:
 164:User/Hardware/Robstride04.c ****         {
 786              		.loc 1 164 24
 787 0160 7B68     		ldr	r3, [r7, #4]
 788 0162 1B0A     		lsrs	r3, r3, #8
 164:User/Hardware/Robstride04.c ****         {
 789              		.loc 1 164 30
 790 0164 DBB2     		uxtb	r3, r3
ARM GAS  C:\Users\Godwin\AppData\Local\Temp\ccNCbe5d.s 			page 19


 164:User/Hardware/Robstride04.c ****         {
 791              		.loc 1 164 46
 792 0166 FA68     		ldr	r2, [r7, #12]
 793 0168 1278     		ldrb	r2, [r2]	@ zero_extendqisi2
 164:User/Hardware/Robstride04.c ****         {
 794              		.loc 1 164 12
 795 016a 9342     		cmp	r3, r2
 796 016c 40F05781 		bne	.L54
 797              	.LBB4:
 166:User/Hardware/Robstride04.c ****             
 798              		.loc 1 166 62
 799 0170 7B68     		ldr	r3, [r7, #4]
 800 0172 1B0E     		lsrs	r3, r3, #24
 166:User/Hardware/Robstride04.c ****             
 801              		.loc 1 166 42
 802 0174 DBB2     		uxtb	r3, r3
 166:User/Hardware/Robstride04.c ****             
 803              		.loc 1 166 21
 804 0176 03F03F03 		and	r3, r3, #63
 805 017a BB77     		strb	r3, [r7, #30]
 168:User/Hardware/Robstride04.c ****             {
 806              		.loc 1 168 16
 807 017c BB7F     		ldrb	r3, [r7, #30]	@ zero_extendqisi2
 808 017e 022B     		cmp	r3, #2
 809 0180 6BD1     		bne	.L32
 171:User/Hardware/Robstride04.c ****                 motor->Pos_Info.Speed = uint16_to_float((uint16_t)(DataFrame[2] << 8) | DataFrame[3
 810              		.loc 1 171 77
 811 0182 BB68     		ldr	r3, [r7, #8]
 812 0184 1B78     		ldrb	r3, [r3]	@ zero_extendqisi2
 171:User/Hardware/Robstride04.c ****                 motor->Pos_Info.Speed = uint16_to_float((uint16_t)(DataFrame[2] << 8) | DataFrame[3
 813              		.loc 1 171 57
 814 0186 1B02     		lsls	r3, r3, #8
 815 0188 9BB2     		uxth	r3, r3
 171:User/Hardware/Robstride04.c ****                 motor->Pos_Info.Speed = uint16_to_float((uint16_t)(DataFrame[2] << 8) | DataFrame[3
 816              		.loc 1 171 98
 817 018a BA68     		ldr	r2, [r7, #8]
 818 018c 0132     		adds	r2, r2, #1
 819 018e 1278     		ldrb	r2, [r2]	@ zero_extendqisi2
 171:User/Hardware/Robstride04.c ****                 motor->Pos_Info.Speed = uint16_to_float((uint16_t)(DataFrame[2] << 8) | DataFrame[3
 820              		.loc 1 171 41
 821 0190 1343     		orrs	r3, r3, r2
 822 0192 9BB2     		uxth	r3, r3
 823 0194 1021     		movs	r1, #16
 824 0196 DFED7C0A 		vldr.32	s1, .L57
 825 019a 9FED7C0A 		vldr.32	s0, .L57+4
 826 019e 1846     		mov	r0, r3
 827 01a0 FFF7FEFF 		bl	uint16_to_float
 828 01a4 F0EE407A 		vmov.f32	s15, s0
 171:User/Hardware/Robstride04.c ****                 motor->Pos_Info.Speed = uint16_to_float((uint16_t)(DataFrame[2] << 8) | DataFrame[3
 829              		.loc 1 171 39 discriminator 1
 830 01a8 FB68     		ldr	r3, [r7, #12]
 831 01aa C3ED137A 		vstr.32	s15, [r3, #76]
 172:User/Hardware/Robstride04.c ****                 motor->Pos_Info.Torque = uint16_to_float((uint16_t)(DataFrame[4] << 8) | DataFrame[
 832              		.loc 1 172 77
 833 01ae BB68     		ldr	r3, [r7, #8]
 834 01b0 0233     		adds	r3, r3, #2
 835 01b2 1B78     		ldrb	r3, [r3]	@ zero_extendqisi2
ARM GAS  C:\Users\Godwin\AppData\Local\Temp\ccNCbe5d.s 			page 20


 172:User/Hardware/Robstride04.c ****                 motor->Pos_Info.Torque = uint16_to_float((uint16_t)(DataFrame[4] << 8) | DataFrame[
 836              		.loc 1 172 57
 837 01b4 1B02     		lsls	r3, r3, #8
 838 01b6 9BB2     		uxth	r3, r3
 172:User/Hardware/Robstride04.c ****                 motor->Pos_Info.Torque = uint16_to_float((uint16_t)(DataFrame[4] << 8) | DataFrame[
 839              		.loc 1 172 98
 840 01b8 BA68     		ldr	r2, [r7, #8]
 841 01ba 0332     		adds	r2, r2, #3
 842 01bc 1278     		ldrb	r2, [r2]	@ zero_extendqisi2
 172:User/Hardware/Robstride04.c ****                 motor->Pos_Info.Torque = uint16_to_float((uint16_t)(DataFrame[4] << 8) | DataFrame[
 843              		.loc 1 172 41
 844 01be 1343     		orrs	r3, r3, r2
 845 01c0 9BB2     		uxth	r3, r3
 846 01c2 1021     		movs	r1, #16
 847 01c4 F2EE0E0A 		vmov.f32	s1, #1.5e+1
 848 01c8 BAEE0E0A 		vmov.f32	s0, #-1.5e+1
 849 01cc 1846     		mov	r0, r3
 850 01ce FFF7FEFF 		bl	uint16_to_float
 851 01d2 F0EE407A 		vmov.f32	s15, s0
 172:User/Hardware/Robstride04.c ****                 motor->Pos_Info.Torque = uint16_to_float((uint16_t)(DataFrame[4] << 8) | DataFrame[
 852              		.loc 1 172 39 discriminator 1
 853 01d6 FB68     		ldr	r3, [r7, #12]
 854 01d8 C3ED147A 		vstr.32	s15, [r3, #80]
 173:User/Hardware/Robstride04.c ****                 motor->Pos_Info.Temp = (float)((uint16_t)(DataFrame[6] << 8) | DataFrame[7]) * 0.1f
 855              		.loc 1 173 78
 856 01dc BB68     		ldr	r3, [r7, #8]
 857 01de 0433     		adds	r3, r3, #4
 858 01e0 1B78     		ldrb	r3, [r3]	@ zero_extendqisi2
 173:User/Hardware/Robstride04.c ****                 motor->Pos_Info.Temp = (float)((uint16_t)(DataFrame[6] << 8) | DataFrame[7]) * 0.1f
 859              		.loc 1 173 58
 860 01e2 1B02     		lsls	r3, r3, #8
 861 01e4 9BB2     		uxth	r3, r3
 173:User/Hardware/Robstride04.c ****                 motor->Pos_Info.Temp = (float)((uint16_t)(DataFrame[6] << 8) | DataFrame[7]) * 0.1f
 862              		.loc 1 173 99
 863 01e6 BA68     		ldr	r2, [r7, #8]
 864 01e8 0532     		adds	r2, r2, #5
 865 01ea 1278     		ldrb	r2, [r2]	@ zero_extendqisi2
 173:User/Hardware/Robstride04.c ****                 motor->Pos_Info.Temp = (float)((uint16_t)(DataFrame[6] << 8) | DataFrame[7]) * 0.1f
 866              		.loc 1 173 42
 867 01ec 1343     		orrs	r3, r3, r2
 868 01ee 9BB2     		uxth	r3, r3
 869 01f0 1021     		movs	r1, #16
 870 01f2 DFED670A 		vldr.32	s1, .L57+8
 871 01f6 9FED670A 		vldr.32	s0, .L57+12
 872 01fa 1846     		mov	r0, r3
 873 01fc FFF7FEFF 		bl	uint16_to_float
 874 0200 F0EE407A 		vmov.f32	s15, s0
 173:User/Hardware/Robstride04.c ****                 motor->Pos_Info.Temp = (float)((uint16_t)(DataFrame[6] << 8) | DataFrame[7]) * 0.1f
 875              		.loc 1 173 40 discriminator 1
 876 0204 FB68     		ldr	r3, [r7, #12]
 877 0206 C3ED157A 		vstr.32	s15, [r3, #84]
 174:User/Hardware/Robstride04.c ****                 
 878              		.loc 1 174 68
 879 020a BB68     		ldr	r3, [r7, #8]
 880 020c 0633     		adds	r3, r3, #6
 881 020e 1B78     		ldrb	r3, [r3]	@ zero_extendqisi2
 174:User/Hardware/Robstride04.c ****                 
ARM GAS  C:\Users\Godwin\AppData\Local\Temp\ccNCbe5d.s 			page 21


 882              		.loc 1 174 48
 883 0210 1B02     		lsls	r3, r3, #8
 884 0212 9BB2     		uxth	r3, r3
 885 0214 1A46     		mov	r2, r3
 174:User/Hardware/Robstride04.c ****                 
 886              		.loc 1 174 89
 887 0216 BB68     		ldr	r3, [r7, #8]
 888 0218 0733     		adds	r3, r3, #7
 889 021a 1B78     		ldrb	r3, [r3]	@ zero_extendqisi2
 174:User/Hardware/Robstride04.c ****                 
 890              		.loc 1 174 78
 891 021c 1343     		orrs	r3, r3, r2
 174:User/Hardware/Robstride04.c ****                 
 892              		.loc 1 174 40
 893 021e 07EE903A 		vmov	s15, r3	@ int
 894 0222 F8EEE77A 		vcvt.f32.s32	s15, s15
 174:User/Hardware/Robstride04.c ****                 
 895              		.loc 1 174 94
 896 0226 9FED5C7A 		vldr.32	s14, .L57+16
 897 022a 67EE877A 		vmul.f32	s15, s15, s14
 174:User/Hardware/Robstride04.c ****                 
 898              		.loc 1 174 38
 899 022e FB68     		ldr	r3, [r7, #12]
 900 0230 C3ED167A 		vstr.32	s15, [r3, #88]
 176:User/Hardware/Robstride04.c ****                 motor->Pos_Info.pattern = (uint8_t)((ID_ExtId >> 22) & 0x03);
 901              		.loc 1 176 57
 902 0234 7B68     		ldr	r3, [r7, #4]
 903 0236 1B0C     		lsrs	r3, r3, #16
 176:User/Hardware/Robstride04.c ****                 motor->Pos_Info.pattern = (uint8_t)((ID_ExtId >> 22) & 0x03);
 904              		.loc 1 176 37
 905 0238 DBB2     		uxtb	r3, r3
 906 023a 03F03F03 		and	r3, r3, #63
 907 023e DAB2     		uxtb	r2, r3
 176:User/Hardware/Robstride04.c ****                 motor->Pos_Info.pattern = (uint8_t)((ID_ExtId >> 22) & 0x03);
 908              		.loc 1 176 35
 909 0240 FB68     		ldr	r3, [r7, #12]
 910 0242 83F84020 		strb	r2, [r3, #64]
 177:User/Hardware/Robstride04.c ****             }
 911              		.loc 1 177 63
 912 0246 7B68     		ldr	r3, [r7, #4]
 913 0248 9B0D     		lsrs	r3, r3, #22
 177:User/Hardware/Robstride04.c ****             }
 914              		.loc 1 177 43
 915 024a DBB2     		uxtb	r3, r3
 916 024c 03F00303 		and	r3, r3, #3
 917 0250 DAB2     		uxtb	r2, r3
 177:User/Hardware/Robstride04.c ****             }
 918              		.loc 1 177 41
 919 0252 FB68     		ldr	r3, [r7, #12]
 920 0254 83F85C20 		strb	r2, [r3, #92]
 921              	.LBE4:
 922              		.loc 1 245 1
 923 0258 E1E0     		b	.L54
 924              	.L32:
 925              	.LBB9:
 179:User/Hardware/Robstride04.c ****             {
 926              		.loc 1 179 21
ARM GAS  C:\Users\Godwin\AppData\Local\Temp\ccNCbe5d.s 			page 22


 927 025a BB7F     		ldrb	r3, [r7, #30]	@ zero_extendqisi2
 928 025c 112B     		cmp	r3, #17
 929 025e 40F0CC80 		bne	.L33
 930              	.LBB5:
 182:User/Hardware/Robstride04.c ****                 
 931              		.loc 1 182 54
 932 0262 BB68     		ldr	r3, [r7, #8]
 933 0264 0133     		adds	r3, r3, #1
 934 0266 1B78     		ldrb	r3, [r3]	@ zero_extendqisi2
 182:User/Hardware/Robstride04.c ****                 
 935              		.loc 1 182 34
 936 0268 1B02     		lsls	r3, r3, #8
 937 026a 9BB2     		uxth	r3, r3
 182:User/Hardware/Robstride04.c ****                 
 938              		.loc 1 182 75
 939 026c BA68     		ldr	r2, [r7, #8]
 940 026e 1278     		ldrb	r2, [r2]	@ zero_extendqisi2
 182:User/Hardware/Robstride04.c ****                 
 941              		.loc 1 182 26
 942 0270 1343     		orrs	r3, r3, r2
 943 0272 BB83     		strh	r3, [r7, #28]	@ movhi
 944              	.LBB6:
 184:User/Hardware/Robstride04.c ****                 {
 945              		.loc 1 184 30
 946 0274 0023     		movs	r3, #0
 947 0276 FB77     		strb	r3, [r7, #31]
 184:User/Hardware/Robstride04.c ****                 {
 948              		.loc 1 184 17
 949 0278 BAE0     		b	.L34
 950              	.L53:
 186:User/Hardware/Robstride04.c ****                     {
 951              		.loc 1 186 44
 952 027a FB7F     		ldrb	r3, [r7, #31]	@ zero_extendqisi2
 953 027c 474A     		ldr	r2, .L57+20
 954 027e 32F81330 		ldrh	r3, [r2, r3, lsl #1]
 186:User/Hardware/Robstride04.c ****                     {
 955              		.loc 1 186 24
 956 0282 BA8B     		ldrh	r2, [r7, #28]
 957 0284 9A42     		cmp	r2, r3
 958 0286 40F0B080 		bne	.L35
 188:User/Hardware/Robstride04.c ****                         {
 959              		.loc 1 188 25
 960 028a FB7F     		ldrb	r3, [r7, #31]	@ zero_extendqisi2
 961 028c 0D2B     		cmp	r3, #13
 962 028e 00F2C580 		bhi	.L55
 963 0292 01A2     		adr	r2, .L38
 964 0294 52F823F0 		ldr	pc, [r2, r3, lsl #2]
 965              		.p2align 2
 966              	.L38:
 967 0298 D1020000 		.word	.L51+1
 968 029c E7020000 		.word	.L50+1
 969 02a0 F9020000 		.word	.L49+1
 970 02a4 0B030000 		.word	.L48+1
 971 02a8 1D030000 		.word	.L47+1
 972 02ac 2F030000 		.word	.L46+1
 973 02b0 41030000 		.word	.L45+1
 974 02b4 53030000 		.word	.L44+1
ARM GAS  C:\Users\Godwin\AppData\Local\Temp\ccNCbe5d.s 			page 23


 975 02b8 65030000 		.word	.L43+1
 976 02bc 77030000 		.word	.L42+1
 977 02c0 A1030000 		.word	.L41+1
 978 02c4 B3030000 		.word	.L40+1
 979 02c8 C5030000 		.word	.L39+1
 980 02cc D7030000 		.word	.L37+1
 981              		.p2align 1
 982              	.L51:
 191:User/Hardware/Robstride04.c ****                                 break;
 983              		.loc 1 191 76
 984 02d0 BB68     		ldr	r3, [r7, #8]
 985 02d2 0433     		adds	r3, r3, #4
 986 02d4 1B78     		ldrb	r3, [r3]	@ zero_extendqisi2
 191:User/Hardware/Robstride04.c ****                                 break;
 987              		.loc 1 191 60
 988 02d6 07EE903A 		vmov	s15, r3	@ int
 989 02da F8EE677A 		vcvt.f32.u32	s15, s15
 191:User/Hardware/Robstride04.c ****                                 break;
 990              		.loc 1 191 58
 991 02de FB68     		ldr	r3, [r7, #12]
 992 02e0 C3ED197A 		vstr.32	s15, [r3, #100]
 192:User/Hardware/Robstride04.c ****                             case 1:
 993              		.loc 1 192 33
 994 02e4 80E0     		b	.L36
 995              	.L50:
 194:User/Hardware/Robstride04.c ****                                 break;
 996              		.loc 1 194 58
 997 02e6 B868     		ldr	r0, [r7, #8]
 998 02e8 FFF7FEFF 		bl	Byte_to_float
 999 02ec F0EE407A 		vmov.f32	s15, s0
 194:User/Hardware/Robstride04.c ****                                 break;
 1000              		.loc 1 194 56 discriminator 1
 1001 02f0 FB68     		ldr	r3, [r7, #12]
 1002 02f2 C3ED1B7A 		vstr.32	s15, [r3, #108]
 195:User/Hardware/Robstride04.c ****                             case 2:
 1003              		.loc 1 195 33
 1004 02f6 77E0     		b	.L36
 1005              	.L49:
 197:User/Hardware/Robstride04.c ****                                 break;
 1006              		.loc 1 197 59
 1007 02f8 B868     		ldr	r0, [r7, #8]
 1008 02fa FFF7FEFF 		bl	Byte_to_float
 1009 02fe F0EE407A 		vmov.f32	s15, s0
 197:User/Hardware/Robstride04.c ****                                 break;
 1010              		.loc 1 197 57 discriminator 1
 1011 0302 FB68     		ldr	r3, [r7, #12]
 1012 0304 C3ED1D7A 		vstr.32	s15, [r3, #116]
 198:User/Hardware/Robstride04.c ****                             case 3:
 1013              		.loc 1 198 33
 1014 0308 6EE0     		b	.L36
 1015              	.L48:
 200:User/Hardware/Robstride04.c ****                                 break;
 1016              		.loc 1 200 63
 1017 030a B868     		ldr	r0, [r7, #8]
 1018 030c FFF7FEFF 		bl	Byte_to_float
 1019 0310 F0EE407A 		vmov.f32	s15, s0
 200:User/Hardware/Robstride04.c ****                                 break;
ARM GAS  C:\Users\Godwin\AppData\Local\Temp\ccNCbe5d.s 			page 24


 1020              		.loc 1 200 61 discriminator 1
 1021 0314 FB68     		ldr	r3, [r7, #12]
 1022 0316 C3ED1F7A 		vstr.32	s15, [r3, #124]
 201:User/Hardware/Robstride04.c ****                             case 4:
 1023              		.loc 1 201 33
 1024 031a 65E0     		b	.L36
 1025              	.L47:
 203:User/Hardware/Robstride04.c ****                                 break;
 1026              		.loc 1 203 58
 1027 031c B868     		ldr	r0, [r7, #8]
 1028 031e FFF7FEFF 		bl	Byte_to_float
 1029 0322 F0EE407A 		vmov.f32	s15, s0
 203:User/Hardware/Robstride04.c ****                                 break;
 1030              		.loc 1 203 56 discriminator 1
 1031 0326 FB68     		ldr	r3, [r7, #12]
 1032 0328 C3ED217A 		vstr.32	s15, [r3, #132]
 204:User/Hardware/Robstride04.c ****                             case 5:
 1033              		.loc 1 204 33
 1034 032c 5CE0     		b	.L36
 1035              	.L46:
 206:User/Hardware/Robstride04.c ****                                 break;
 1036              		.loc 1 206 58
 1037 032e B868     		ldr	r0, [r7, #8]
 1038 0330 FFF7FEFF 		bl	Byte_to_float
 1039 0334 F0EE407A 		vmov.f32	s15, s0
 206:User/Hardware/Robstride04.c ****                                 break;
 1040              		.loc 1 206 56 discriminator 1
 1041 0338 FB68     		ldr	r3, [r7, #12]
 1042 033a C3ED237A 		vstr.32	s15, [r3, #140]
 207:User/Hardware/Robstride04.c ****                             case 6:
 1043              		.loc 1 207 33
 1044 033e 53E0     		b	.L36
 1045              	.L45:
 209:User/Hardware/Robstride04.c ****                                 break;
 1046              		.loc 1 209 65
 1047 0340 B868     		ldr	r0, [r7, #8]
 1048 0342 FFF7FEFF 		bl	Byte_to_float
 1049 0346 F0EE407A 		vmov.f32	s15, s0
 209:User/Hardware/Robstride04.c ****                                 break;
 1050              		.loc 1 209 63 discriminator 1
 1051 034a FB68     		ldr	r3, [r7, #12]
 1052 034c C3ED257A 		vstr.32	s15, [r3, #148]
 210:User/Hardware/Robstride04.c ****                             case 7:
 1053              		.loc 1 210 33
 1054 0350 4AE0     		b	.L36
 1055              	.L44:
 212:User/Hardware/Robstride04.c ****                                 break;
 1056              		.loc 1 212 59
 1057 0352 B868     		ldr	r0, [r7, #8]
 1058 0354 FFF7FEFF 		bl	Byte_to_float
 1059 0358 F0EE407A 		vmov.f32	s15, s0
 212:User/Hardware/Robstride04.c ****                                 break;
 1060              		.loc 1 212 57 discriminator 1
 1061 035c FB68     		ldr	r3, [r7, #12]
 1062 035e C3ED277A 		vstr.32	s15, [r3, #156]
 213:User/Hardware/Robstride04.c ****                             case 8:
 1063              		.loc 1 213 33
ARM GAS  C:\Users\Godwin\AppData\Local\Temp\ccNCbe5d.s 			page 25


 1064 0362 41E0     		b	.L36
 1065              	.L43:
 215:User/Hardware/Robstride04.c ****                                 break;
 1066              		.loc 1 215 61
 1067 0364 B868     		ldr	r0, [r7, #8]
 1068 0366 FFF7FEFF 		bl	Byte_to_float
 1069 036a F0EE407A 		vmov.f32	s15, s0
 215:User/Hardware/Robstride04.c ****                                 break;
 1070              		.loc 1 215 59 discriminator 1
 1071 036e FB68     		ldr	r3, [r7, #12]
 1072 0370 C3ED297A 		vstr.32	s15, [r3, #164]
 216:User/Hardware/Robstride04.c ****                             case 9:
 1073              		.loc 1 216 33
 1074 0374 38E0     		b	.L36
 1075              	.L42:
 218:User/Hardware/Robstride04.c ****                                 break;
 1076              		.loc 1 218 61
 1077 0376 B868     		ldr	r0, [r7, #8]
 1078 0378 FFF7FEFF 		bl	Byte_to_float
 1079 037c F0EE407A 		vmov.f32	s15, s0
 218:User/Hardware/Robstride04.c ****                                 break;
 1080              		.loc 1 218 59 discriminator 1
 1081 0380 FB68     		ldr	r3, [r7, #12]
 1082 0382 C3ED2B7A 		vstr.32	s15, [r3, #172]
 219:User/Hardware/Robstride04.c ****                             case 10:
 1083              		.loc 1 219 33
 1084 0386 2FE0     		b	.L36
 1085              	.L58:
 1086              		.align	2
 1087              	.L57:
 1088 0388 B81E4941 		.word	1095311032
 1089 038c B81E49C1 		.word	-1052172616
 1090 0390 0000F042 		.word	1123024896
 1091 0394 0000F0C2 		.word	-1024458752
 1092 0398 CDCCCC3D 		.word	1036831949
 1093 039c 00000000 		.word	Index_List
 1094              	.L41:
 221:User/Hardware/Robstride04.c ****                                 break;
 1095              		.loc 1 221 59
 1096 03a0 B868     		ldr	r0, [r7, #8]
 1097 03a2 FFF7FEFF 		bl	Byte_to_float
 1098 03a6 F0EE407A 		vmov.f32	s15, s0
 221:User/Hardware/Robstride04.c ****                                 break;
 1099              		.loc 1 221 57 discriminator 1
 1100 03aa FB68     		ldr	r3, [r7, #12]
 1101 03ac C3ED2D7A 		vstr.32	s15, [r3, #180]
 222:User/Hardware/Robstride04.c ****                             case 11:
 1102              		.loc 1 222 33
 1103 03b0 1AE0     		b	.L36
 1104              	.L40:
 224:User/Hardware/Robstride04.c ****                                 break;
 1105              		.loc 1 224 55
 1106 03b2 B868     		ldr	r0, [r7, #8]
 1107 03b4 FFF7FEFF 		bl	Byte_to_float
 1108 03b8 F0EE407A 		vmov.f32	s15, s0
 224:User/Hardware/Robstride04.c ****                                 break;
 1109              		.loc 1 224 53 discriminator 1
ARM GAS  C:\Users\Godwin\AppData\Local\Temp\ccNCbe5d.s 			page 26


 1110 03bc FB68     		ldr	r3, [r7, #12]
 1111 03be C3ED2F7A 		vstr.32	s15, [r3, #188]
 225:User/Hardware/Robstride04.c ****                             case 12:
 1112              		.loc 1 225 33
 1113 03c2 11E0     		b	.L36
 1114              	.L39:
 227:User/Hardware/Robstride04.c ****                                 break;
 1115              		.loc 1 227 59
 1116 03c4 B868     		ldr	r0, [r7, #8]
 1117 03c6 FFF7FEFF 		bl	Byte_to_float
 1118 03ca F0EE407A 		vmov.f32	s15, s0
 227:User/Hardware/Robstride04.c ****                                 break;
 1119              		.loc 1 227 57 discriminator 1
 1120 03ce FB68     		ldr	r3, [r7, #12]
 1121 03d0 C3ED317A 		vstr.32	s15, [r3, #196]
 228:User/Hardware/Robstride04.c ****                             case 13:
 1122              		.loc 1 228 33
 1123 03d4 08E0     		b	.L36
 1124              	.L37:
 230:User/Hardware/Robstride04.c ****                                 break;
 1125              		.loc 1 230 56
 1126 03d6 B868     		ldr	r0, [r7, #8]
 1127 03d8 FFF7FEFF 		bl	Byte_to_float
 1128 03dc F0EE407A 		vmov.f32	s15, s0
 230:User/Hardware/Robstride04.c ****                                 break;
 1129              		.loc 1 230 54 discriminator 1
 1130 03e0 FB68     		ldr	r3, [r7, #12]
 1131 03e2 C3ED337A 		vstr.32	s15, [r3, #204]
 231:User/Hardware/Robstride04.c ****                         }
 1132              		.loc 1 231 33
 1133 03e6 00BF     		nop
 1134              	.L36:
 233:User/Hardware/Robstride04.c ****                     }
 1135              		.loc 1 233 25
 1136 03e8 18E0     		b	.L55
 1137              	.L35:
 184:User/Hardware/Robstride04.c ****                 {
 1138              		.loc 1 184 71 discriminator 2
 1139 03ea FB7F     		ldrb	r3, [r7, #31]	@ zero_extendqisi2
 1140 03ec 0133     		adds	r3, r3, #1
 1141 03ee FB77     		strb	r3, [r7, #31]
 1142              	.L34:
 184:User/Hardware/Robstride04.c ****                 {
 1143              		.loc 1 184 55 discriminator 1
 1144 03f0 FB7F     		ldrb	r3, [r7, #31]	@ zero_extendqisi2
 1145 03f2 0D2B     		cmp	r3, #13
 1146 03f4 7FF641AF 		bls	.L53
 1147              	.LBE6:
 1148              	.LBE5:
 1149              	.LBE9:
 1150              		.loc 1 245 1
 1151 03f8 11E0     		b	.L54
 1152              	.L33:
 1153              	.LBB10:
 237:User/Hardware/Robstride04.c ****             {
 1154              		.loc 1 237 32
 1155 03fa 7B68     		ldr	r3, [r7, #4]
ARM GAS  C:\Users\Godwin\AppData\Local\Temp\ccNCbe5d.s 			page 27


 1156 03fc DBB2     		uxtb	r3, r3
 237:User/Hardware/Robstride04.c ****             {
 1157              		.loc 1 237 21
 1158 03fe FE2B     		cmp	r3, #254
 1159 0400 0DD1     		bne	.L54
 240:User/Hardware/Robstride04.c ****                 memcpy(&motor->Unique_ID, DataFrame, 8);
 1160              		.loc 1 240 53
 1161 0402 7B68     		ldr	r3, [r7, #4]
 1162 0404 1B0A     		lsrs	r3, r3, #8
 240:User/Hardware/Robstride04.c ****                 memcpy(&motor->Unique_ID, DataFrame, 8);
 1163              		.loc 1 240 33
 1164 0406 DAB2     		uxtb	r2, r3
 240:User/Hardware/Robstride04.c ****                 memcpy(&motor->Unique_ID, DataFrame, 8);
 1165              		.loc 1 240 31
 1166 0408 FB68     		ldr	r3, [r7, #12]
 1167 040a 1A70     		strb	r2, [r3]
 241:User/Hardware/Robstride04.c ****             }
 1168              		.loc 1 241 24
 1169 040c FB68     		ldr	r3, [r7, #12]
 1170 040e 0833     		adds	r3, r3, #8
 241:User/Hardware/Robstride04.c ****             }
 1171              		.loc 1 241 17
 1172 0410 0822     		movs	r2, #8
 1173 0412 B968     		ldr	r1, [r7, #8]
 1174 0414 1846     		mov	r0, r3
 1175 0416 FFF7FEFF 		bl	memcpy
 1176              	.LBE10:
 1177              		.loc 1 245 1
 1178 041a 00E0     		b	.L54
 1179              	.L55:
 1180              	.LBB11:
 1181              	.LBB8:
 1182              	.LBB7:
 233:User/Hardware/Robstride04.c ****                     }
 1183              		.loc 1 233 25
 1184 041c 00BF     		nop
 1185              	.L31:
 1186              	.L54:
 1187              	.LBE7:
 1188              	.LBE8:
 1189              	.LBE11:
 1190              		.loc 1 245 1
 1191 041e 00BF     		nop
 1192 0420 2037     		adds	r7, r7, #32
 1193              	.LCFI37:
 1194              		.cfi_def_cfa_offset 8
 1195 0422 BD46     		mov	sp, r7
 1196              	.LCFI38:
 1197              		.cfi_def_cfa_register 13
 1198              		@ sp needed
 1199 0424 80BD     		pop	{r7, pc}
 1200              		.cfi_endproc
 1201              	.LFE150:
 1203 0426 00BF     		.section	.text.RobStride_Get_CAN_ID,"ax",%progbits
 1204              		.align	1
 1205              		.global	RobStride_Get_CAN_ID
 1206              		.syntax unified
ARM GAS  C:\Users\Godwin\AppData\Local\Temp\ccNCbe5d.s 			page 28


 1207              		.thumb
 1208              		.thumb_func
 1210              	RobStride_Get_CAN_ID:
 1211              	.LFB151:
 246:User/Hardware/Robstride04.c **** 
 247:User/Hardware/Robstride04.c **** /*******************************************************************************
 248:User/Hardware/Robstride04.c **** * 函数功能  : RobStride电机获取设备ID和MCU
 249:User/Hardware/Robstride04.c **** *******************************************************************************/
 250:User/Hardware/Robstride04.c **** void RobStride_Get_CAN_ID(RobStride_Motor_t* motor)
 251:User/Hardware/Robstride04.c **** {
 1212              		.loc 1 251 1
 1213              		.cfi_startproc
 1214              		@ args = 0, pretend = 0, frame = 40
 1215              		@ frame_needed = 1, uses_anonymous_args = 0
 1216 0000 80B5     		push	{r7, lr}
 1217              	.LCFI39:
 1218              		.cfi_def_cfa_offset 8
 1219              		.cfi_offset 7, -8
 1220              		.cfi_offset 14, -4
 1221 0002 8AB0     		sub	sp, sp, #40
 1222              	.LCFI40:
 1223              		.cfi_def_cfa_offset 48
 1224 0004 00AF     		add	r7, sp, #0
 1225              	.LCFI41:
 1226              		.cfi_def_cfa_register 7
 1227 0006 7860     		str	r0, [r7, #4]
 252:User/Hardware/Robstride04.c ****     uint8_t txdata[8] = {0};
 1228              		.loc 1 252 13
 1229 0008 07F12003 		add	r3, r7, #32
 1230 000c 0022     		movs	r2, #0
 1231 000e 1A60     		str	r2, [r3]
 1232 0010 5A60     		str	r2, [r3, #4]
 253:User/Hardware/Robstride04.c ****     CAN_TxHeaderTypeDef TxMessage;
 254:User/Hardware/Robstride04.c ****     
 255:User/Hardware/Robstride04.c ****     TxMessage.IDE = CAN_ID_EXT;
 1233              		.loc 1 255 19
 1234 0012 0123     		movs	r3, #1
 1235 0014 7B61     		str	r3, [r7, #20]
 256:User/Hardware/Robstride04.c ****     TxMessage.RTR = CAN_RTR_DATA;
 1236              		.loc 1 256 19
 1237 0016 0023     		movs	r3, #0
 1238 0018 BB61     		str	r3, [r7, #24]
 257:User/Hardware/Robstride04.c ****     TxMessage.DLC = 8;
 1239              		.loc 1 257 19
 1240 001a 0823     		movs	r3, #8
 1241 001c FB61     		str	r3, [r7, #28]
 258:User/Hardware/Robstride04.c ****     TxMessage.ExtId = Communication_Type_Get_ID << 24 | (uint32_t)motor->Master_CAN_ID << 8 | motor
 1242              		.loc 1 258 72
 1243 001e 7B68     		ldr	r3, [r7, #4]
 1244 0020 1B8A     		ldrh	r3, [r3, #16]
 1245              		.loc 1 258 55
 1246 0022 1B02     		lsls	r3, r3, #8
 1247              		.loc 1 258 100
 1248 0024 7A68     		ldr	r2, [r7, #4]
 1249 0026 1278     		ldrb	r2, [r2]	@ zero_extendqisi2
 1250              		.loc 1 258 93
 1251 0028 1343     		orrs	r3, r3, r2
ARM GAS  C:\Users\Godwin\AppData\Local\Temp\ccNCbe5d.s 			page 29


 1252              		.loc 1 258 21
 1253 002a 3B61     		str	r3, [r7, #16]
 259:User/Hardware/Robstride04.c ****     
 260:User/Hardware/Robstride04.c ****     // 使用扩展帧发送函数
 261:User/Hardware/Robstride04.c ****     canx_send_ext_data(&hfdcan2, TxMessage.ExtId, txdata, TxMessage.DLC);
 1254              		.loc 1 261 5
 1255 002c 3969     		ldr	r1, [r7, #16]
 1256 002e FB69     		ldr	r3, [r7, #28]
 1257 0030 07F12002 		add	r2, r7, #32
 1258 0034 0348     		ldr	r0, .L60
 1259 0036 FFF7FEFF 		bl	canx_send_ext_data
 262:User/Hardware/Robstride04.c **** }
 1260              		.loc 1 262 1
 1261 003a 00BF     		nop
 1262 003c 2837     		adds	r7, r7, #40
 1263              	.LCFI42:
 1264              		.cfi_def_cfa_offset 8
 1265 003e BD46     		mov	sp, r7
 1266              	.LCFI43:
 1267              		.cfi_def_cfa_register 13
 1268              		@ sp needed
 1269 0040 80BD     		pop	{r7, pc}
 1270              	.L61:
 1271 0042 00BF     		.align	2
 1272              	.L60:
 1273 0044 00000000 		.word	hfdcan2
 1274              		.cfi_endproc
 1275              	.LFE151:
 1277              		.section	.text.RobStride_Motor_move_control,"ax",%progbits
 1278              		.align	1
 1279              		.global	RobStride_Motor_move_control
 1280              		.syntax unified
 1281              		.thumb
 1282              		.thumb_func
 1284              	RobStride_Motor_move_control:
 1285              	.LFB152:
 263:User/Hardware/Robstride04.c **** 
 264:User/Hardware/Robstride04.c **** /*******************************************************************************
 265:User/Hardware/Robstride04.c **** * 函数功能  : RobStride电机运控模式
 266:User/Hardware/Robstride04.c **** *******************************************************************************/
 267:User/Hardware/Robstride04.c **** void RobStride_Motor_move_control(RobStride_Motor_t* motor, float Torque, float Angle, float Speed,
 268:User/Hardware/Robstride04.c **** {
 1286              		.loc 1 268 1
 1287              		.cfi_startproc
 1288              		@ args = 0, pretend = 0, frame = 64
 1289              		@ frame_needed = 1, uses_anonymous_args = 0
 1290 0000 80B5     		push	{r7, lr}
 1291              	.LCFI44:
 1292              		.cfi_def_cfa_offset 8
 1293              		.cfi_offset 7, -8
 1294              		.cfi_offset 14, -4
 1295 0002 90B0     		sub	sp, sp, #64
 1296              	.LCFI45:
 1297              		.cfi_def_cfa_offset 72
 1298 0004 00AF     		add	r7, sp, #0
 1299              	.LCFI46:
 1300              		.cfi_def_cfa_register 7
ARM GAS  C:\Users\Godwin\AppData\Local\Temp\ccNCbe5d.s 			page 30


 1301 0006 7861     		str	r0, [r7, #20]
 1302 0008 87ED040A 		vstr.32	s0, [r7, #16]
 1303 000c C7ED030A 		vstr.32	s1, [r7, #12]
 1304 0010 87ED021A 		vstr.32	s2, [r7, #8]
 1305 0014 C7ED011A 		vstr.32	s3, [r7, #4]
 1306 0018 87ED002A 		vstr.32	s4, [r7]
 269:User/Hardware/Robstride04.c ****     uint8_t txdata[8] = {0};
 1307              		.loc 1 269 13
 1308 001c 07F13003 		add	r3, r7, #48
 1309 0020 0022     		movs	r2, #0
 1310 0022 1A60     		str	r2, [r3]
 1311 0024 5A60     		str	r2, [r3, #4]
 270:User/Hardware/Robstride04.c ****     CAN_TxHeaderTypeDef TxMessage;
 271:User/Hardware/Robstride04.c ****     
 272:User/Hardware/Robstride04.c ****     motor->Motor_Set_All.set_Torque = Torque;
 1312              		.loc 1 272 37
 1313 0026 7B69     		ldr	r3, [r7, #20]
 1314 0028 3A69     		ldr	r2, [r7, #16]	@ float
 1315 002a 5A62     		str	r2, [r3, #36]	@ float
 273:User/Hardware/Robstride04.c ****     motor->Motor_Set_All.set_angle = Angle;
 1316              		.loc 1 273 36
 1317 002c 7B69     		ldr	r3, [r7, #20]
 1318 002e FA68     		ldr	r2, [r7, #12]	@ float
 1319 0030 9A62     		str	r2, [r3, #40]	@ float
 274:User/Hardware/Robstride04.c ****     motor->Motor_Set_All.set_speed = Speed;
 1320              		.loc 1 274 36
 1321 0032 7B69     		ldr	r3, [r7, #20]
 1322 0034 BA68     		ldr	r2, [r7, #8]	@ float
 1323 0036 DA61     		str	r2, [r3, #28]	@ float
 275:User/Hardware/Robstride04.c ****     motor->Motor_Set_All.set_Kp = Kp;
 1324              		.loc 1 275 33
 1325 0038 7B69     		ldr	r3, [r7, #20]
 1326 003a 7A68     		ldr	r2, [r7, #4]	@ float
 1327 003c 5A63     		str	r2, [r3, #52]	@ float
 276:User/Hardware/Robstride04.c ****     motor->Motor_Set_All.set_Kd = Kd;
 1328              		.loc 1 276 33
 1329 003e 7B69     		ldr	r3, [r7, #20]
 1330 0040 3A68     		ldr	r2, [r7]	@ float
 1331 0042 DA63     		str	r2, [r3, #60]	@ float
 277:User/Hardware/Robstride04.c ****     
 278:User/Hardware/Robstride04.c ****     if (motor->drw.run_mode.data != 0)
 1332              		.loc 1 278 28
 1333 0044 7B69     		ldr	r3, [r7, #20]
 1334 0046 D3ED197A 		vldr.32	s15, [r3, #100]
 1335              		.loc 1 278 8
 1336 004a F5EE407A 		vcmp.f32	s15, #0
 1337 004e F1EE10FA 		vmrs	APSR_nzcv, FPSCR
 1338 0052 12D0     		beq	.L63
 279:User/Hardware/Robstride04.c ****     {
 280:User/Hardware/Robstride04.c ****         Set_RobStride_Motor_parameter(motor, 0X7005, move_control_mode, 'j');
 1339              		.loc 1 280 9
 1340 0054 6A22     		movs	r2, #106
 1341 0056 9FED4F0A 		vldr.32	s0, .L65
 1342 005a 47F20501 		movw	r1, #28677
 1343 005e 7869     		ldr	r0, [r7, #20]
 1344 0060 FFF7FEFF 		bl	Set_RobStride_Motor_parameter
 281:User/Hardware/Robstride04.c ****         Get_RobStride_Motor_parameter(motor, 0x7005);
ARM GAS  C:\Users\Godwin\AppData\Local\Temp\ccNCbe5d.s 			page 31


 1345              		.loc 1 281 9
 1346 0064 47F20501 		movw	r1, #28677
 1347 0068 7869     		ldr	r0, [r7, #20]
 1348 006a FFF7FEFF 		bl	Get_RobStride_Motor_parameter
 282:User/Hardware/Robstride04.c ****         Enable_Motor(motor);
 1349              		.loc 1 282 9
 1350 006e 7869     		ldr	r0, [r7, #20]
 1351 0070 FFF7FEFF 		bl	Enable_Motor
 283:User/Hardware/Robstride04.c ****         motor->Motor_Set_All.set_motor_mode = move_control_mode;
 1352              		.loc 1 283 45
 1353 0074 7B69     		ldr	r3, [r7, #20]
 1354 0076 0022     		movs	r2, #0
 1355 0078 1A75     		strb	r2, [r3, #20]
 1356              	.L63:
 284:User/Hardware/Robstride04.c ****     }
 285:User/Hardware/Robstride04.c ****     
 286:User/Hardware/Robstride04.c ****     if (motor->Pos_Info.pattern != 2)
 1357              		.loc 1 286 24
 1358 007a 7B69     		ldr	r3, [r7, #20]
 1359 007c 93F85C30 		ldrb	r3, [r3, #92]	@ zero_extendqisi2
 1360              		.loc 1 286 8
 1361 0080 022B     		cmp	r3, #2
 1362 0082 02D0     		beq	.L64
 287:User/Hardware/Robstride04.c ****     {
 288:User/Hardware/Robstride04.c ****         Enable_Motor(motor);
 1363              		.loc 1 288 9
 1364 0084 7869     		ldr	r0, [r7, #20]
 1365 0086 FFF7FEFF 		bl	Enable_Motor
 1366              	.L64:
 289:User/Hardware/Robstride04.c ****     }
 290:User/Hardware/Robstride04.c ****     
 291:User/Hardware/Robstride04.c ****     TxMessage.IDE = CAN_ID_EXT;
 1367              		.loc 1 291 19
 1368 008a 0123     		movs	r3, #1
 1369 008c 7B62     		str	r3, [r7, #36]
 292:User/Hardware/Robstride04.c ****     TxMessage.RTR = CAN_RTR_DATA;
 1370              		.loc 1 292 19
 1371 008e 0023     		movs	r3, #0
 1372 0090 BB62     		str	r3, [r7, #40]
 293:User/Hardware/Robstride04.c ****     TxMessage.DLC = 8;
 1373              		.loc 1 293 19
 1374 0092 0823     		movs	r3, #8
 1375 0094 FB62     		str	r3, [r7, #44]
 294:User/Hardware/Robstride04.c ****     TxMessage.ExtId = (uint32_t)Communication_Type_MotionControl << 24 |
 295:User/Hardware/Robstride04.c ****                       (uint32_t)float_to_uint_lz(motor->Motor_Set_All.set_Torque, T_MIN, T_MAX, 16)
 1376              		.loc 1 295 33
 1377 0096 7B69     		ldr	r3, [r7, #20]
 1378 0098 D3ED097A 		vldr.32	s15, [r3, #36]
 1379 009c 1020     		movs	r0, #16
 1380 009e 9FED3E1A 		vldr.32	s2, .L65+4
 1381 00a2 DFED3E0A 		vldr.32	s1, .L65+8
 1382 00a6 B0EE670A 		vmov.f32	s0, s15
 1383 00aa FFF7FEFF 		bl	float_to_uint_lz
 1384 00ae 0346     		mov	r3, r0
 1385              		.loc 1 295 101 discriminator 1
 1386 00b0 1B02     		lsls	r3, r3, #8
 296:User/Hardware/Robstride04.c ****                       motor->CAN_ID;
ARM GAS  C:\Users\Godwin\AppData\Local\Temp\ccNCbe5d.s 			page 32


 1387              		.loc 1 296 28
 1388 00b2 7A69     		ldr	r2, [r7, #20]
 1389 00b4 1278     		ldrb	r2, [r2]	@ zero_extendqisi2
 295:User/Hardware/Robstride04.c ****                       motor->CAN_ID;
 1390              		.loc 1 295 106
 1391 00b6 1343     		orrs	r3, r3, r2
 1392 00b8 43F08073 		orr	r3, r3, #16777216
 294:User/Hardware/Robstride04.c ****     TxMessage.ExtId = (uint32_t)Communication_Type_MotionControl << 24 |
 1393              		.loc 1 294 21
 1394 00bc 3B62     		str	r3, [r7, #32]
 297:User/Hardware/Robstride04.c ****     
 298:User/Hardware/Robstride04.c ****     uint16_t angle_uint = float_to_uint_lz(motor->Motor_Set_All.set_angle, P_MIN, P_MAX, 16);
 1395              		.loc 1 298 27
 1396 00be 7B69     		ldr	r3, [r7, #20]
 1397 00c0 D3ED0A7A 		vldr.32	s15, [r3, #40]
 1398 00c4 1020     		movs	r0, #16
 1399 00c6 9FED361A 		vldr.32	s2, .L65+12
 1400 00ca DFED360A 		vldr.32	s1, .L65+16
 1401 00ce B0EE670A 		vmov.f32	s0, s15
 1402 00d2 FFF7FEFF 		bl	float_to_uint_lz
 1403 00d6 0346     		mov	r3, r0
 1404 00d8 FB87     		strh	r3, [r7, #62]	@ movhi
 299:User/Hardware/Robstride04.c ****     uint16_t speed_uint = float_to_uint_lz(motor->Motor_Set_All.set_speed, V_MIN, V_MAX, 16);
 1405              		.loc 1 299 27
 1406 00da 7B69     		ldr	r3, [r7, #20]
 1407 00dc D3ED077A 		vldr.32	s15, [r3, #28]
 1408 00e0 1020     		movs	r0, #16
 1409 00e2 B2EE0E1A 		vmov.f32	s2, #1.5e+1
 1410 00e6 FAEE0E0A 		vmov.f32	s1, #-1.5e+1
 1411 00ea B0EE670A 		vmov.f32	s0, s15
 1412 00ee FFF7FEFF 		bl	float_to_uint_lz
 1413 00f2 0346     		mov	r3, r0
 1414 00f4 BB87     		strh	r3, [r7, #60]	@ movhi
 300:User/Hardware/Robstride04.c ****     uint16_t kp_uint = float_to_uint_lz(motor->Motor_Set_All.set_Kp, KP_MIN, KP_MAX, 16);
 1415              		.loc 1 300 24
 1416 00f6 7B69     		ldr	r3, [r7, #20]
 1417 00f8 D3ED0D7A 		vldr.32	s15, [r3, #52]
 1418 00fc 1020     		movs	r0, #16
 1419 00fe 9FED2A1A 		vldr.32	s2, .L65+20
 1420 0102 DFED240A 		vldr.32	s1, .L65
 1421 0106 B0EE670A 		vmov.f32	s0, s15
 1422 010a FFF7FEFF 		bl	float_to_uint_lz
 1423 010e 0346     		mov	r3, r0
 1424 0110 7B87     		strh	r3, [r7, #58]	@ movhi
 301:User/Hardware/Robstride04.c ****     uint16_t kd_uint = float_to_uint_lz(motor->Motor_Set_All.set_Kd, KD_MIN, KD_MAX, 16);
 1425              		.loc 1 301 24
 1426 0112 7B69     		ldr	r3, [r7, #20]
 1427 0114 D3ED0F7A 		vldr.32	s15, [r3, #60]
 1428 0118 1020     		movs	r0, #16
 1429 011a 9FED241A 		vldr.32	s2, .L65+24
 1430 011e DFED1D0A 		vldr.32	s1, .L65
 1431 0122 B0EE670A 		vmov.f32	s0, s15
 1432 0126 FFF7FEFF 		bl	float_to_uint_lz
 1433 012a 0346     		mov	r3, r0
 1434 012c 3B87     		strh	r3, [r7, #56]	@ movhi
 302:User/Hardware/Robstride04.c ****     
 303:User/Hardware/Robstride04.c ****     txdata[0] = (uint8_t)(angle_uint >> 8);
ARM GAS  C:\Users\Godwin\AppData\Local\Temp\ccNCbe5d.s 			page 33


 1435              		.loc 1 303 17
 1436 012e FB8F     		ldrh	r3, [r7, #62]
 1437 0130 1B0A     		lsrs	r3, r3, #8
 1438 0132 9BB2     		uxth	r3, r3
 1439 0134 DBB2     		uxtb	r3, r3
 1440              		.loc 1 303 15
 1441 0136 87F83030 		strb	r3, [r7, #48]
 304:User/Hardware/Robstride04.c ****     txdata[1] = (uint8_t)(angle_uint & 0xFF);
 1442              		.loc 1 304 17
 1443 013a FB8F     		ldrh	r3, [r7, #62]	@ movhi
 1444 013c DBB2     		uxtb	r3, r3
 1445              		.loc 1 304 15
 1446 013e 87F83130 		strb	r3, [r7, #49]
 305:User/Hardware/Robstride04.c ****     txdata[2] = (uint8_t)(speed_uint >> 8);
 1447              		.loc 1 305 17
 1448 0142 BB8F     		ldrh	r3, [r7, #60]
 1449 0144 1B0A     		lsrs	r3, r3, #8
 1450 0146 9BB2     		uxth	r3, r3
 1451 0148 DBB2     		uxtb	r3, r3
 1452              		.loc 1 305 15
 1453 014a 87F83230 		strb	r3, [r7, #50]
 306:User/Hardware/Robstride04.c ****     txdata[3] = (uint8_t)(speed_uint & 0xFF);
 1454              		.loc 1 306 17
 1455 014e BB8F     		ldrh	r3, [r7, #60]	@ movhi
 1456 0150 DBB2     		uxtb	r3, r3
 1457              		.loc 1 306 15
 1458 0152 87F83330 		strb	r3, [r7, #51]
 307:User/Hardware/Robstride04.c ****     txdata[4] = (uint8_t)(kp_uint >> 8);
 1459              		.loc 1 307 17
 1460 0156 7B8F     		ldrh	r3, [r7, #58]
 1461 0158 1B0A     		lsrs	r3, r3, #8
 1462 015a 9BB2     		uxth	r3, r3
 1463 015c DBB2     		uxtb	r3, r3
 1464              		.loc 1 307 15
 1465 015e 87F83430 		strb	r3, [r7, #52]
 308:User/Hardware/Robstride04.c ****     txdata[5] = (uint8_t)(kp_uint & 0xFF);
 1466              		.loc 1 308 17
 1467 0162 7B8F     		ldrh	r3, [r7, #58]	@ movhi
 1468 0164 DBB2     		uxtb	r3, r3
 1469              		.loc 1 308 15
 1470 0166 87F83530 		strb	r3, [r7, #53]
 309:User/Hardware/Robstride04.c ****     txdata[6] = (uint8_t)(kd_uint >> 8);
 1471              		.loc 1 309 17
 1472 016a 3B8F     		ldrh	r3, [r7, #56]
 1473 016c 1B0A     		lsrs	r3, r3, #8
 1474 016e 9BB2     		uxth	r3, r3
 1475 0170 DBB2     		uxtb	r3, r3
 1476              		.loc 1 309 15
 1477 0172 87F83630 		strb	r3, [r7, #54]
 310:User/Hardware/Robstride04.c ****     txdata[7] = (uint8_t)(kd_uint & 0xFF);
 1478              		.loc 1 310 17
 1479 0176 3B8F     		ldrh	r3, [r7, #56]	@ movhi
 1480 0178 DBB2     		uxtb	r3, r3
 1481              		.loc 1 310 15
 1482 017a 87F83730 		strb	r3, [r7, #55]
 311:User/Hardware/Robstride04.c ****     
 312:User/Hardware/Robstride04.c ****     // 使用扩展帧发送函数
ARM GAS  C:\Users\Godwin\AppData\Local\Temp\ccNCbe5d.s 			page 34


 313:User/Hardware/Robstride04.c ****     canx_send_ext_data(&hfdcan2, TxMessage.ExtId, txdata, TxMessage.DLC);
 1483              		.loc 1 313 5
 1484 017e 396A     		ldr	r1, [r7, #32]
 1485 0180 FB6A     		ldr	r3, [r7, #44]
 1486 0182 07F13002 		add	r2, r7, #48
 1487 0186 0A48     		ldr	r0, .L65+28
 1488 0188 FFF7FEFF 		bl	canx_send_ext_data
 314:User/Hardware/Robstride04.c **** }
 1489              		.loc 1 314 1
 1490 018c 00BF     		nop
 1491 018e 4037     		adds	r7, r7, #64
 1492              	.LCFI47:
 1493              		.cfi_def_cfa_offset 8
 1494 0190 BD46     		mov	sp, r7
 1495              	.LCFI48:
 1496              		.cfi_def_cfa_register 13
 1497              		@ sp needed
 1498 0192 80BD     		pop	{r7, pc}
 1499              	.L66:
 1500              		.align	2
 1501              	.L65:
 1502 0194 00000000 		.word	0
 1503 0198 0000F042 		.word	1123024896
 1504 019c 0000F0C2 		.word	-1024458752
 1505 01a0 B81E4941 		.word	1095311032
 1506 01a4 B81E49C1 		.word	-1052172616
 1507 01a8 00409C45 		.word	1167867904
 1508 01ac 0000C842 		.word	1120403456
 1509 01b0 00000000 		.word	hfdcan2
 1510              		.cfi_endproc
 1511              	.LFE152:
 1513              		.section	.text.RobStride_Motor_MIT_Enable,"ax",%progbits
 1514              		.align	1
 1515              		.global	RobStride_Motor_MIT_Enable
 1516              		.syntax unified
 1517              		.thumb
 1518              		.thumb_func
 1520              	RobStride_Motor_MIT_Enable:
 1521              	.LFB153:
 315:User/Hardware/Robstride04.c **** 
 316:User/Hardware/Robstride04.c **** /*******************************************************************************
 317:User/Hardware/Robstride04.c **** * 函数功能  : RS04 MIT模式使能
 318:User/Hardware/Robstride04.c **** *******************************************************************************/
 319:User/Hardware/Robstride04.c **** void RobStride_Motor_MIT_Enable(RobStride_Motor_t* motor)
 320:User/Hardware/Robstride04.c **** {
 1522              		.loc 1 320 1
 1523              		.cfi_startproc
 1524              		@ args = 0, pretend = 0, frame = 40
 1525              		@ frame_needed = 1, uses_anonymous_args = 0
 1526 0000 80B5     		push	{r7, lr}
 1527              	.LCFI49:
 1528              		.cfi_def_cfa_offset 8
 1529              		.cfi_offset 7, -8
 1530              		.cfi_offset 14, -4
 1531 0002 8AB0     		sub	sp, sp, #40
 1532              	.LCFI50:
 1533              		.cfi_def_cfa_offset 48
ARM GAS  C:\Users\Godwin\AppData\Local\Temp\ccNCbe5d.s 			page 35


 1534 0004 00AF     		add	r7, sp, #0
 1535              	.LCFI51:
 1536              		.cfi_def_cfa_register 7
 1537 0006 7860     		str	r0, [r7, #4]
 321:User/Hardware/Robstride04.c ****     uint8_t txdata[8] = {0};
 1538              		.loc 1 321 13
 1539 0008 07F12003 		add	r3, r7, #32
 1540 000c 0022     		movs	r2, #0
 1541 000e 1A60     		str	r2, [r3]
 1542 0010 5A60     		str	r2, [r3, #4]
 322:User/Hardware/Robstride04.c ****     CAN_TxHeaderTypeDef txMsg;
 323:User/Hardware/Robstride04.c ****     
 324:User/Hardware/Robstride04.c ****     txMsg.StdId = motor->CAN_ID;
 1543              		.loc 1 324 24
 1544 0012 7B68     		ldr	r3, [r7, #4]
 1545 0014 1B78     		ldrb	r3, [r3]	@ zero_extendqisi2
 1546              		.loc 1 324 17
 1547 0016 FB60     		str	r3, [r7, #12]
 325:User/Hardware/Robstride04.c ****     txMsg.IDE = CAN_ID_STD;
 1548              		.loc 1 325 15
 1549 0018 0023     		movs	r3, #0
 1550 001a 7B61     		str	r3, [r7, #20]
 326:User/Hardware/Robstride04.c ****     txMsg.RTR = CAN_RTR_DATA;
 1551              		.loc 1 326 15
 1552 001c 0023     		movs	r3, #0
 1553 001e BB61     		str	r3, [r7, #24]
 327:User/Hardware/Robstride04.c ****     txMsg.DLC = 8;
 1554              		.loc 1 327 15
 1555 0020 0823     		movs	r3, #8
 1556 0022 FB61     		str	r3, [r7, #28]
 328:User/Hardware/Robstride04.c ****     
 329:User/Hardware/Robstride04.c ****     txdata[0] = 0xFF;
 1557              		.loc 1 329 15
 1558 0024 FF23     		movs	r3, #255
 1559 0026 87F82030 		strb	r3, [r7, #32]
 330:User/Hardware/Robstride04.c ****     txdata[1] = 0xFF;
 1560              		.loc 1 330 15
 1561 002a FF23     		movs	r3, #255
 1562 002c 87F82130 		strb	r3, [r7, #33]
 331:User/Hardware/Robstride04.c ****     txdata[2] = 0xFF;
 1563              		.loc 1 331 15
 1564 0030 FF23     		movs	r3, #255
 1565 0032 87F82230 		strb	r3, [r7, #34]
 332:User/Hardware/Robstride04.c ****     txdata[3] = 0xFF;
 1566              		.loc 1 332 15
 1567 0036 FF23     		movs	r3, #255
 1568 0038 87F82330 		strb	r3, [r7, #35]
 333:User/Hardware/Robstride04.c ****     txdata[4] = 0xFF;
 1569              		.loc 1 333 15
 1570 003c FF23     		movs	r3, #255
 1571 003e 87F82430 		strb	r3, [r7, #36]
 334:User/Hardware/Robstride04.c ****     txdata[5] = 0xFF;
 1572              		.loc 1 334 15
 1573 0042 FF23     		movs	r3, #255
 1574 0044 87F82530 		strb	r3, [r7, #37]
 335:User/Hardware/Robstride04.c ****     txdata[6] = 0xFF;
 1575              		.loc 1 335 15
ARM GAS  C:\Users\Godwin\AppData\Local\Temp\ccNCbe5d.s 			page 36


 1576 0048 FF23     		movs	r3, #255
 1577 004a 87F82630 		strb	r3, [r7, #38]
 336:User/Hardware/Robstride04.c ****     txdata[7] = MIT_CMD_ENABLE;
 1578              		.loc 1 336 15
 1579 004e FC23     		movs	r3, #252
 1580 0050 87F82730 		strb	r3, [r7, #39]
 337:User/Hardware/Robstride04.c ****     
 338:User/Hardware/Robstride04.c ****     // 使用标准帧发送函数
 339:User/Hardware/Robstride04.c ****     canx_send_data(&hfdcan2, (uint16_t)txMsg.StdId, txdata, txMsg.DLC);
 1581              		.loc 1 339 45
 1582 0054 FB68     		ldr	r3, [r7, #12]
 1583              		.loc 1 339 5
 1584 0056 99B2     		uxth	r1, r3
 1585 0058 FB69     		ldr	r3, [r7, #28]
 1586 005a 07F12002 		add	r2, r7, #32
 1587 005e 0348     		ldr	r0, .L68
 1588 0060 FFF7FEFF 		bl	canx_send_data
 340:User/Hardware/Robstride04.c **** }
 1589              		.loc 1 340 1
 1590 0064 00BF     		nop
 1591 0066 2837     		adds	r7, r7, #40
 1592              	.LCFI52:
 1593              		.cfi_def_cfa_offset 8
 1594 0068 BD46     		mov	sp, r7
 1595              	.LCFI53:
 1596              		.cfi_def_cfa_register 13
 1597              		@ sp needed
 1598 006a 80BD     		pop	{r7, pc}
 1599              	.L69:
 1600              		.align	2
 1601              	.L68:
 1602 006c 00000000 		.word	hfdcan2
 1603              		.cfi_endproc
 1604              	.LFE153:
 1606              		.section	.text.RobStride_Motor_MIT_Disable,"ax",%progbits
 1607              		.align	1
 1608              		.global	RobStride_Motor_MIT_Disable
 1609              		.syntax unified
 1610              		.thumb
 1611              		.thumb_func
 1613              	RobStride_Motor_MIT_Disable:
 1614              	.LFB154:
 341:User/Hardware/Robstride04.c **** 
 342:User/Hardware/Robstride04.c **** /*******************************************************************************
 343:User/Hardware/Robstride04.c **** * 函数功能  : RS04 MIT模式失能
 344:User/Hardware/Robstride04.c **** *******************************************************************************/
 345:User/Hardware/Robstride04.c **** void RobStride_Motor_MIT_Disable(RobStride_Motor_t* motor)
 346:User/Hardware/Robstride04.c **** {
 1615              		.loc 1 346 1
 1616              		.cfi_startproc
 1617              		@ args = 0, pretend = 0, frame = 40
 1618              		@ frame_needed = 1, uses_anonymous_args = 0
 1619 0000 80B5     		push	{r7, lr}
 1620              	.LCFI54:
 1621              		.cfi_def_cfa_offset 8
 1622              		.cfi_offset 7, -8
 1623              		.cfi_offset 14, -4
ARM GAS  C:\Users\Godwin\AppData\Local\Temp\ccNCbe5d.s 			page 37


 1624 0002 8AB0     		sub	sp, sp, #40
 1625              	.LCFI55:
 1626              		.cfi_def_cfa_offset 48
 1627 0004 00AF     		add	r7, sp, #0
 1628              	.LCFI56:
 1629              		.cfi_def_cfa_register 7
 1630 0006 7860     		str	r0, [r7, #4]
 347:User/Hardware/Robstride04.c ****     uint8_t txdata[8] = {0};
 1631              		.loc 1 347 13
 1632 0008 07F12003 		add	r3, r7, #32
 1633 000c 0022     		movs	r2, #0
 1634 000e 1A60     		str	r2, [r3]
 1635 0010 5A60     		str	r2, [r3, #4]
 348:User/Hardware/Robstride04.c ****     CAN_TxHeaderTypeDef txMsg;
 349:User/Hardware/Robstride04.c ****     
 350:User/Hardware/Robstride04.c ****     txMsg.StdId = motor->CAN_ID;
 1636              		.loc 1 350 24
 1637 0012 7B68     		ldr	r3, [r7, #4]
 1638 0014 1B78     		ldrb	r3, [r3]	@ zero_extendqisi2
 1639              		.loc 1 350 17
 1640 0016 FB60     		str	r3, [r7, #12]
 351:User/Hardware/Robstride04.c ****     txMsg.IDE = CAN_ID_STD;
 1641              		.loc 1 351 15
 1642 0018 0023     		movs	r3, #0
 1643 001a 7B61     		str	r3, [r7, #20]
 352:User/Hardware/Robstride04.c ****     txMsg.RTR = CAN_RTR_DATA;
 1644              		.loc 1 352 15
 1645 001c 0023     		movs	r3, #0
 1646 001e BB61     		str	r3, [r7, #24]
 353:User/Hardware/Robstride04.c ****     txMsg.DLC = 8;
 1647              		.loc 1 353 15
 1648 0020 0823     		movs	r3, #8
 1649 0022 FB61     		str	r3, [r7, #28]
 354:User/Hardware/Robstride04.c ****     
 355:User/Hardware/Robstride04.c ****     txdata[0] = 0xFF;
 1650              		.loc 1 355 15
 1651 0024 FF23     		movs	r3, #255
 1652 0026 87F82030 		strb	r3, [r7, #32]
 356:User/Hardware/Robstride04.c ****     txdata[1] = 0xFF;
 1653              		.loc 1 356 15
 1654 002a FF23     		movs	r3, #255
 1655 002c 87F82130 		strb	r3, [r7, #33]
 357:User/Hardware/Robstride04.c ****     txdata[2] = 0xFF;
 1656              		.loc 1 357 15
 1657 0030 FF23     		movs	r3, #255
 1658 0032 87F82230 		strb	r3, [r7, #34]
 358:User/Hardware/Robstride04.c ****     txdata[3] = 0xFF;
 1659              		.loc 1 358 15
 1660 0036 FF23     		movs	r3, #255
 1661 0038 87F82330 		strb	r3, [r7, #35]
 359:User/Hardware/Robstride04.c ****     txdata[4] = 0xFF;
 1662              		.loc 1 359 15
 1663 003c FF23     		movs	r3, #255
 1664 003e 87F82430 		strb	r3, [r7, #36]
 360:User/Hardware/Robstride04.c ****     txdata[5] = 0xFF;
 1665              		.loc 1 360 15
 1666 0042 FF23     		movs	r3, #255
ARM GAS  C:\Users\Godwin\AppData\Local\Temp\ccNCbe5d.s 			page 38


 1667 0044 87F82530 		strb	r3, [r7, #37]
 361:User/Hardware/Robstride04.c ****     txdata[6] = 0xFF;
 1668              		.loc 1 361 15
 1669 0048 FF23     		movs	r3, #255
 1670 004a 87F82630 		strb	r3, [r7, #38]
 362:User/Hardware/Robstride04.c ****     txdata[7] = MIT_CMD_DISABLE;
 1671              		.loc 1 362 15
 1672 004e FD23     		movs	r3, #253
 1673 0050 87F82730 		strb	r3, [r7, #39]
 363:User/Hardware/Robstride04.c ****     
 364:User/Hardware/Robstride04.c ****     // 使用标准帧发送函数
 365:User/Hardware/Robstride04.c ****     canx_send_data(&hfdcan2, (uint16_t)txMsg.StdId, txdata, txMsg.DLC);
 1674              		.loc 1 365 45
 1675 0054 FB68     		ldr	r3, [r7, #12]
 1676              		.loc 1 365 5
 1677 0056 99B2     		uxth	r1, r3
 1678 0058 FB69     		ldr	r3, [r7, #28]
 1679 005a 07F12002 		add	r2, r7, #32
 1680 005e 0348     		ldr	r0, .L71
 1681 0060 FFF7FEFF 		bl	canx_send_data
 366:User/Hardware/Robstride04.c **** }
 1682              		.loc 1 366 1
 1683 0064 00BF     		nop
 1684 0066 2837     		adds	r7, r7, #40
 1685              	.LCFI57:
 1686              		.cfi_def_cfa_offset 8
 1687 0068 BD46     		mov	sp, r7
 1688              	.LCFI58:
 1689              		.cfi_def_cfa_register 13
 1690              		@ sp needed
 1691 006a 80BD     		pop	{r7, pc}
 1692              	.L72:
 1693              		.align	2
 1694              	.L71:
 1695 006c 00000000 		.word	hfdcan2
 1696              		.cfi_endproc
 1697              	.LFE154:
 1699              		.section	.text.RobStride_Motor_MIT_ClearOrCheckError,"ax",%progbits
 1700              		.align	1
 1701              		.global	RobStride_Motor_MIT_ClearOrCheckError
 1702              		.syntax unified
 1703              		.thumb
 1704              		.thumb_func
 1706              	RobStride_Motor_MIT_ClearOrCheckError:
 1707              	.LFB155:
 367:User/Hardware/Robstride04.c **** 
 368:User/Hardware/Robstride04.c **** /*******************************************************************************
 369:User/Hardware/Robstride04.c **** * 函数功能  : RS04 MIT模式清除或检查错误
 370:User/Hardware/Robstride04.c **** *******************************************************************************/
 371:User/Hardware/Robstride04.c **** void RobStride_Motor_MIT_ClearOrCheckError(RobStride_Motor_t* motor, uint8_t F_CMD)
 372:User/Hardware/Robstride04.c **** {
 1708              		.loc 1 372 1
 1709              		.cfi_startproc
 1710              		@ args = 0, pretend = 0, frame = 40
 1711              		@ frame_needed = 1, uses_anonymous_args = 0
 1712 0000 80B5     		push	{r7, lr}
 1713              	.LCFI59:
ARM GAS  C:\Users\Godwin\AppData\Local\Temp\ccNCbe5d.s 			page 39


 1714              		.cfi_def_cfa_offset 8
 1715              		.cfi_offset 7, -8
 1716              		.cfi_offset 14, -4
 1717 0002 8AB0     		sub	sp, sp, #40
 1718              	.LCFI60:
 1719              		.cfi_def_cfa_offset 48
 1720 0004 00AF     		add	r7, sp, #0
 1721              	.LCFI61:
 1722              		.cfi_def_cfa_register 7
 1723 0006 7860     		str	r0, [r7, #4]
 1724 0008 0B46     		mov	r3, r1
 1725 000a FB70     		strb	r3, [r7, #3]
 373:User/Hardware/Robstride04.c ****     uint8_t txdata[8] = {0};
 1726              		.loc 1 373 13
 1727 000c 07F12003 		add	r3, r7, #32
 1728 0010 0022     		movs	r2, #0
 1729 0012 1A60     		str	r2, [r3]
 1730 0014 5A60     		str	r2, [r3, #4]
 374:User/Hardware/Robstride04.c ****     CAN_TxHeaderTypeDef txMsg;
 375:User/Hardware/Robstride04.c ****     
 376:User/Hardware/Robstride04.c ****     txMsg.StdId = motor->CAN_ID;
 1731              		.loc 1 376 24
 1732 0016 7B68     		ldr	r3, [r7, #4]
 1733 0018 1B78     		ldrb	r3, [r3]	@ zero_extendqisi2
 1734              		.loc 1 376 17
 1735 001a FB60     		str	r3, [r7, #12]
 377:User/Hardware/Robstride04.c ****     txMsg.IDE = CAN_ID_STD;
 1736              		.loc 1 377 15
 1737 001c 0023     		movs	r3, #0
 1738 001e 7B61     		str	r3, [r7, #20]
 378:User/Hardware/Robstride04.c ****     txMsg.RTR = CAN_RTR_DATA;
 1739              		.loc 1 378 15
 1740 0020 0023     		movs	r3, #0
 1741 0022 BB61     		str	r3, [r7, #24]
 379:User/Hardware/Robstride04.c ****     txMsg.DLC = 8;
 1742              		.loc 1 379 15
 1743 0024 0823     		movs	r3, #8
 1744 0026 FB61     		str	r3, [r7, #28]
 380:User/Hardware/Robstride04.c ****     
 381:User/Hardware/Robstride04.c ****     txdata[0] = 0xFF;
 1745              		.loc 1 381 15
 1746 0028 FF23     		movs	r3, #255
 1747 002a 87F82030 		strb	r3, [r7, #32]
 382:User/Hardware/Robstride04.c ****     txdata[1] = 0xFF;
 1748              		.loc 1 382 15
 1749 002e FF23     		movs	r3, #255
 1750 0030 87F82130 		strb	r3, [r7, #33]
 383:User/Hardware/Robstride04.c ****     txdata[2] = 0xFF;
 1751              		.loc 1 383 15
 1752 0034 FF23     		movs	r3, #255
 1753 0036 87F82230 		strb	r3, [r7, #34]
 384:User/Hardware/Robstride04.c ****     txdata[3] = 0xFF;
 1754              		.loc 1 384 15
 1755 003a FF23     		movs	r3, #255
 1756 003c 87F82330 		strb	r3, [r7, #35]
 385:User/Hardware/Robstride04.c ****     txdata[4] = 0xFF;
 1757              		.loc 1 385 15
ARM GAS  C:\Users\Godwin\AppData\Local\Temp\ccNCbe5d.s 			page 40


 1758 0040 FF23     		movs	r3, #255
 1759 0042 87F82430 		strb	r3, [r7, #36]
 386:User/Hardware/Robstride04.c ****     txdata[5] = 0xFF;
 1760              		.loc 1 386 15
 1761 0046 FF23     		movs	r3, #255
 1762 0048 87F82530 		strb	r3, [r7, #37]
 387:User/Hardware/Robstride04.c ****     txdata[6] = F_CMD;
 1763              		.loc 1 387 15
 1764 004c FB78     		ldrb	r3, [r7, #3]
 1765 004e 87F82630 		strb	r3, [r7, #38]
 388:User/Hardware/Robstride04.c ****     txdata[7] = MIT_CMD_CLEAR_ERR;
 1766              		.loc 1 388 15
 1767 0052 FB23     		movs	r3, #251
 1768 0054 87F82730 		strb	r3, [r7, #39]
 389:User/Hardware/Robstride04.c ****     
 390:User/Hardware/Robstride04.c ****     // 使用标准帧发送函数
 391:User/Hardware/Robstride04.c ****     canx_send_data(&hfdcan2, (uint16_t)txMsg.StdId, txdata, txMsg.DLC);
 1769              		.loc 1 391 45
 1770 0058 FB68     		ldr	r3, [r7, #12]
 1771              		.loc 1 391 5
 1772 005a 99B2     		uxth	r1, r3
 1773 005c FB69     		ldr	r3, [r7, #28]
 1774 005e 07F12002 		add	r2, r7, #32
 1775 0062 0348     		ldr	r0, .L74
 1776 0064 FFF7FEFF 		bl	canx_send_data
 392:User/Hardware/Robstride04.c **** }
 1777              		.loc 1 392 1
 1778 0068 00BF     		nop
 1779 006a 2837     		adds	r7, r7, #40
 1780              	.LCFI62:
 1781              		.cfi_def_cfa_offset 8
 1782 006c BD46     		mov	sp, r7
 1783              	.LCFI63:
 1784              		.cfi_def_cfa_register 13
 1785              		@ sp needed
 1786 006e 80BD     		pop	{r7, pc}
 1787              	.L75:
 1788              		.align	2
 1789              	.L74:
 1790 0070 00000000 		.word	hfdcan2
 1791              		.cfi_endproc
 1792              	.LFE155:
 1794              		.section	.text.RobStride_Motor_MIT_SetMotorType,"ax",%progbits
 1795              		.align	1
 1796              		.global	RobStride_Motor_MIT_SetMotorType
 1797              		.syntax unified
 1798              		.thumb
 1799              		.thumb_func
 1801              	RobStride_Motor_MIT_SetMotorType:
 1802              	.LFB156:
 393:User/Hardware/Robstride04.c **** 
 394:User/Hardware/Robstride04.c **** /*******************************************************************************
 395:User/Hardware/Robstride04.c **** * 函数功能  : RS04 MIT设置电机运行模式
 396:User/Hardware/Robstride04.c **** *******************************************************************************/
 397:User/Hardware/Robstride04.c **** void RobStride_Motor_MIT_SetMotorType(RobStride_Motor_t* motor, uint8_t F_CMD)
 398:User/Hardware/Robstride04.c **** {
 1803              		.loc 1 398 1
ARM GAS  C:\Users\Godwin\AppData\Local\Temp\ccNCbe5d.s 			page 41


 1804              		.cfi_startproc
 1805              		@ args = 0, pretend = 0, frame = 40
 1806              		@ frame_needed = 1, uses_anonymous_args = 0
 1807 0000 80B5     		push	{r7, lr}
 1808              	.LCFI64:
 1809              		.cfi_def_cfa_offset 8
 1810              		.cfi_offset 7, -8
 1811              		.cfi_offset 14, -4
 1812 0002 8AB0     		sub	sp, sp, #40
 1813              	.LCFI65:
 1814              		.cfi_def_cfa_offset 48
 1815 0004 00AF     		add	r7, sp, #0
 1816              	.LCFI66:
 1817              		.cfi_def_cfa_register 7
 1818 0006 7860     		str	r0, [r7, #4]
 1819 0008 0B46     		mov	r3, r1
 1820 000a FB70     		strb	r3, [r7, #3]
 399:User/Hardware/Robstride04.c ****     uint8_t txdata[8] = {0};
 1821              		.loc 1 399 13
 1822 000c 07F12003 		add	r3, r7, #32
 1823 0010 0022     		movs	r2, #0
 1824 0012 1A60     		str	r2, [r3]
 1825 0014 5A60     		str	r2, [r3, #4]
 400:User/Hardware/Robstride04.c ****     CAN_TxHeaderTypeDef txMsg;
 401:User/Hardware/Robstride04.c ****     
 402:User/Hardware/Robstride04.c ****     txMsg.StdId = motor->CAN_ID;
 1826              		.loc 1 402 24
 1827 0016 7B68     		ldr	r3, [r7, #4]
 1828 0018 1B78     		ldrb	r3, [r3]	@ zero_extendqisi2
 1829              		.loc 1 402 17
 1830 001a FB60     		str	r3, [r7, #12]
 403:User/Hardware/Robstride04.c ****     txMsg.IDE = CAN_ID_STD;
 1831              		.loc 1 403 15
 1832 001c 0023     		movs	r3, #0
 1833 001e 7B61     		str	r3, [r7, #20]
 404:User/Hardware/Robstride04.c ****     txMsg.RTR = CAN_RTR_DATA;
 1834              		.loc 1 404 15
 1835 0020 0023     		movs	r3, #0
 1836 0022 BB61     		str	r3, [r7, #24]
 405:User/Hardware/Robstride04.c ****     txMsg.DLC = 8;
 1837              		.loc 1 405 15
 1838 0024 0823     		movs	r3, #8
 1839 0026 FB61     		str	r3, [r7, #28]
 406:User/Hardware/Robstride04.c ****     
 407:User/Hardware/Robstride04.c ****     txdata[0] = 0xFF;
 1840              		.loc 1 407 15
 1841 0028 FF23     		movs	r3, #255
 1842 002a 87F82030 		strb	r3, [r7, #32]
 408:User/Hardware/Robstride04.c ****     txdata[1] = 0xFF;
 1843              		.loc 1 408 15
 1844 002e FF23     		movs	r3, #255
 1845 0030 87F82130 		strb	r3, [r7, #33]
 409:User/Hardware/Robstride04.c ****     txdata[2] = 0xFF;
 1846              		.loc 1 409 15
 1847 0034 FF23     		movs	r3, #255
 1848 0036 87F82230 		strb	r3, [r7, #34]
 410:User/Hardware/Robstride04.c ****     txdata[3] = 0xFF;
ARM GAS  C:\Users\Godwin\AppData\Local\Temp\ccNCbe5d.s 			page 42


 1849              		.loc 1 410 15
 1850 003a FF23     		movs	r3, #255
 1851 003c 87F82330 		strb	r3, [r7, #35]
 411:User/Hardware/Robstride04.c ****     txdata[4] = 0xFF;
 1852              		.loc 1 411 15
 1853 0040 FF23     		movs	r3, #255
 1854 0042 87F82430 		strb	r3, [r7, #36]
 412:User/Hardware/Robstride04.c ****     txdata[5] = 0xFF;
 1855              		.loc 1 412 15
 1856 0046 FF23     		movs	r3, #255
 1857 0048 87F82530 		strb	r3, [r7, #37]
 413:User/Hardware/Robstride04.c ****     txdata[6] = F_CMD;
 1858              		.loc 1 413 15
 1859 004c FB78     		ldrb	r3, [r7, #3]
 1860 004e 87F82630 		strb	r3, [r7, #38]
 414:User/Hardware/Robstride04.c ****     txdata[7] = MIT_CMD_SET_MODE;
 1861              		.loc 1 414 15
 1862 0052 FC23     		movs	r3, #252
 1863 0054 87F82730 		strb	r3, [r7, #39]
 415:User/Hardware/Robstride04.c ****     
 416:User/Hardware/Robstride04.c ****     // 使用标准帧发送函数
 417:User/Hardware/Robstride04.c ****     canx_send_data(&hfdcan2, (uint16_t)txMsg.StdId, txdata, txMsg.DLC);
 1864              		.loc 1 417 45
 1865 0058 FB68     		ldr	r3, [r7, #12]
 1866              		.loc 1 417 5
 1867 005a 99B2     		uxth	r1, r3
 1868 005c FB69     		ldr	r3, [r7, #28]
 1869 005e 07F12002 		add	r2, r7, #32
 1870 0062 0348     		ldr	r0, .L77
 1871 0064 FFF7FEFF 		bl	canx_send_data
 418:User/Hardware/Robstride04.c **** }
 1872              		.loc 1 418 1
 1873 0068 00BF     		nop
 1874 006a 2837     		adds	r7, r7, #40
 1875              	.LCFI67:
 1876              		.cfi_def_cfa_offset 8
 1877 006c BD46     		mov	sp, r7
 1878              	.LCFI68:
 1879              		.cfi_def_cfa_register 13
 1880              		@ sp needed
 1881 006e 80BD     		pop	{r7, pc}
 1882              	.L78:
 1883              		.align	2
 1884              	.L77:
 1885 0070 00000000 		.word	hfdcan2
 1886              		.cfi_endproc
 1887              	.LFE156:
 1889              		.section	.text.RobStride_Motor_MIT_SetMotorId,"ax",%progbits
 1890              		.align	1
 1891              		.global	RobStride_Motor_MIT_SetMotorId
 1892              		.syntax unified
 1893              		.thumb
 1894              		.thumb_func
 1896              	RobStride_Motor_MIT_SetMotorId:
 1897              	.LFB157:
 419:User/Hardware/Robstride04.c **** 
 420:User/Hardware/Robstride04.c **** /*******************************************************************************
ARM GAS  C:\Users\Godwin\AppData\Local\Temp\ccNCbe5d.s 			page 43


 421:User/Hardware/Robstride04.c **** * 函数功能  : RS04 MIT设置电机ID
 422:User/Hardware/Robstride04.c **** *******************************************************************************/
 423:User/Hardware/Robstride04.c **** void RobStride_Motor_MIT_SetMotorId(RobStride_Motor_t* motor, uint8_t F_CMD)
 424:User/Hardware/Robstride04.c **** {
 1898              		.loc 1 424 1
 1899              		.cfi_startproc
 1900              		@ args = 0, pretend = 0, frame = 40
 1901              		@ frame_needed = 1, uses_anonymous_args = 0
 1902 0000 80B5     		push	{r7, lr}
 1903              	.LCFI69:
 1904              		.cfi_def_cfa_offset 8
 1905              		.cfi_offset 7, -8
 1906              		.cfi_offset 14, -4
 1907 0002 8AB0     		sub	sp, sp, #40
 1908              	.LCFI70:
 1909              		.cfi_def_cfa_offset 48
 1910 0004 00AF     		add	r7, sp, #0
 1911              	.LCFI71:
 1912              		.cfi_def_cfa_register 7
 1913 0006 7860     		str	r0, [r7, #4]
 1914 0008 0B46     		mov	r3, r1
 1915 000a FB70     		strb	r3, [r7, #3]
 425:User/Hardware/Robstride04.c ****     uint8_t txdata[8] = {0};
 1916              		.loc 1 425 13
 1917 000c 07F12003 		add	r3, r7, #32
 1918 0010 0022     		movs	r2, #0
 1919 0012 1A60     		str	r2, [r3]
 1920 0014 5A60     		str	r2, [r3, #4]
 426:User/Hardware/Robstride04.c ****     CAN_TxHeaderTypeDef txMsg;
 427:User/Hardware/Robstride04.c ****     
 428:User/Hardware/Robstride04.c ****     txMsg.StdId = motor->CAN_ID;
 1921              		.loc 1 428 24
 1922 0016 7B68     		ldr	r3, [r7, #4]
 1923 0018 1B78     		ldrb	r3, [r3]	@ zero_extendqisi2
 1924              		.loc 1 428 17
 1925 001a FB60     		str	r3, [r7, #12]
 429:User/Hardware/Robstride04.c ****     txMsg.IDE = CAN_ID_STD;
 1926              		.loc 1 429 15
 1927 001c 0023     		movs	r3, #0
 1928 001e 7B61     		str	r3, [r7, #20]
 430:User/Hardware/Robstride04.c ****     txMsg.RTR = CAN_RTR_DATA;
 1929              		.loc 1 430 15
 1930 0020 0023     		movs	r3, #0
 1931 0022 BB61     		str	r3, [r7, #24]
 431:User/Hardware/Robstride04.c ****     txMsg.DLC = 8;
 1932              		.loc 1 431 15
 1933 0024 0823     		movs	r3, #8
 1934 0026 FB61     		str	r3, [r7, #28]
 432:User/Hardware/Robstride04.c ****     
 433:User/Hardware/Robstride04.c ****     txdata[0] = 0xFF;
 1935              		.loc 1 433 15
 1936 0028 FF23     		movs	r3, #255
 1937 002a 87F82030 		strb	r3, [r7, #32]
 434:User/Hardware/Robstride04.c ****     txdata[1] = 0xFF;
 1938              		.loc 1 434 15
 1939 002e FF23     		movs	r3, #255
 1940 0030 87F82130 		strb	r3, [r7, #33]
ARM GAS  C:\Users\Godwin\AppData\Local\Temp\ccNCbe5d.s 			page 44


 435:User/Hardware/Robstride04.c ****     txdata[2] = 0xFF;
 1941              		.loc 1 435 15
 1942 0034 FF23     		movs	r3, #255
 1943 0036 87F82230 		strb	r3, [r7, #34]
 436:User/Hardware/Robstride04.c ****     txdata[3] = 0xFF;
 1944              		.loc 1 436 15
 1945 003a FF23     		movs	r3, #255
 1946 003c 87F82330 		strb	r3, [r7, #35]
 437:User/Hardware/Robstride04.c ****     txdata[4] = 0xFF;
 1947              		.loc 1 437 15
 1948 0040 FF23     		movs	r3, #255
 1949 0042 87F82430 		strb	r3, [r7, #36]
 438:User/Hardware/Robstride04.c ****     txdata[5] = 0xFF;
 1950              		.loc 1 438 15
 1951 0046 FF23     		movs	r3, #255
 1952 0048 87F82530 		strb	r3, [r7, #37]
 439:User/Hardware/Robstride04.c ****     txdata[6] = F_CMD;
 1953              		.loc 1 439 15
 1954 004c FB78     		ldrb	r3, [r7, #3]
 1955 004e 87F82630 		strb	r3, [r7, #38]
 440:User/Hardware/Robstride04.c ****     txdata[7] = 0xFA; // 设置ID命令
 1956              		.loc 1 440 15
 1957 0052 FA23     		movs	r3, #250
 1958 0054 87F82730 		strb	r3, [r7, #39]
 441:User/Hardware/Robstride04.c ****     
 442:User/Hardware/Robstride04.c ****     // 使用标准帧发送函数
 443:User/Hardware/Robstride04.c ****     canx_send_data(&hfdcan2, (uint16_t)txMsg.StdId, txdata, txMsg.DLC);
 1959              		.loc 1 443 45
 1960 0058 FB68     		ldr	r3, [r7, #12]
 1961              		.loc 1 443 5
 1962 005a 99B2     		uxth	r1, r3
 1963 005c FB69     		ldr	r3, [r7, #28]
 1964 005e 07F12002 		add	r2, r7, #32
 1965 0062 0348     		ldr	r0, .L80
 1966 0064 FFF7FEFF 		bl	canx_send_data
 444:User/Hardware/Robstride04.c **** }
 1967              		.loc 1 444 1
 1968 0068 00BF     		nop
 1969 006a 2837     		adds	r7, r7, #40
 1970              	.LCFI72:
 1971              		.cfi_def_cfa_offset 8
 1972 006c BD46     		mov	sp, r7
 1973              	.LCFI73:
 1974              		.cfi_def_cfa_register 13
 1975              		@ sp needed
 1976 006e 80BD     		pop	{r7, pc}
 1977              	.L81:
 1978              		.align	2
 1979              	.L80:
 1980 0070 00000000 		.word	hfdcan2
 1981              		.cfi_endproc
 1982              	.LFE157:
 1984              		.section	.text.RobStride_Motor_MIT_Control,"ax",%progbits
 1985              		.align	1
 1986              		.global	RobStride_Motor_MIT_Control
 1987              		.syntax unified
 1988              		.thumb
ARM GAS  C:\Users\Godwin\AppData\Local\Temp\ccNCbe5d.s 			page 45


 1989              		.thumb_func
 1991              	RobStride_Motor_MIT_Control:
 1992              	.LFB158:
 445:User/Hardware/Robstride04.c **** 
 446:User/Hardware/Robstride04.c **** /*******************************************************************************
 447:User/Hardware/Robstride04.c **** * 函数功能  : RS04 MIT运控模式控制指令
 448:User/Hardware/Robstride04.c **** *******************************************************************************/
 449:User/Hardware/Robstride04.c **** void RobStride_Motor_MIT_Control(RobStride_Motor_t* motor, float Angle, float Speed, float Kp, floa
 450:User/Hardware/Robstride04.c **** {
 1993              		.loc 1 450 1
 1994              		.cfi_startproc
 1995              		@ args = 0, pretend = 0, frame = 64
 1996              		@ frame_needed = 1, uses_anonymous_args = 0
 1997 0000 90B5     		push	{r4, r7, lr}
 1998              	.LCFI74:
 1999              		.cfi_def_cfa_offset 12
 2000              		.cfi_offset 4, -12
 2001              		.cfi_offset 7, -8
 2002              		.cfi_offset 14, -4
 2003 0002 91B0     		sub	sp, sp, #68
 2004              	.LCFI75:
 2005              		.cfi_def_cfa_offset 80
 2006 0004 00AF     		add	r7, sp, #0
 2007              	.LCFI76:
 2008              		.cfi_def_cfa_register 7
 2009 0006 7861     		str	r0, [r7, #20]
 2010 0008 87ED040A 		vstr.32	s0, [r7, #16]
 2011 000c C7ED030A 		vstr.32	s1, [r7, #12]
 2012 0010 87ED021A 		vstr.32	s2, [r7, #8]
 2013 0014 C7ED011A 		vstr.32	s3, [r7, #4]
 2014 0018 87ED002A 		vstr.32	s4, [r7]
 451:User/Hardware/Robstride04.c ****     uint8_t txdata[8] = {0};
 2015              		.loc 1 451 13
 2016 001c 07F12C03 		add	r3, r7, #44
 2017 0020 0022     		movs	r2, #0
 2018 0022 1A60     		str	r2, [r3]
 2019 0024 5A60     		str	r2, [r3, #4]
 452:User/Hardware/Robstride04.c ****     CAN_TxHeaderTypeDef txMsg;
 453:User/Hardware/Robstride04.c ****     
 454:User/Hardware/Robstride04.c ****     txMsg.StdId = motor->CAN_ID;
 2020              		.loc 1 454 24
 2021 0026 7B69     		ldr	r3, [r7, #20]
 2022 0028 1B78     		ldrb	r3, [r3]	@ zero_extendqisi2
 2023              		.loc 1 454 17
 2024 002a BB61     		str	r3, [r7, #24]
 455:User/Hardware/Robstride04.c ****     txMsg.IDE = CAN_ID_STD;
 2025              		.loc 1 455 15
 2026 002c 0023     		movs	r3, #0
 2027 002e 3B62     		str	r3, [r7, #32]
 456:User/Hardware/Robstride04.c ****     txMsg.RTR = CAN_RTR_DATA;
 2028              		.loc 1 456 15
 2029 0030 0023     		movs	r3, #0
 2030 0032 7B62     		str	r3, [r7, #36]
 457:User/Hardware/Robstride04.c ****     txMsg.DLC = 8;
 2031              		.loc 1 457 15
 2032 0034 0823     		movs	r3, #8
 2033 0036 BB62     		str	r3, [r7, #40]
ARM GAS  C:\Users\Godwin\AppData\Local\Temp\ccNCbe5d.s 			page 46


 458:User/Hardware/Robstride04.c ****     
 459:User/Hardware/Robstride04.c ****     uint16_t angle_uint = float_to_uint_lz(Angle, P_MIN, P_MAX, 16);
 2034              		.loc 1 459 27
 2035 0038 1020     		movs	r0, #16
 2036 003a 9FED461A 		vldr.32	s2, .L83
 2037 003e DFED460A 		vldr.32	s1, .L83+4
 2038 0042 97ED040A 		vldr.32	s0, [r7, #16]
 2039 0046 FFF7FEFF 		bl	float_to_uint_lz
 2040 004a 0346     		mov	r3, r0
 2041 004c FB87     		strh	r3, [r7, #62]	@ movhi
 460:User/Hardware/Robstride04.c ****     txdata[0] = (uint8_t)(angle_uint >> 8);
 2042              		.loc 1 460 17
 2043 004e FB8F     		ldrh	r3, [r7, #62]
 2044 0050 1B0A     		lsrs	r3, r3, #8
 2045 0052 9BB2     		uxth	r3, r3
 2046 0054 DBB2     		uxtb	r3, r3
 2047              		.loc 1 460 15
 2048 0056 87F82C30 		strb	r3, [r7, #44]
 461:User/Hardware/Robstride04.c ****     txdata[1] = (uint8_t)(angle_uint & 0xFF);
 2049              		.loc 1 461 17
 2050 005a FB8F     		ldrh	r3, [r7, #62]	@ movhi
 2051 005c DBB2     		uxtb	r3, r3
 2052              		.loc 1 461 15
 2053 005e 87F82D30 		strb	r3, [r7, #45]
 462:User/Hardware/Robstride04.c ****     
 463:User/Hardware/Robstride04.c ****     uint16_t speed_uint = float_to_uint_lz(Speed, V_MIN, V_MAX, 12);
 2054              		.loc 1 463 27
 2055 0062 0C20     		movs	r0, #12
 2056 0064 B2EE0E1A 		vmov.f32	s2, #1.5e+1
 2057 0068 FAEE0E0A 		vmov.f32	s1, #-1.5e+1
 2058 006c 97ED030A 		vldr.32	s0, [r7, #12]
 2059 0070 FFF7FEFF 		bl	float_to_uint_lz
 2060 0074 0346     		mov	r3, r0
 2061 0076 BB87     		strh	r3, [r7, #60]	@ movhi
 464:User/Hardware/Robstride04.c ****     txdata[2] = (uint8_t)(speed_uint >> 4);
 2062              		.loc 1 464 17
 2063 0078 BB8F     		ldrh	r3, [r7, #60]
 2064 007a 1B09     		lsrs	r3, r3, #4
 2065 007c 9BB2     		uxth	r3, r3
 2066 007e DBB2     		uxtb	r3, r3
 2067              		.loc 1 464 15
 2068 0080 87F82E30 		strb	r3, [r7, #46]
 465:User/Hardware/Robstride04.c ****     txdata[3] = (uint8_t)((speed_uint << 4) | (float_to_uint_lz(Kp, KP_MIN, KP_MAX, 12) >> 8));
 2069              		.loc 1 465 45
 2070 0084 BB8F     		ldrh	r3, [r7, #60]	@ movhi
 2071 0086 5BB2     		sxtb	r3, r3
 2072 0088 1B01     		lsls	r3, r3, #4
 2073 008a 5CB2     		sxtb	r4, r3
 2074              		.loc 1 465 48
 2075 008c 0C20     		movs	r0, #12
 2076 008e 9FED331A 		vldr.32	s2, .L83+8
 2077 0092 DFED330A 		vldr.32	s1, .L83+12
 2078 0096 97ED020A 		vldr.32	s0, [r7, #8]
 2079 009a FFF7FEFF 		bl	float_to_uint_lz
 2080 009e 0346     		mov	r3, r0
 2081              		.loc 1 465 45 discriminator 1
 2082 00a0 1B0A     		lsrs	r3, r3, #8
ARM GAS  C:\Users\Godwin\AppData\Local\Temp\ccNCbe5d.s 			page 47


 2083 00a2 9BB2     		uxth	r3, r3
 2084 00a4 5BB2     		sxtb	r3, r3
 2085 00a6 2343     		orrs	r3, r3, r4
 2086 00a8 5BB2     		sxtb	r3, r3
 2087              		.loc 1 465 17 discriminator 1
 2088 00aa DBB2     		uxtb	r3, r3
 2089              		.loc 1 465 15 discriminator 1
 2090 00ac 87F82F30 		strb	r3, [r7, #47]
 466:User/Hardware/Robstride04.c ****     
 467:User/Hardware/Robstride04.c ****     uint16_t kp_uint = float_to_uint_lz(Kp, KP_MIN, KP_MAX, 12);
 2091              		.loc 1 467 24
 2092 00b0 0C20     		movs	r0, #12
 2093 00b2 9FED2A1A 		vldr.32	s2, .L83+8
 2094 00b6 DFED2A0A 		vldr.32	s1, .L83+12
 2095 00ba 97ED020A 		vldr.32	s0, [r7, #8]
 2096 00be FFF7FEFF 		bl	float_to_uint_lz
 2097 00c2 0346     		mov	r3, r0
 2098 00c4 7B87     		strh	r3, [r7, #58]	@ movhi
 468:User/Hardware/Robstride04.c ****     txdata[4] = (uint8_t)(kp_uint & 0xFF);
 2099              		.loc 1 468 17
 2100 00c6 7B8F     		ldrh	r3, [r7, #58]	@ movhi
 2101 00c8 DBB2     		uxtb	r3, r3
 2102              		.loc 1 468 15
 2103 00ca 87F83030 		strb	r3, [r7, #48]
 469:User/Hardware/Robstride04.c ****     
 470:User/Hardware/Robstride04.c ****     uint16_t kd_uint = float_to_uint_lz(Kd, KD_MIN, KD_MAX, 12);
 2104              		.loc 1 470 24
 2105 00ce 0C20     		movs	r0, #12
 2106 00d0 9FED241A 		vldr.32	s2, .L83+16
 2107 00d4 DFED220A 		vldr.32	s1, .L83+12
 2108 00d8 97ED010A 		vldr.32	s0, [r7, #4]
 2109 00dc FFF7FEFF 		bl	float_to_uint_lz
 2110 00e0 0346     		mov	r3, r0
 2111 00e2 3B87     		strh	r3, [r7, #56]	@ movhi
 471:User/Hardware/Robstride04.c ****     txdata[5] = (uint8_t)(kd_uint >> 4);
 2112              		.loc 1 471 17
 2113 00e4 3B8F     		ldrh	r3, [r7, #56]
 2114 00e6 1B09     		lsrs	r3, r3, #4
 2115 00e8 9BB2     		uxth	r3, r3
 2116 00ea DBB2     		uxtb	r3, r3
 2117              		.loc 1 471 15
 2118 00ec 87F83130 		strb	r3, [r7, #49]
 472:User/Hardware/Robstride04.c ****     txdata[6] = (uint8_t)((kd_uint << 4) | (float_to_uint_lz(Torque, T_MIN, T_MAX, 12) >> 8));
 2119              		.loc 1 472 42
 2120 00f0 3B8F     		ldrh	r3, [r7, #56]	@ movhi
 2121 00f2 5BB2     		sxtb	r3, r3
 2122 00f4 1B01     		lsls	r3, r3, #4
 2123 00f6 5CB2     		sxtb	r4, r3
 2124              		.loc 1 472 45
 2125 00f8 0C20     		movs	r0, #12
 2126 00fa 9FED1B1A 		vldr.32	s2, .L83+20
 2127 00fe DFED1B0A 		vldr.32	s1, .L83+24
 2128 0102 97ED000A 		vldr.32	s0, [r7]
 2129 0106 FFF7FEFF 		bl	float_to_uint_lz
 2130 010a 0346     		mov	r3, r0
 2131              		.loc 1 472 42 discriminator 1
 2132 010c 1B0A     		lsrs	r3, r3, #8
ARM GAS  C:\Users\Godwin\AppData\Local\Temp\ccNCbe5d.s 			page 48


 2133 010e 9BB2     		uxth	r3, r3
 2134 0110 5BB2     		sxtb	r3, r3
 2135 0112 2343     		orrs	r3, r3, r4
 2136 0114 5BB2     		sxtb	r3, r3
 2137              		.loc 1 472 17 discriminator 1
 2138 0116 DBB2     		uxtb	r3, r3
 2139              		.loc 1 472 15 discriminator 1
 2140 0118 87F83230 		strb	r3, [r7, #50]
 473:User/Hardware/Robstride04.c ****     
 474:User/Hardware/Robstride04.c ****     uint16_t torque_uint = float_to_uint_lz(Torque, T_MIN, T_MAX, 12);
 2141              		.loc 1 474 28
 2142 011c 0C20     		movs	r0, #12
 2143 011e 9FED121A 		vldr.32	s2, .L83+20
 2144 0122 DFED120A 		vldr.32	s1, .L83+24
 2145 0126 97ED000A 		vldr.32	s0, [r7]
 2146 012a FFF7FEFF 		bl	float_to_uint_lz
 2147 012e 0346     		mov	r3, r0
 2148 0130 FB86     		strh	r3, [r7, #54]	@ movhi
 475:User/Hardware/Robstride04.c ****     txdata[7] = (uint8_t)(torque_uint & 0xFF);
 2149              		.loc 1 475 17
 2150 0132 FB8E     		ldrh	r3, [r7, #54]	@ movhi
 2151 0134 DBB2     		uxtb	r3, r3
 2152              		.loc 1 475 15
 2153 0136 87F83330 		strb	r3, [r7, #51]
 476:User/Hardware/Robstride04.c ****     
 477:User/Hardware/Robstride04.c ****     // 使用标准帧发送函数
 478:User/Hardware/Robstride04.c ****     canx_send_data(&hfdcan2, (uint16_t)txMsg.StdId, txdata, txMsg.DLC);
 2154              		.loc 1 478 45
 2155 013a BB69     		ldr	r3, [r7, #24]
 2156              		.loc 1 478 5
 2157 013c 99B2     		uxth	r1, r3
 2158 013e BB6A     		ldr	r3, [r7, #40]
 2159 0140 07F12C02 		add	r2, r7, #44
 2160 0144 0A48     		ldr	r0, .L83+28
 2161 0146 FFF7FEFF 		bl	canx_send_data
 479:User/Hardware/Robstride04.c **** }
 2162              		.loc 1 479 1
 2163 014a 00BF     		nop
 2164 014c 4437     		adds	r7, r7, #68
 2165              	.LCFI77:
 2166              		.cfi_def_cfa_offset 12
 2167 014e BD46     		mov	sp, r7
 2168              	.LCFI78:
 2169              		.cfi_def_cfa_register 13
 2170              		@ sp needed
 2171 0150 90BD     		pop	{r4, r7, pc}
 2172              	.L84:
 2173 0152 00BF     		.align	2
 2174              	.L83:
 2175 0154 B81E4941 		.word	1095311032
 2176 0158 B81E49C1 		.word	-1052172616
 2177 015c 00409C45 		.word	1167867904
 2178 0160 00000000 		.word	0
 2179 0164 0000C842 		.word	1120403456
 2180 0168 0000F042 		.word	1123024896
 2181 016c 0000F0C2 		.word	-1024458752
 2182 0170 00000000 		.word	hfdcan2
ARM GAS  C:\Users\Godwin\AppData\Local\Temp\ccNCbe5d.s 			page 49


 2183              		.cfi_endproc
 2184              	.LFE158:
 2186              		.section	.text.RobStride_Motor_MIT_PositionControl,"ax",%progbits
 2187              		.align	1
 2188              		.global	RobStride_Motor_MIT_PositionControl
 2189              		.syntax unified
 2190              		.thumb
 2191              		.thumb_func
 2193              	RobStride_Motor_MIT_PositionControl:
 2194              	.LFB159:
 480:User/Hardware/Robstride04.c **** 
 481:User/Hardware/Robstride04.c **** /*******************************************************************************
 482:User/Hardware/Robstride04.c **** * 函数功能  : RS04 MIT位置模式控制指令
 483:User/Hardware/Robstride04.c **** *******************************************************************************/
 484:User/Hardware/Robstride04.c **** void RobStride_Motor_MIT_PositionControl(RobStride_Motor_t* motor, float position_rad, float speed_
 485:User/Hardware/Robstride04.c **** {
 2195              		.loc 1 485 1
 2196              		.cfi_startproc
 2197              		@ args = 0, pretend = 0, frame = 48
 2198              		@ frame_needed = 1, uses_anonymous_args = 0
 2199 0000 80B5     		push	{r7, lr}
 2200              	.LCFI79:
 2201              		.cfi_def_cfa_offset 8
 2202              		.cfi_offset 7, -8
 2203              		.cfi_offset 14, -4
 2204 0002 8CB0     		sub	sp, sp, #48
 2205              	.LCFI80:
 2206              		.cfi_def_cfa_offset 56
 2207 0004 00AF     		add	r7, sp, #0
 2208              	.LCFI81:
 2209              		.cfi_def_cfa_register 7
 2210 0006 F860     		str	r0, [r7, #12]
 2211 0008 87ED020A 		vstr.32	s0, [r7, #8]
 2212 000c C7ED010A 		vstr.32	s1, [r7, #4]
 486:User/Hardware/Robstride04.c ****     uint8_t txdata[8] = {0};
 2213              		.loc 1 486 13
 2214 0010 07F12803 		add	r3, r7, #40
 2215 0014 0022     		movs	r2, #0
 2216 0016 1A60     		str	r2, [r3]
 2217 0018 5A60     		str	r2, [r3, #4]
 487:User/Hardware/Robstride04.c ****     CAN_TxHeaderTypeDef txMsg;
 488:User/Hardware/Robstride04.c ****     
 489:User/Hardware/Robstride04.c ****     txMsg.StdId = (1 << 8) | motor->CAN_ID;
 2218              		.loc 1 489 35
 2219 001a FB68     		ldr	r3, [r7, #12]
 2220 001c 1B78     		ldrb	r3, [r3]	@ zero_extendqisi2
 2221              		.loc 1 489 28
 2222 001e 43F48073 		orr	r3, r3, #256
 2223              		.loc 1 489 17
 2224 0022 7B61     		str	r3, [r7, #20]
 490:User/Hardware/Robstride04.c ****     txMsg.IDE = CAN_ID_STD;
 2225              		.loc 1 490 15
 2226 0024 0023     		movs	r3, #0
 2227 0026 FB61     		str	r3, [r7, #28]
 491:User/Hardware/Robstride04.c ****     txMsg.RTR = CAN_RTR_DATA;
 2228              		.loc 1 491 15
 2229 0028 0023     		movs	r3, #0
ARM GAS  C:\Users\Godwin\AppData\Local\Temp\ccNCbe5d.s 			page 50


 2230 002a 3B62     		str	r3, [r7, #32]
 492:User/Hardware/Robstride04.c ****     txMsg.DLC = 8;
 2231              		.loc 1 492 15
 2232 002c 0823     		movs	r3, #8
 2233 002e 7B62     		str	r3, [r7, #36]
 493:User/Hardware/Robstride04.c ****     
 494:User/Hardware/Robstride04.c ****     memcpy(&txdata[0], &position_rad, 4);
 2234              		.loc 1 494 5
 2235 0030 BB68     		ldr	r3, [r7, #8]
 2236 0032 BB62     		str	r3, [r7, #40]
 495:User/Hardware/Robstride04.c ****     memcpy(&txdata[4], &speed_rad_per_s, 4);
 2237              		.loc 1 495 5
 2238 0034 7B68     		ldr	r3, [r7, #4]
 2239 0036 FB62     		str	r3, [r7, #44]
 496:User/Hardware/Robstride04.c ****     
 497:User/Hardware/Robstride04.c ****     // 使用标准帧发送函数
 498:User/Hardware/Robstride04.c ****     canx_send_data(&hfdcan2, (uint16_t)txMsg.StdId, txdata, txMsg.DLC);
 2240              		.loc 1 498 45
 2241 0038 7B69     		ldr	r3, [r7, #20]
 2242              		.loc 1 498 5
 2243 003a 99B2     		uxth	r1, r3
 2244 003c 7B6A     		ldr	r3, [r7, #36]
 2245 003e 07F12802 		add	r2, r7, #40
 2246 0042 0348     		ldr	r0, .L86
 2247 0044 FFF7FEFF 		bl	canx_send_data
 499:User/Hardware/Robstride04.c **** }
 2248              		.loc 1 499 1
 2249 0048 00BF     		nop
 2250 004a 3037     		adds	r7, r7, #48
 2251              	.LCFI82:
 2252              		.cfi_def_cfa_offset 8
 2253 004c BD46     		mov	sp, r7
 2254              	.LCFI83:
 2255              		.cfi_def_cfa_register 13
 2256              		@ sp needed
 2257 004e 80BD     		pop	{r7, pc}
 2258              	.L87:
 2259              		.align	2
 2260              	.L86:
 2261 0050 00000000 		.word	hfdcan2
 2262              		.cfi_endproc
 2263              	.LFE159:
 2265              		.section	.text.RobStride_Motor_MIT_SpeedControl,"ax",%progbits
 2266              		.align	1
 2267              		.global	RobStride_Motor_MIT_SpeedControl
 2268              		.syntax unified
 2269              		.thumb
 2270              		.thumb_func
 2272              	RobStride_Motor_MIT_SpeedControl:
 2273              	.LFB160:
 500:User/Hardware/Robstride04.c **** 
 501:User/Hardware/Robstride04.c **** /*******************************************************************************
 502:User/Hardware/Robstride04.c **** * 函数功能  : RS04 MIT速度模式控制指令
 503:User/Hardware/Robstride04.c **** *******************************************************************************/
 504:User/Hardware/Robstride04.c **** void RobStride_Motor_MIT_SpeedControl(RobStride_Motor_t* motor, float speed_rad_per_s, float curren
 505:User/Hardware/Robstride04.c **** {
 2274              		.loc 1 505 1
ARM GAS  C:\Users\Godwin\AppData\Local\Temp\ccNCbe5d.s 			page 51


 2275              		.cfi_startproc
 2276              		@ args = 0, pretend = 0, frame = 48
 2277              		@ frame_needed = 1, uses_anonymous_args = 0
 2278 0000 80B5     		push	{r7, lr}
 2279              	.LCFI84:
 2280              		.cfi_def_cfa_offset 8
 2281              		.cfi_offset 7, -8
 2282              		.cfi_offset 14, -4
 2283 0002 8CB0     		sub	sp, sp, #48
 2284              	.LCFI85:
 2285              		.cfi_def_cfa_offset 56
 2286 0004 00AF     		add	r7, sp, #0
 2287              	.LCFI86:
 2288              		.cfi_def_cfa_register 7
 2289 0006 F860     		str	r0, [r7, #12]
 2290 0008 87ED020A 		vstr.32	s0, [r7, #8]
 2291 000c C7ED010A 		vstr.32	s1, [r7, #4]
 506:User/Hardware/Robstride04.c ****     uint8_t txdata[8] = {0};
 2292              		.loc 1 506 13
 2293 0010 07F12803 		add	r3, r7, #40
 2294 0014 0022     		movs	r2, #0
 2295 0016 1A60     		str	r2, [r3]
 2296 0018 5A60     		str	r2, [r3, #4]
 507:User/Hardware/Robstride04.c ****     CAN_TxHeaderTypeDef txMsg;
 508:User/Hardware/Robstride04.c ****     
 509:User/Hardware/Robstride04.c ****     txMsg.StdId = (2 << 8) | motor->CAN_ID;
 2297              		.loc 1 509 35
 2298 001a FB68     		ldr	r3, [r7, #12]
 2299 001c 1B78     		ldrb	r3, [r3]	@ zero_extendqisi2
 2300              		.loc 1 509 28
 2301 001e 43F40073 		orr	r3, r3, #512
 2302              		.loc 1 509 17
 2303 0022 7B61     		str	r3, [r7, #20]
 510:User/Hardware/Robstride04.c ****     txMsg.IDE = CAN_ID_STD;
 2304              		.loc 1 510 15
 2305 0024 0023     		movs	r3, #0
 2306 0026 FB61     		str	r3, [r7, #28]
 511:User/Hardware/Robstride04.c ****     txMsg.RTR = CAN_RTR_DATA;
 2307              		.loc 1 511 15
 2308 0028 0023     		movs	r3, #0
 2309 002a 3B62     		str	r3, [r7, #32]
 512:User/Hardware/Robstride04.c ****     txMsg.DLC = 8;
 2310              		.loc 1 512 15
 2311 002c 0823     		movs	r3, #8
 2312 002e 7B62     		str	r3, [r7, #36]
 513:User/Hardware/Robstride04.c ****     
 514:User/Hardware/Robstride04.c ****     memcpy(&txdata[0], &speed_rad_per_s, 4);
 2313              		.loc 1 514 5
 2314 0030 BB68     		ldr	r3, [r7, #8]
 2315 0032 BB62     		str	r3, [r7, #40]
 515:User/Hardware/Robstride04.c ****     memcpy(&txdata[4], &current_limit, 4);
 2316              		.loc 1 515 5
 2317 0034 7B68     		ldr	r3, [r7, #4]
 2318 0036 FB62     		str	r3, [r7, #44]
 516:User/Hardware/Robstride04.c ****     
 517:User/Hardware/Robstride04.c ****     // 使用标准帧发送函数
 518:User/Hardware/Robstride04.c ****     canx_send_data(&hfdcan2, (uint16_t)txMsg.StdId, txdata, txMsg.DLC);
ARM GAS  C:\Users\Godwin\AppData\Local\Temp\ccNCbe5d.s 			page 52


 2319              		.loc 1 518 45
 2320 0038 7B69     		ldr	r3, [r7, #20]
 2321              		.loc 1 518 5
 2322 003a 99B2     		uxth	r1, r3
 2323 003c 7B6A     		ldr	r3, [r7, #36]
 2324 003e 07F12802 		add	r2, r7, #40
 2325 0042 0348     		ldr	r0, .L89
 2326 0044 FFF7FEFF 		bl	canx_send_data
 519:User/Hardware/Robstride04.c **** }
 2327              		.loc 1 519 1
 2328 0048 00BF     		nop
 2329 004a 3037     		adds	r7, r7, #48
 2330              	.LCFI87:
 2331              		.cfi_def_cfa_offset 8
 2332 004c BD46     		mov	sp, r7
 2333              	.LCFI88:
 2334              		.cfi_def_cfa_register 13
 2335              		@ sp needed
 2336 004e 80BD     		pop	{r7, pc}
 2337              	.L90:
 2338              		.align	2
 2339              	.L89:
 2340 0050 00000000 		.word	hfdcan2
 2341              		.cfi_endproc
 2342              	.LFE160:
 2344              		.section	.text.RobStride_Motor_MIT_SetZeroPos,"ax",%progbits
 2345              		.align	1
 2346              		.global	RobStride_Motor_MIT_SetZeroPos
 2347              		.syntax unified
 2348              		.thumb
 2349              		.thumb_func
 2351              	RobStride_Motor_MIT_SetZeroPos:
 2352              	.LFB161:
 520:User/Hardware/Robstride04.c **** 
 521:User/Hardware/Robstride04.c **** /*******************************************************************************
 522:User/Hardware/Robstride04.c **** * 函数功能  : RS04 MIT零点设置模式
 523:User/Hardware/Robstride04.c **** *******************************************************************************/
 524:User/Hardware/Robstride04.c **** void RobStride_Motor_MIT_SetZeroPos(RobStride_Motor_t* motor)
 525:User/Hardware/Robstride04.c **** {
 2353              		.loc 1 525 1
 2354              		.cfi_startproc
 2355              		@ args = 0, pretend = 0, frame = 40
 2356              		@ frame_needed = 1, uses_anonymous_args = 0
 2357 0000 80B5     		push	{r7, lr}
 2358              	.LCFI89:
 2359              		.cfi_def_cfa_offset 8
 2360              		.cfi_offset 7, -8
 2361              		.cfi_offset 14, -4
 2362 0002 8AB0     		sub	sp, sp, #40
 2363              	.LCFI90:
 2364              		.cfi_def_cfa_offset 48
 2365 0004 00AF     		add	r7, sp, #0
 2366              	.LCFI91:
 2367              		.cfi_def_cfa_register 7
 2368 0006 7860     		str	r0, [r7, #4]
 526:User/Hardware/Robstride04.c ****     uint8_t txdata[8] = {0};
 2369              		.loc 1 526 13
ARM GAS  C:\Users\Godwin\AppData\Local\Temp\ccNCbe5d.s 			page 53


 2370 0008 07F12003 		add	r3, r7, #32
 2371 000c 0022     		movs	r2, #0
 2372 000e 1A60     		str	r2, [r3]
 2373 0010 5A60     		str	r2, [r3, #4]
 527:User/Hardware/Robstride04.c ****     CAN_TxHeaderTypeDef txMsg;
 528:User/Hardware/Robstride04.c ****     
 529:User/Hardware/Robstride04.c ****     txMsg.StdId = motor->CAN_ID;
 2374              		.loc 1 529 24
 2375 0012 7B68     		ldr	r3, [r7, #4]
 2376 0014 1B78     		ldrb	r3, [r3]	@ zero_extendqisi2
 2377              		.loc 1 529 17
 2378 0016 FB60     		str	r3, [r7, #12]
 530:User/Hardware/Robstride04.c ****     txMsg.IDE = CAN_ID_STD;
 2379              		.loc 1 530 15
 2380 0018 0023     		movs	r3, #0
 2381 001a 7B61     		str	r3, [r7, #20]
 531:User/Hardware/Robstride04.c ****     txMsg.RTR = CAN_RTR_DATA;
 2382              		.loc 1 531 15
 2383 001c 0023     		movs	r3, #0
 2384 001e BB61     		str	r3, [r7, #24]
 532:User/Hardware/Robstride04.c ****     txMsg.DLC = 8;
 2385              		.loc 1 532 15
 2386 0020 0823     		movs	r3, #8
 2387 0022 FB61     		str	r3, [r7, #28]
 533:User/Hardware/Robstride04.c ****     
 534:User/Hardware/Robstride04.c ****     txdata[0] = 0xFF;
 2388              		.loc 1 534 15
 2389 0024 FF23     		movs	r3, #255
 2390 0026 87F82030 		strb	r3, [r7, #32]
 535:User/Hardware/Robstride04.c ****     txdata[1] = 0xFF;
 2391              		.loc 1 535 15
 2392 002a FF23     		movs	r3, #255
 2393 002c 87F82130 		strb	r3, [r7, #33]
 536:User/Hardware/Robstride04.c ****     txdata[2] = 0xFF;
 2394              		.loc 1 536 15
 2395 0030 FF23     		movs	r3, #255
 2396 0032 87F82230 		strb	r3, [r7, #34]
 537:User/Hardware/Robstride04.c ****     txdata[3] = 0xFF;
 2397              		.loc 1 537 15
 2398 0036 FF23     		movs	r3, #255
 2399 0038 87F82330 		strb	r3, [r7, #35]
 538:User/Hardware/Robstride04.c ****     txdata[4] = 0xFF;
 2400              		.loc 1 538 15
 2401 003c FF23     		movs	r3, #255
 2402 003e 87F82430 		strb	r3, [r7, #36]
 539:User/Hardware/Robstride04.c ****     txdata[5] = 0xFF;
 2403              		.loc 1 539 15
 2404 0042 FF23     		movs	r3, #255
 2405 0044 87F82530 		strb	r3, [r7, #37]
 540:User/Hardware/Robstride04.c ****     txdata[6] = 0xFF;
 2406              		.loc 1 540 15
 2407 0048 FF23     		movs	r3, #255
 2408 004a 87F82630 		strb	r3, [r7, #38]
 541:User/Hardware/Robstride04.c ****     txdata[7] = MIT_CMD_SET_ZERO;
 2409              		.loc 1 541 15
 2410 004e FE23     		movs	r3, #254
 2411 0050 87F82730 		strb	r3, [r7, #39]
ARM GAS  C:\Users\Godwin\AppData\Local\Temp\ccNCbe5d.s 			page 54


 542:User/Hardware/Robstride04.c ****     
 543:User/Hardware/Robstride04.c ****     // 使用标准帧发送函数
 544:User/Hardware/Robstride04.c ****     canx_send_data(&hfdcan2, (uint16_t)txMsg.StdId, txdata, txMsg.DLC);
 2412              		.loc 1 544 45
 2413 0054 FB68     		ldr	r3, [r7, #12]
 2414              		.loc 1 544 5
 2415 0056 99B2     		uxth	r1, r3
 2416 0058 FB69     		ldr	r3, [r7, #28]
 2417 005a 07F12002 		add	r2, r7, #32
 2418 005e 0348     		ldr	r0, .L92
 2419 0060 FFF7FEFF 		bl	canx_send_data
 545:User/Hardware/Robstride04.c **** }
 2420              		.loc 1 545 1
 2421 0064 00BF     		nop
 2422 0066 2837     		adds	r7, r7, #40
 2423              	.LCFI92:
 2424              		.cfi_def_cfa_offset 8
 2425 0068 BD46     		mov	sp, r7
 2426              	.LCFI93:
 2427              		.cfi_def_cfa_register 13
 2428              		@ sp needed
 2429 006a 80BD     		pop	{r7, pc}
 2430              	.L93:
 2431              		.align	2
 2432              	.L92:
 2433 006c 00000000 		.word	hfdcan2
 2434              		.cfi_endproc
 2435              	.LFE161:
 2437              		.section	.text.RobStride_Motor_MIT_SetProtocol,"ax",%progbits
 2438              		.align	1
 2439              		.global	RobStride_Motor_MIT_SetProtocol
 2440              		.syntax unified
 2441              		.thumb
 2442              		.thumb_func
 2444              	RobStride_Motor_MIT_SetProtocol:
 2445              	.LFB162:
 546:User/Hardware/Robstride04.c **** 
 547:User/Hardware/Robstride04.c **** /*******************************************************************************
 548:User/Hardware/Robstride04.c **** * 函数功能  : RS04 MIT设置协议类型
 549:User/Hardware/Robstride04.c **** *******************************************************************************/
 550:User/Hardware/Robstride04.c **** void RobStride_Motor_MIT_SetProtocol(RobStride_Motor_t* motor, uint8_t protocol_type)
 551:User/Hardware/Robstride04.c **** {
 2446              		.loc 1 551 1
 2447              		.cfi_startproc
 2448              		@ args = 0, pretend = 0, frame = 40
 2449              		@ frame_needed = 1, uses_anonymous_args = 0
 2450 0000 80B5     		push	{r7, lr}
 2451              	.LCFI94:
 2452              		.cfi_def_cfa_offset 8
 2453              		.cfi_offset 7, -8
 2454              		.cfi_offset 14, -4
 2455 0002 8AB0     		sub	sp, sp, #40
 2456              	.LCFI95:
 2457              		.cfi_def_cfa_offset 48
 2458 0004 00AF     		add	r7, sp, #0
 2459              	.LCFI96:
 2460              		.cfi_def_cfa_register 7
ARM GAS  C:\Users\Godwin\AppData\Local\Temp\ccNCbe5d.s 			page 55


 2461 0006 7860     		str	r0, [r7, #4]
 2462 0008 0B46     		mov	r3, r1
 2463 000a FB70     		strb	r3, [r7, #3]
 552:User/Hardware/Robstride04.c ****     uint8_t txdata[8] = {0};
 2464              		.loc 1 552 13
 2465 000c 07F12003 		add	r3, r7, #32
 2466 0010 0022     		movs	r2, #0
 2467 0012 1A60     		str	r2, [r3]
 2468 0014 5A60     		str	r2, [r3, #4]
 553:User/Hardware/Robstride04.c ****     CAN_TxHeaderTypeDef txMsg;
 554:User/Hardware/Robstride04.c ****     
 555:User/Hardware/Robstride04.c ****     txMsg.StdId = motor->CAN_ID;
 2469              		.loc 1 555 24
 2470 0016 7B68     		ldr	r3, [r7, #4]
 2471 0018 1B78     		ldrb	r3, [r3]	@ zero_extendqisi2
 2472              		.loc 1 555 17
 2473 001a FB60     		str	r3, [r7, #12]
 556:User/Hardware/Robstride04.c ****     txMsg.IDE = CAN_ID_STD;
 2474              		.loc 1 556 15
 2475 001c 0023     		movs	r3, #0
 2476 001e 7B61     		str	r3, [r7, #20]
 557:User/Hardware/Robstride04.c ****     txMsg.RTR = CAN_RTR_DATA;
 2477              		.loc 1 557 15
 2478 0020 0023     		movs	r3, #0
 2479 0022 BB61     		str	r3, [r7, #24]
 558:User/Hardware/Robstride04.c ****     txMsg.DLC = 8;
 2480              		.loc 1 558 15
 2481 0024 0823     		movs	r3, #8
 2482 0026 FB61     		str	r3, [r7, #28]
 559:User/Hardware/Robstride04.c ****     
 560:User/Hardware/Robstride04.c ****     txdata[0] = 0xFF;
 2483              		.loc 1 560 15
 2484 0028 FF23     		movs	r3, #255
 2485 002a 87F82030 		strb	r3, [r7, #32]
 561:User/Hardware/Robstride04.c ****     txdata[1] = 0xFF;
 2486              		.loc 1 561 15
 2487 002e FF23     		movs	r3, #255
 2488 0030 87F82130 		strb	r3, [r7, #33]
 562:User/Hardware/Robstride04.c ****     txdata[2] = 0xFF;
 2489              		.loc 1 562 15
 2490 0034 FF23     		movs	r3, #255
 2491 0036 87F82230 		strb	r3, [r7, #34]
 563:User/Hardware/Robstride04.c ****     txdata[3] = 0xFF;
 2492              		.loc 1 563 15
 2493 003a FF23     		movs	r3, #255
 2494 003c 87F82330 		strb	r3, [r7, #35]
 564:User/Hardware/Robstride04.c ****     txdata[4] = 0xFF;
 2495              		.loc 1 564 15
 2496 0040 FF23     		movs	r3, #255
 2497 0042 87F82430 		strb	r3, [r7, #36]
 565:User/Hardware/Robstride04.c ****     txdata[5] = 0xFF;
 2498              		.loc 1 565 15
 2499 0046 FF23     		movs	r3, #255
 2500 0048 87F82530 		strb	r3, [r7, #37]
 566:User/Hardware/Robstride04.c ****     txdata[6] = protocol_type;
 2501              		.loc 1 566 15
 2502 004c FB78     		ldrb	r3, [r7, #3]
ARM GAS  C:\Users\Godwin\AppData\Local\Temp\ccNCbe5d.s 			page 56


 2503 004e 87F82630 		strb	r3, [r7, #38]
 567:User/Hardware/Robstride04.c ****     txdata[7] = MIT_CMD_SET_PROTOCOL;
 2504              		.loc 1 567 15
 2505 0052 FD23     		movs	r3, #253
 2506 0054 87F82730 		strb	r3, [r7, #39]
 568:User/Hardware/Robstride04.c ****     
 569:User/Hardware/Robstride04.c ****     // 使用标准帧发送函数
 570:User/Hardware/Robstride04.c ****     canx_send_data(&hfdcan2, (uint16_t)txMsg.StdId, txdata, txMsg.DLC);
 2507              		.loc 1 570 45
 2508 0058 FB68     		ldr	r3, [r7, #12]
 2509              		.loc 1 570 5
 2510 005a 99B2     		uxth	r1, r3
 2511 005c FB69     		ldr	r3, [r7, #28]
 2512 005e 07F12002 		add	r2, r7, #32
 2513 0062 0348     		ldr	r0, .L95
 2514 0064 FFF7FEFF 		bl	canx_send_data
 571:User/Hardware/Robstride04.c **** }
 2515              		.loc 1 571 1
 2516 0068 00BF     		nop
 2517 006a 2837     		adds	r7, r7, #40
 2518              	.LCFI97:
 2519              		.cfi_def_cfa_offset 8
 2520 006c BD46     		mov	sp, r7
 2521              	.LCFI98:
 2522              		.cfi_def_cfa_register 13
 2523              		@ sp needed
 2524 006e 80BD     		pop	{r7, pc}
 2525              	.L96:
 2526              		.align	2
 2527              	.L95:
 2528 0070 00000000 		.word	hfdcan2
 2529              		.cfi_endproc
 2530              	.LFE162:
 2532              		.section	.text.RobStride_Motor_Pos_control,"ax",%progbits
 2533              		.align	1
 2534              		.global	RobStride_Motor_Pos_control
 2535              		.syntax unified
 2536              		.thumb
 2537              		.thumb_func
 2539              	RobStride_Motor_Pos_control:
 2540              	.LFB163:
 572:User/Hardware/Robstride04.c **** 
 573:User/Hardware/Robstride04.c **** /*******************************************************************************
 574:User/Hardware/Robstride04.c **** * 函数功能  : RobStride电机位置模式(PP插补位置模式控制)
 575:User/Hardware/Robstride04.c **** *******************************************************************************/
 576:User/Hardware/Robstride04.c **** void RobStride_Motor_Pos_control(RobStride_Motor_t* motor, float Speed, float Angle)
 577:User/Hardware/Robstride04.c **** {
 2541              		.loc 1 577 1
 2542              		.cfi_startproc
 2543              		@ args = 0, pretend = 0, frame = 24
 2544              		@ frame_needed = 1, uses_anonymous_args = 0
 2545 0000 80B5     		push	{r7, lr}
 2546              	.LCFI99:
 2547              		.cfi_def_cfa_offset 8
 2548              		.cfi_offset 7, -8
 2549              		.cfi_offset 14, -4
 2550 0002 86B0     		sub	sp, sp, #24
ARM GAS  C:\Users\Godwin\AppData\Local\Temp\ccNCbe5d.s 			page 57


 2551              	.LCFI100:
 2552              		.cfi_def_cfa_offset 32
 2553 0004 00AF     		add	r7, sp, #0
 2554              	.LCFI101:
 2555              		.cfi_def_cfa_register 7
 2556 0006 F860     		str	r0, [r7, #12]
 2557 0008 87ED020A 		vstr.32	s0, [r7, #8]
 2558 000c C7ED010A 		vstr.32	s1, [r7, #4]
 578:User/Hardware/Robstride04.c ****     motor->Motor_Set_All.set_speed = Speed;
 2559              		.loc 1 578 36
 2560 0010 FB68     		ldr	r3, [r7, #12]
 2561 0012 BA68     		ldr	r2, [r7, #8]	@ float
 2562 0014 DA61     		str	r2, [r3, #28]	@ float
 579:User/Hardware/Robstride04.c ****     motor->Motor_Set_All.set_angle = Angle;
 2563              		.loc 1 579 36
 2564 0016 FB68     		ldr	r3, [r7, #12]
 2565 0018 7A68     		ldr	r2, [r7, #4]	@ float
 2566 001a 9A62     		str	r2, [r3, #40]	@ float
 580:User/Hardware/Robstride04.c ****     
 581:User/Hardware/Robstride04.c ****     if (motor->drw.run_mode.data != 1)
 2567              		.loc 1 581 28
 2568 001c FB68     		ldr	r3, [r7, #12]
 2569 001e D3ED197A 		vldr.32	s15, [r3, #100]
 2570              		.loc 1 581 8
 2571 0022 B7EE007A 		vmov.f32	s14, #1.0e+0
 2572 0026 F4EE477A 		vcmp.f32	s15, s14
 2573 002a F1EE10FA 		vmrs	APSR_nzcv, FPSCR
 2574 002e 28D0     		beq	.L98
 582:User/Hardware/Robstride04.c ****     {
 583:User/Hardware/Robstride04.c ****         Set_RobStride_Motor_parameter(motor, 0X7005, Pos_control_mode, 'j');
 2575              		.loc 1 583 9
 2576 0030 6A22     		movs	r2, #106
 2577 0032 B7EE000A 		vmov.f32	s0, #1.0e+0
 2578 0036 47F20501 		movw	r1, #28677
 2579 003a F868     		ldr	r0, [r7, #12]
 2580 003c FFF7FEFF 		bl	Set_RobStride_Motor_parameter
 584:User/Hardware/Robstride04.c ****         Get_RobStride_Motor_parameter(motor, 0x7005);
 2581              		.loc 1 584 9
 2582 0040 47F20501 		movw	r1, #28677
 2583 0044 F868     		ldr	r0, [r7, #12]
 2584 0046 FFF7FEFF 		bl	Get_RobStride_Motor_parameter
 585:User/Hardware/Robstride04.c ****         motor->Motor_Set_All.set_motor_mode = Pos_control_mode;
 2585              		.loc 1 585 45
 2586 004a FB68     		ldr	r3, [r7, #12]
 2587 004c 0122     		movs	r2, #1
 2588 004e 1A75     		strb	r2, [r3, #20]
 586:User/Hardware/Robstride04.c ****         Enable_Motor(motor);
 2589              		.loc 1 586 9
 2590 0050 F868     		ldr	r0, [r7, #12]
 2591 0052 FFF7FEFF 		bl	Enable_Motor
 587:User/Hardware/Robstride04.c ****         Set_RobStride_Motor_parameter(motor, 0X7024, motor->Motor_Set_All.set_limit_speed, 'p');
 2592              		.loc 1 587 9
 2593 0056 FB68     		ldr	r3, [r7, #12]
 2594 0058 D3ED0C7A 		vldr.32	s15, [r3, #48]
 2595 005c 7022     		movs	r2, #112
 2596 005e B0EE670A 		vmov.f32	s0, s15
 2597 0062 47F22401 		movw	r1, #28708
ARM GAS  C:\Users\Godwin\AppData\Local\Temp\ccNCbe5d.s 			page 58


 2598 0066 F868     		ldr	r0, [r7, #12]
 2599 0068 FFF7FEFF 		bl	Set_RobStride_Motor_parameter
 588:User/Hardware/Robstride04.c ****         Set_RobStride_Motor_parameter(motor, 0X7025, motor->Motor_Set_All.set_acceleration, 'p');
 2600              		.loc 1 588 9
 2601 006c FB68     		ldr	r3, [r7, #12]
 2602 006e D3ED087A 		vldr.32	s15, [r3, #32]
 2603 0072 7022     		movs	r2, #112
 2604 0074 B0EE670A 		vmov.f32	s0, s15
 2605 0078 47F22501 		movw	r1, #28709
 2606 007c F868     		ldr	r0, [r7, #12]
 2607 007e FFF7FEFF 		bl	Set_RobStride_Motor_parameter
 2608              	.L98:
 2609              	.LBB12:
 589:User/Hardware/Robstride04.c ****     }
 590:User/Hardware/Robstride04.c ****     
 591:User/Hardware/Robstride04.c ****     // 注意：HAL_Delay需要STM32 HAL库支持
 592:User/Hardware/Robstride04.c ****     // HAL_Delay(1);
 593:User/Hardware/Robstride04.c ****     // 如果不在STM32环境中，可以用其他延时方式
 594:User/Hardware/Robstride04.c ****     for(uint32_t i = 0; i < 10000; i++); // 简单延时
 2610              		.loc 1 594 18
 2611 0082 0023     		movs	r3, #0
 2612 0084 7B61     		str	r3, [r7, #20]
 2613              		.loc 1 594 5
 2614 0086 02E0     		b	.L99
 2615              	.L100:
 2616              		.loc 1 594 37 discriminator 3
 2617 0088 7B69     		ldr	r3, [r7, #20]
 2618 008a 0133     		adds	r3, r3, #1
 2619 008c 7B61     		str	r3, [r7, #20]
 2620              	.L99:
 2621              		.loc 1 594 27 discriminator 1
 2622 008e 7B69     		ldr	r3, [r7, #20]
 2623 0090 42F20F72 		movw	r2, #9999
 2624 0094 9342     		cmp	r3, r2
 2625 0096 F7D9     		bls	.L100
 2626              	.LBE12:
 595:User/Hardware/Robstride04.c ****     
 596:User/Hardware/Robstride04.c ****     Set_RobStride_Motor_parameter(motor, 0X7016, motor->Motor_Set_All.set_angle, 'p');
 2627              		.loc 1 596 5
 2628 0098 FB68     		ldr	r3, [r7, #12]
 2629 009a D3ED0A7A 		vldr.32	s15, [r3, #40]
 2630 009e 7022     		movs	r2, #112
 2631 00a0 B0EE670A 		vmov.f32	s0, s15
 2632 00a4 47F21601 		movw	r1, #28694
 2633 00a8 F868     		ldr	r0, [r7, #12]
 2634 00aa FFF7FEFF 		bl	Set_RobStride_Motor_parameter
 597:User/Hardware/Robstride04.c **** }
 2635              		.loc 1 597 1
 2636 00ae 00BF     		nop
 2637 00b0 1837     		adds	r7, r7, #24
 2638              	.LCFI102:
 2639              		.cfi_def_cfa_offset 8
 2640 00b2 BD46     		mov	sp, r7
 2641              	.LCFI103:
 2642              		.cfi_def_cfa_register 13
 2643              		@ sp needed
 2644 00b4 80BD     		pop	{r7, pc}
ARM GAS  C:\Users\Godwin\AppData\Local\Temp\ccNCbe5d.s 			page 59


 2645              		.cfi_endproc
 2646              	.LFE163:
 2648              		.section	.text.RobStride_Motor_CSP_control,"ax",%progbits
 2649              		.align	1
 2650              		.global	RobStride_Motor_CSP_control
 2651              		.syntax unified
 2652              		.thumb
 2653              		.thumb_func
 2655              	RobStride_Motor_CSP_control:
 2656              	.LFB164:
 598:User/Hardware/Robstride04.c **** 
 599:User/Hardware/Robstride04.c **** /*******************************************************************************
 600:User/Hardware/Robstride04.c **** * 函数功能  : RobStride电机位置模式(CSP位置模式控制)
 601:User/Hardware/Robstride04.c **** *******************************************************************************/
 602:User/Hardware/Robstride04.c **** void RobStride_Motor_CSP_control(RobStride_Motor_t* motor, float Angle, float limit_spd)
 603:User/Hardware/Robstride04.c **** {
 2657              		.loc 1 603 1
 2658              		.cfi_startproc
 2659              		@ args = 0, pretend = 0, frame = 24
 2660              		@ frame_needed = 1, uses_anonymous_args = 0
 2661 0000 80B5     		push	{r7, lr}
 2662              	.LCFI104:
 2663              		.cfi_def_cfa_offset 8
 2664              		.cfi_offset 7, -8
 2665              		.cfi_offset 14, -4
 2666 0002 86B0     		sub	sp, sp, #24
 2667              	.LCFI105:
 2668              		.cfi_def_cfa_offset 32
 2669 0004 00AF     		add	r7, sp, #0
 2670              	.LCFI106:
 2671              		.cfi_def_cfa_register 7
 2672 0006 F860     		str	r0, [r7, #12]
 2673 0008 87ED020A 		vstr.32	s0, [r7, #8]
 2674 000c C7ED010A 		vstr.32	s1, [r7, #4]
 604:User/Hardware/Robstride04.c ****     if (motor->MIT_Mode)
 2675              		.loc 1 604 14
 2676 0010 FB68     		ldr	r3, [r7, #12]
 2677 0012 93F84130 		ldrb	r3, [r3, #65]	@ zero_extendqisi2
 2678              		.loc 1 604 8
 2679 0016 002B     		cmp	r3, #0
 2680 0018 07D0     		beq	.L102
 605:User/Hardware/Robstride04.c ****     {
 606:User/Hardware/Robstride04.c ****         RobStride_Motor_MIT_PositionControl(motor, Angle, limit_spd);
 2681              		.loc 1 606 9
 2682 001a D7ED010A 		vldr.32	s1, [r7, #4]
 2683 001e 97ED020A 		vldr.32	s0, [r7, #8]
 2684 0022 F868     		ldr	r0, [r7, #12]
 2685 0024 FFF7FEFF 		bl	RobStride_Motor_MIT_PositionControl
 607:User/Hardware/Robstride04.c ****     }
 608:User/Hardware/Robstride04.c ****     else
 609:User/Hardware/Robstride04.c ****     {
 610:User/Hardware/Robstride04.c ****         motor->Motor_Set_All.set_angle = Angle;
 611:User/Hardware/Robstride04.c ****         motor->Motor_Set_All.set_limit_speed = limit_spd;
 612:User/Hardware/Robstride04.c ****         
 613:User/Hardware/Robstride04.c ****         if (motor->drw.run_mode.data != 1)
 614:User/Hardware/Robstride04.c ****         {
 615:User/Hardware/Robstride04.c ****             Set_RobStride_Motor_parameter(motor, 0X7005, CSP_control_mode, 'j');
ARM GAS  C:\Users\Godwin\AppData\Local\Temp\ccNCbe5d.s 			page 60


 616:User/Hardware/Robstride04.c ****             Get_RobStride_Motor_parameter(motor, 0x7005);
 617:User/Hardware/Robstride04.c ****             Enable_Motor(motor);
 618:User/Hardware/Robstride04.c ****             Set_RobStride_Motor_parameter(motor, 0X7017, motor->Motor_Set_All.set_limit_speed, 'p')
 619:User/Hardware/Robstride04.c ****         }
 620:User/Hardware/Robstride04.c ****         
 621:User/Hardware/Robstride04.c ****         // 注意：HAL_Delay需要STM32 HAL库支持
 622:User/Hardware/Robstride04.c ****         // HAL_Delay(1);
 623:User/Hardware/Robstride04.c ****         // 如果不在STM32环境中，可以用其他延时方式
 624:User/Hardware/Robstride04.c ****         for(uint32_t i = 0; i < 10000; i++); // 简单延时
 625:User/Hardware/Robstride04.c ****         
 626:User/Hardware/Robstride04.c ****         Set_RobStride_Motor_parameter(motor, 0X7016, motor->Motor_Set_All.set_angle, 'p');
 627:User/Hardware/Robstride04.c ****     }
 628:User/Hardware/Robstride04.c **** }
 2686              		.loc 1 628 1
 2687 0028 40E0     		b	.L107
 2688              	.L102:
 610:User/Hardware/Robstride04.c ****         motor->Motor_Set_All.set_limit_speed = limit_spd;
 2689              		.loc 1 610 40
 2690 002a FB68     		ldr	r3, [r7, #12]
 2691 002c BA68     		ldr	r2, [r7, #8]	@ float
 2692 002e 9A62     		str	r2, [r3, #40]	@ float
 611:User/Hardware/Robstride04.c ****         
 2693              		.loc 1 611 46
 2694 0030 FB68     		ldr	r3, [r7, #12]
 2695 0032 7A68     		ldr	r2, [r7, #4]	@ float
 2696 0034 1A63     		str	r2, [r3, #48]	@ float
 613:User/Hardware/Robstride04.c ****         {
 2697              		.loc 1 613 32
 2698 0036 FB68     		ldr	r3, [r7, #12]
 2699 0038 D3ED197A 		vldr.32	s15, [r3, #100]
 613:User/Hardware/Robstride04.c ****         {
 2700              		.loc 1 613 12
 2701 003c B7EE007A 		vmov.f32	s14, #1.0e+0
 2702 0040 F4EE477A 		vcmp.f32	s15, s14
 2703 0044 F1EE10FA 		vmrs	APSR_nzcv, FPSCR
 2704 0048 1AD0     		beq	.L104
 615:User/Hardware/Robstride04.c ****             Get_RobStride_Motor_parameter(motor, 0x7005);
 2705              		.loc 1 615 13
 2706 004a 6A22     		movs	r2, #106
 2707 004c B1EE040A 		vmov.f32	s0, #5.0e+0
 2708 0050 47F20501 		movw	r1, #28677
 2709 0054 F868     		ldr	r0, [r7, #12]
 2710 0056 FFF7FEFF 		bl	Set_RobStride_Motor_parameter
 616:User/Hardware/Robstride04.c ****             Enable_Motor(motor);
 2711              		.loc 1 616 13
 2712 005a 47F20501 		movw	r1, #28677
 2713 005e F868     		ldr	r0, [r7, #12]
 2714 0060 FFF7FEFF 		bl	Get_RobStride_Motor_parameter
 617:User/Hardware/Robstride04.c ****             Set_RobStride_Motor_parameter(motor, 0X7017, motor->Motor_Set_All.set_limit_speed, 'p')
 2715              		.loc 1 617 13
 2716 0064 F868     		ldr	r0, [r7, #12]
 2717 0066 FFF7FEFF 		bl	Enable_Motor
 618:User/Hardware/Robstride04.c ****         }
 2718              		.loc 1 618 13
 2719 006a FB68     		ldr	r3, [r7, #12]
 2720 006c D3ED0C7A 		vldr.32	s15, [r3, #48]
 2721 0070 7022     		movs	r2, #112
ARM GAS  C:\Users\Godwin\AppData\Local\Temp\ccNCbe5d.s 			page 61


 2722 0072 B0EE670A 		vmov.f32	s0, s15
 2723 0076 47F21701 		movw	r1, #28695
 2724 007a F868     		ldr	r0, [r7, #12]
 2725 007c FFF7FEFF 		bl	Set_RobStride_Motor_parameter
 2726              	.L104:
 2727              	.LBB13:
 624:User/Hardware/Robstride04.c ****         
 2728              		.loc 1 624 22
 2729 0080 0023     		movs	r3, #0
 2730 0082 7B61     		str	r3, [r7, #20]
 624:User/Hardware/Robstride04.c ****         
 2731              		.loc 1 624 9
 2732 0084 02E0     		b	.L105
 2733              	.L106:
 624:User/Hardware/Robstride04.c ****         
 2734              		.loc 1 624 41 discriminator 3
 2735 0086 7B69     		ldr	r3, [r7, #20]
 2736 0088 0133     		adds	r3, r3, #1
 2737 008a 7B61     		str	r3, [r7, #20]
 2738              	.L105:
 624:User/Hardware/Robstride04.c ****         
 2739              		.loc 1 624 31 discriminator 1
 2740 008c 7B69     		ldr	r3, [r7, #20]
 2741 008e 42F20F72 		movw	r2, #9999
 2742 0092 9342     		cmp	r3, r2
 2743 0094 F7D9     		bls	.L106
 2744              	.LBE13:
 626:User/Hardware/Robstride04.c ****     }
 2745              		.loc 1 626 9
 2746 0096 FB68     		ldr	r3, [r7, #12]
 2747 0098 D3ED0A7A 		vldr.32	s15, [r3, #40]
 2748 009c 7022     		movs	r2, #112
 2749 009e B0EE670A 		vmov.f32	s0, s15
 2750 00a2 47F21601 		movw	r1, #28694
 2751 00a6 F868     		ldr	r0, [r7, #12]
 2752 00a8 FFF7FEFF 		bl	Set_RobStride_Motor_parameter
 2753              	.L107:
 2754              		.loc 1 628 1
 2755 00ac 00BF     		nop
 2756 00ae 1837     		adds	r7, r7, #24
 2757              	.LCFI107:
 2758              		.cfi_def_cfa_offset 8
 2759 00b0 BD46     		mov	sp, r7
 2760              	.LCFI108:
 2761              		.cfi_def_cfa_register 13
 2762              		@ sp needed
 2763 00b2 80BD     		pop	{r7, pc}
 2764              		.cfi_endproc
 2765              	.LFE164:
 2767              		.section	.text.RobStride_Motor_Speed_control,"ax",%progbits
 2768              		.align	1
 2769              		.global	RobStride_Motor_Speed_control
 2770              		.syntax unified
 2771              		.thumb
 2772              		.thumb_func
 2774              	RobStride_Motor_Speed_control:
 2775              	.LFB165:
ARM GAS  C:\Users\Godwin\AppData\Local\Temp\ccNCbe5d.s 			page 62


 629:User/Hardware/Robstride04.c **** 
 630:User/Hardware/Robstride04.c **** /*******************************************************************************
 631:User/Hardware/Robstride04.c **** * 函数功能  : RobStride电机速度模式
 632:User/Hardware/Robstride04.c **** *******************************************************************************/
 633:User/Hardware/Robstride04.c **** void RobStride_Motor_Speed_control(RobStride_Motor_t* motor, float Speed, float limit_cur)
 634:User/Hardware/Robstride04.c **** {
 2776              		.loc 1 634 1
 2777              		.cfi_startproc
 2778              		@ args = 0, pretend = 0, frame = 16
 2779              		@ frame_needed = 1, uses_anonymous_args = 0
 2780 0000 80B5     		push	{r7, lr}
 2781              	.LCFI109:
 2782              		.cfi_def_cfa_offset 8
 2783              		.cfi_offset 7, -8
 2784              		.cfi_offset 14, -4
 2785 0002 84B0     		sub	sp, sp, #16
 2786              	.LCFI110:
 2787              		.cfi_def_cfa_offset 24
 2788 0004 00AF     		add	r7, sp, #0
 2789              	.LCFI111:
 2790              		.cfi_def_cfa_register 7
 2791 0006 F860     		str	r0, [r7, #12]
 2792 0008 87ED020A 		vstr.32	s0, [r7, #8]
 2793 000c C7ED010A 		vstr.32	s1, [r7, #4]
 635:User/Hardware/Robstride04.c ****     motor->Motor_Set_All.set_speed = Speed;
 2794              		.loc 1 635 36
 2795 0010 FB68     		ldr	r3, [r7, #12]
 2796 0012 BA68     		ldr	r2, [r7, #8]	@ float
 2797 0014 DA61     		str	r2, [r3, #28]	@ float
 636:User/Hardware/Robstride04.c ****     motor->Motor_Set_All.set_limit_cur = limit_cur;
 2798              		.loc 1 636 40
 2799 0016 FB68     		ldr	r3, [r7, #12]
 2800 0018 7A68     		ldr	r2, [r7, #4]	@ float
 2801 001a DA62     		str	r2, [r3, #44]	@ float
 637:User/Hardware/Robstride04.c ****     
 638:User/Hardware/Robstride04.c ****     if (motor->drw.run_mode.data != 2)
 2802              		.loc 1 638 28
 2803 001c FB68     		ldr	r3, [r7, #12]
 2804 001e D3ED197A 		vldr.32	s15, [r3, #100]
 2805              		.loc 1 638 8
 2806 0022 B0EE007A 		vmov.f32	s14, #2.0e+0
 2807 0026 F4EE477A 		vcmp.f32	s15, s14
 2808 002a F1EE10FA 		vmrs	APSR_nzcv, FPSCR
 2809 002e 25D0     		beq	.L109
 639:User/Hardware/Robstride04.c ****     {
 640:User/Hardware/Robstride04.c ****         Set_RobStride_Motor_parameter(motor, 0X7005, Speed_control_mode, 'j');
 2810              		.loc 1 640 9
 2811 0030 6A22     		movs	r2, #106
 2812 0032 B0EE000A 		vmov.f32	s0, #2.0e+0
 2813 0036 47F20501 		movw	r1, #28677
 2814 003a F868     		ldr	r0, [r7, #12]
 2815 003c FFF7FEFF 		bl	Set_RobStride_Motor_parameter
 641:User/Hardware/Robstride04.c ****         Get_RobStride_Motor_parameter(motor, 0x7005);
 2816              		.loc 1 641 9
 2817 0040 47F20501 		movw	r1, #28677
 2818 0044 F868     		ldr	r0, [r7, #12]
 2819 0046 FFF7FEFF 		bl	Get_RobStride_Motor_parameter
ARM GAS  C:\Users\Godwin\AppData\Local\Temp\ccNCbe5d.s 			page 63


 642:User/Hardware/Robstride04.c ****         Enable_Motor(motor);
 2820              		.loc 1 642 9
 2821 004a F868     		ldr	r0, [r7, #12]
 2822 004c FFF7FEFF 		bl	Enable_Motor
 643:User/Hardware/Robstride04.c ****         motor->Motor_Set_All.set_motor_mode = Speed_control_mode;
 2823              		.loc 1 643 45
 2824 0050 FB68     		ldr	r3, [r7, #12]
 2825 0052 0222     		movs	r2, #2
 2826 0054 1A75     		strb	r2, [r3, #20]
 644:User/Hardware/Robstride04.c ****         Set_RobStride_Motor_parameter(motor, 0X7018, motor->Motor_Set_All.set_limit_cur, 'p');
 2827              		.loc 1 644 9
 2828 0056 FB68     		ldr	r3, [r7, #12]
 2829 0058 D3ED0B7A 		vldr.32	s15, [r3, #44]
 2830 005c 7022     		movs	r2, #112
 2831 005e B0EE670A 		vmov.f32	s0, s15
 2832 0062 47F21801 		movw	r1, #28696
 2833 0066 F868     		ldr	r0, [r7, #12]
 2834 0068 FFF7FEFF 		bl	Set_RobStride_Motor_parameter
 645:User/Hardware/Robstride04.c ****         Set_RobStride_Motor_parameter(motor, 0X7022, 10, 'p');
 2835              		.loc 1 645 9
 2836 006c 7022     		movs	r2, #112
 2837 006e B2EE040A 		vmov.f32	s0, #1.0e+1
 2838 0072 47F22201 		movw	r1, #28706
 2839 0076 F868     		ldr	r0, [r7, #12]
 2840 0078 FFF7FEFF 		bl	Set_RobStride_Motor_parameter
 2841              	.L109:
 646:User/Hardware/Robstride04.c ****     }
 647:User/Hardware/Robstride04.c ****     
 648:User/Hardware/Robstride04.c ****     Set_RobStride_Motor_parameter(motor, 0X700A, motor->Motor_Set_All.set_speed, 'p');
 2842              		.loc 1 648 5
 2843 007c FB68     		ldr	r3, [r7, #12]
 2844 007e D3ED077A 		vldr.32	s15, [r3, #28]
 2845 0082 7022     		movs	r2, #112
 2846 0084 B0EE670A 		vmov.f32	s0, s15
 2847 0088 47F20A01 		movw	r1, #28682
 2848 008c F868     		ldr	r0, [r7, #12]
 2849 008e FFF7FEFF 		bl	Set_RobStride_Motor_parameter
 649:User/Hardware/Robstride04.c **** }
 2850              		.loc 1 649 1
 2851 0092 00BF     		nop
 2852 0094 1037     		adds	r7, r7, #16
 2853              	.LCFI112:
 2854              		.cfi_def_cfa_offset 8
 2855 0096 BD46     		mov	sp, r7
 2856              	.LCFI113:
 2857              		.cfi_def_cfa_register 13
 2858              		@ sp needed
 2859 0098 80BD     		pop	{r7, pc}
 2860              		.cfi_endproc
 2861              	.LFE165:
 2863              		.section	.text.RobStride_Motor_current_control,"ax",%progbits
 2864              		.align	1
 2865              		.global	RobStride_Motor_current_control
 2866              		.syntax unified
 2867              		.thumb
 2868              		.thumb_func
 2870              	RobStride_Motor_current_control:
ARM GAS  C:\Users\Godwin\AppData\Local\Temp\ccNCbe5d.s 			page 64


 2871              	.LFB166:
 650:User/Hardware/Robstride04.c **** 
 651:User/Hardware/Robstride04.c **** /*******************************************************************************
 652:User/Hardware/Robstride04.c **** * 函数功能  : RobStride电机电流模式
 653:User/Hardware/Robstride04.c **** *******************************************************************************/
 654:User/Hardware/Robstride04.c **** void RobStride_Motor_current_control(RobStride_Motor_t* motor, float current)
 655:User/Hardware/Robstride04.c **** {
 2872              		.loc 1 655 1
 2873              		.cfi_startproc
 2874              		@ args = 0, pretend = 0, frame = 8
 2875              		@ frame_needed = 1, uses_anonymous_args = 0
 2876 0000 80B5     		push	{r7, lr}
 2877              	.LCFI114:
 2878              		.cfi_def_cfa_offset 8
 2879              		.cfi_offset 7, -8
 2880              		.cfi_offset 14, -4
 2881 0002 82B0     		sub	sp, sp, #8
 2882              	.LCFI115:
 2883              		.cfi_def_cfa_offset 16
 2884 0004 00AF     		add	r7, sp, #0
 2885              	.LCFI116:
 2886              		.cfi_def_cfa_register 7
 2887 0006 7860     		str	r0, [r7, #4]
 2888 0008 87ED000A 		vstr.32	s0, [r7]
 656:User/Hardware/Robstride04.c ****     motor->Motor_Set_All.set_current = current;
 2889              		.loc 1 656 38
 2890 000c 7B68     		ldr	r3, [r7, #4]
 2891 000e 3A68     		ldr	r2, [r7]	@ float
 2892 0010 9A61     		str	r2, [r3, #24]	@ float
 657:User/Hardware/Robstride04.c ****     motor->output = motor->Motor_Set_All.set_current;
 2893              		.loc 1 657 41
 2894 0012 7B68     		ldr	r3, [r7, #4]
 2895 0014 9A69     		ldr	r2, [r3, #24]	@ float
 2896              		.loc 1 657 19
 2897 0016 7B68     		ldr	r3, [r7, #4]
 2898 0018 5A64     		str	r2, [r3, #68]	@ float
 658:User/Hardware/Robstride04.c ****     
 659:User/Hardware/Robstride04.c ****     if (motor->Motor_Set_All.set_motor_mode != 3)
 2899              		.loc 1 659 29
 2900 001a 7B68     		ldr	r3, [r7, #4]
 2901 001c 1B7D     		ldrb	r3, [r3, #20]	@ zero_extendqisi2
 2902              		.loc 1 659 8
 2903 001e 032B     		cmp	r3, #3
 2904 0020 12D0     		beq	.L111
 660:User/Hardware/Robstride04.c ****     {
 661:User/Hardware/Robstride04.c ****         Set_RobStride_Motor_parameter(motor, 0X7005, Elect_control_mode, 'j');
 2905              		.loc 1 661 9
 2906 0022 6A22     		movs	r2, #106
 2907 0024 B0EE080A 		vmov.f32	s0, #3.0e+0
 2908 0028 47F20501 		movw	r1, #28677
 2909 002c 7868     		ldr	r0, [r7, #4]
 2910 002e FFF7FEFF 		bl	Set_RobStride_Motor_parameter
 662:User/Hardware/Robstride04.c ****         Get_RobStride_Motor_parameter(motor, 0x7005);
 2911              		.loc 1 662 9
 2912 0032 47F20501 		movw	r1, #28677
 2913 0036 7868     		ldr	r0, [r7, #4]
 2914 0038 FFF7FEFF 		bl	Get_RobStride_Motor_parameter
ARM GAS  C:\Users\Godwin\AppData\Local\Temp\ccNCbe5d.s 			page 65


 663:User/Hardware/Robstride04.c ****         motor->Motor_Set_All.set_motor_mode = Elect_control_mode;
 2915              		.loc 1 663 45
 2916 003c 7B68     		ldr	r3, [r7, #4]
 2917 003e 0322     		movs	r2, #3
 2918 0040 1A75     		strb	r2, [r3, #20]
 664:User/Hardware/Robstride04.c ****         Enable_Motor(motor);
 2919              		.loc 1 664 9
 2920 0042 7868     		ldr	r0, [r7, #4]
 2921 0044 FFF7FEFF 		bl	Enable_Motor
 2922              	.L111:
 665:User/Hardware/Robstride04.c ****     }
 666:User/Hardware/Robstride04.c ****     
 667:User/Hardware/Robstride04.c ****     Set_RobStride_Motor_parameter(motor, 0X7006, motor->Motor_Set_All.set_current, 'p');
 2923              		.loc 1 667 5
 2924 0048 7B68     		ldr	r3, [r7, #4]
 2925 004a D3ED067A 		vldr.32	s15, [r3, #24]
 2926 004e 7022     		movs	r2, #112
 2927 0050 B0EE670A 		vmov.f32	s0, s15
 2928 0054 47F20601 		movw	r1, #28678
 2929 0058 7868     		ldr	r0, [r7, #4]
 2930 005a FFF7FEFF 		bl	Set_RobStride_Motor_parameter
 668:User/Hardware/Robstride04.c **** }
 2931              		.loc 1 668 1
 2932 005e 00BF     		nop
 2933 0060 0837     		adds	r7, r7, #8
 2934              	.LCFI117:
 2935              		.cfi_def_cfa_offset 8
 2936 0062 BD46     		mov	sp, r7
 2937              	.LCFI118:
 2938              		.cfi_def_cfa_register 13
 2939              		@ sp needed
 2940 0064 80BD     		pop	{r7, pc}
 2941              		.cfi_endproc
 2942              	.LFE166:
 2944              		.section	.text.RobStride_Motor_Set_Zero_control,"ax",%progbits
 2945              		.align	1
 2946              		.global	RobStride_Motor_Set_Zero_control
 2947              		.syntax unified
 2948              		.thumb
 2949              		.thumb_func
 2951              	RobStride_Motor_Set_Zero_control:
 2952              	.LFB167:
 669:User/Hardware/Robstride04.c **** 
 670:User/Hardware/Robstride04.c **** /*******************************************************************************
 671:User/Hardware/Robstride04.c **** * 函数功能  : RobStride电机零点模式
 672:User/Hardware/Robstride04.c **** *******************************************************************************/
 673:User/Hardware/Robstride04.c **** void RobStride_Motor_Set_Zero_control(RobStride_Motor_t* motor)
 674:User/Hardware/Robstride04.c **** {
 2953              		.loc 1 674 1
 2954              		.cfi_startproc
 2955              		@ args = 0, pretend = 0, frame = 8
 2956              		@ frame_needed = 1, uses_anonymous_args = 0
 2957 0000 80B5     		push	{r7, lr}
 2958              	.LCFI119:
 2959              		.cfi_def_cfa_offset 8
 2960              		.cfi_offset 7, -8
 2961              		.cfi_offset 14, -4
ARM GAS  C:\Users\Godwin\AppData\Local\Temp\ccNCbe5d.s 			page 66


 2962 0002 82B0     		sub	sp, sp, #8
 2963              	.LCFI120:
 2964              		.cfi_def_cfa_offset 16
 2965 0004 00AF     		add	r7, sp, #0
 2966              	.LCFI121:
 2967              		.cfi_def_cfa_register 7
 2968 0006 7860     		str	r0, [r7, #4]
 675:User/Hardware/Robstride04.c ****     Set_RobStride_Motor_parameter(motor, 0X7005, Set_Zero_mode, 'j');
 2969              		.loc 1 675 5
 2970 0008 6A22     		movs	r2, #106
 2971 000a B1EE000A 		vmov.f32	s0, #4.0e+0
 2972 000e 47F20501 		movw	r1, #28677
 2973 0012 7868     		ldr	r0, [r7, #4]
 2974 0014 FFF7FEFF 		bl	Set_RobStride_Motor_parameter
 676:User/Hardware/Robstride04.c **** }
 2975              		.loc 1 676 1
 2976 0018 00BF     		nop
 2977 001a 0837     		adds	r7, r7, #8
 2978              	.LCFI122:
 2979              		.cfi_def_cfa_offset 8
 2980 001c BD46     		mov	sp, r7
 2981              	.LCFI123:
 2982              		.cfi_def_cfa_register 13
 2983              		@ sp needed
 2984 001e 80BD     		pop	{r7, pc}
 2985              		.cfi_endproc
 2986              	.LFE167:
 2988              		.section	.text.Enable_Motor,"ax",%progbits
 2989              		.align	1
 2990              		.global	Enable_Motor
 2991              		.syntax unified
 2992              		.thumb
 2993              		.thumb_func
 2995              	Enable_Motor:
 2996              	.LFB168:
 677:User/Hardware/Robstride04.c **** 
 678:User/Hardware/Robstride04.c **** /*******************************************************************************
 679:User/Hardware/Robstride04.c **** * 函数功能  : RobStride电机使能
 680:User/Hardware/Robstride04.c **** *******************************************************************************/
 681:User/Hardware/Robstride04.c **** void Enable_Motor(RobStride_Motor_t* motor)
 682:User/Hardware/Robstride04.c **** {
 2997              		.loc 1 682 1
 2998              		.cfi_startproc
 2999              		@ args = 0, pretend = 0, frame = 40
 3000              		@ frame_needed = 1, uses_anonymous_args = 0
 3001 0000 80B5     		push	{r7, lr}
 3002              	.LCFI124:
 3003              		.cfi_def_cfa_offset 8
 3004              		.cfi_offset 7, -8
 3005              		.cfi_offset 14, -4
 3006 0002 8AB0     		sub	sp, sp, #40
 3007              	.LCFI125:
 3008              		.cfi_def_cfa_offset 48
 3009 0004 00AF     		add	r7, sp, #0
 3010              	.LCFI126:
 3011              		.cfi_def_cfa_register 7
 3012 0006 7860     		str	r0, [r7, #4]
ARM GAS  C:\Users\Godwin\AppData\Local\Temp\ccNCbe5d.s 			page 67


 683:User/Hardware/Robstride04.c ****     if (motor->MIT_Mode)
 3013              		.loc 1 683 14
 3014 0008 7B68     		ldr	r3, [r7, #4]
 3015 000a 93F84130 		ldrb	r3, [r3, #65]	@ zero_extendqisi2
 3016              		.loc 1 683 8
 3017 000e 002B     		cmp	r3, #0
 3018 0010 03D0     		beq	.L114
 684:User/Hardware/Robstride04.c ****     {
 685:User/Hardware/Robstride04.c ****         RobStride_Motor_MIT_Enable(motor);
 3019              		.loc 1 685 9
 3020 0012 7868     		ldr	r0, [r7, #4]
 3021 0014 FFF7FEFF 		bl	RobStride_Motor_MIT_Enable
 686:User/Hardware/Robstride04.c ****     }
 687:User/Hardware/Robstride04.c ****     else
 688:User/Hardware/Robstride04.c ****     {
 689:User/Hardware/Robstride04.c ****         uint8_t txdata[8] = {0};
 690:User/Hardware/Robstride04.c ****         CAN_TxHeaderTypeDef TxMessage;
 691:User/Hardware/Robstride04.c ****         
 692:User/Hardware/Robstride04.c ****         TxMessage.IDE = CAN_ID_EXT;
 693:User/Hardware/Robstride04.c ****         TxMessage.RTR = CAN_RTR_DATA;
 694:User/Hardware/Robstride04.c ****         TxMessage.DLC = 8;
 695:User/Hardware/Robstride04.c ****         TxMessage.ExtId = (uint32_t)Communication_Type_MotorEnable << 24 | 
 696:User/Hardware/Robstride04.c ****                           (uint32_t)motor->Master_CAN_ID << 8 | 
 697:User/Hardware/Robstride04.c ****                           motor->CAN_ID;
 698:User/Hardware/Robstride04.c ****         
 699:User/Hardware/Robstride04.c ****         // 使用扩展帧发送函数
 700:User/Hardware/Robstride04.c ****         canx_send_ext_data(&hfdcan2, TxMessage.ExtId, txdata, TxMessage.DLC);
 701:User/Hardware/Robstride04.c ****     }
 702:User/Hardware/Robstride04.c **** }
 3022              		.loc 1 702 1
 3023 0018 1AE0     		b	.L116
 3024              	.L114:
 3025              	.LBB14:
 689:User/Hardware/Robstride04.c ****         CAN_TxHeaderTypeDef TxMessage;
 3026              		.loc 1 689 17
 3027 001a 07F12003 		add	r3, r7, #32
 3028 001e 0022     		movs	r2, #0
 3029 0020 1A60     		str	r2, [r3]
 3030 0022 5A60     		str	r2, [r3, #4]
 692:User/Hardware/Robstride04.c ****         TxMessage.RTR = CAN_RTR_DATA;
 3031              		.loc 1 692 23
 3032 0024 0123     		movs	r3, #1
 3033 0026 7B61     		str	r3, [r7, #20]
 693:User/Hardware/Robstride04.c ****         TxMessage.DLC = 8;
 3034              		.loc 1 693 23
 3035 0028 0023     		movs	r3, #0
 3036 002a BB61     		str	r3, [r7, #24]
 694:User/Hardware/Robstride04.c ****         TxMessage.ExtId = (uint32_t)Communication_Type_MotorEnable << 24 | 
 3037              		.loc 1 694 23
 3038 002c 0823     		movs	r3, #8
 3039 002e FB61     		str	r3, [r7, #28]
 696:User/Hardware/Robstride04.c ****                           motor->CAN_ID;
 3040              		.loc 1 696 42
 3041 0030 7B68     		ldr	r3, [r7, #4]
 3042 0032 1B8A     		ldrh	r3, [r3, #16]
 696:User/Hardware/Robstride04.c ****                           motor->CAN_ID;
 3043              		.loc 1 696 58
ARM GAS  C:\Users\Godwin\AppData\Local\Temp\ccNCbe5d.s 			page 68


 3044 0034 1B02     		lsls	r3, r3, #8
 697:User/Hardware/Robstride04.c ****         
 3045              		.loc 1 697 32
 3046 0036 7A68     		ldr	r2, [r7, #4]
 3047 0038 1278     		ldrb	r2, [r2]	@ zero_extendqisi2
 696:User/Hardware/Robstride04.c ****                           motor->CAN_ID;
 3048              		.loc 1 696 63
 3049 003a 1343     		orrs	r3, r3, r2
 3050 003c 43F04073 		orr	r3, r3, #50331648
 695:User/Hardware/Robstride04.c ****                           (uint32_t)motor->Master_CAN_ID << 8 | 
 3051              		.loc 1 695 25
 3052 0040 3B61     		str	r3, [r7, #16]
 700:User/Hardware/Robstride04.c ****     }
 3053              		.loc 1 700 9
 3054 0042 3969     		ldr	r1, [r7, #16]
 3055 0044 FB69     		ldr	r3, [r7, #28]
 3056 0046 07F12002 		add	r2, r7, #32
 3057 004a 0348     		ldr	r0, .L117
 3058 004c FFF7FEFF 		bl	canx_send_ext_data
 3059              	.L116:
 3060              	.LBE14:
 3061              		.loc 1 702 1
 3062 0050 00BF     		nop
 3063 0052 2837     		adds	r7, r7, #40
 3064              	.LCFI127:
 3065              		.cfi_def_cfa_offset 8
 3066 0054 BD46     		mov	sp, r7
 3067              	.LCFI128:
 3068              		.cfi_def_cfa_register 13
 3069              		@ sp needed
 3070 0056 80BD     		pop	{r7, pc}
 3071              	.L118:
 3072              		.align	2
 3073              	.L117:
 3074 0058 00000000 		.word	hfdcan2
 3075              		.cfi_endproc
 3076              	.LFE168:
 3078              		.section	.text.Disenable_Motor,"ax",%progbits
 3079              		.align	1
 3080              		.global	Disenable_Motor
 3081              		.syntax unified
 3082              		.thumb
 3083              		.thumb_func
 3085              	Disenable_Motor:
 3086              	.LFB169:
 703:User/Hardware/Robstride04.c **** 
 704:User/Hardware/Robstride04.c **** /*******************************************************************************
 705:User/Hardware/Robstride04.c **** * 函数功能  : RobStride电机失能
 706:User/Hardware/Robstride04.c **** *******************************************************************************/
 707:User/Hardware/Robstride04.c **** void Disenable_Motor(RobStride_Motor_t* motor, uint8_t clear_error)
 708:User/Hardware/Robstride04.c **** {
 3087              		.loc 1 708 1
 3088              		.cfi_startproc
 3089              		@ args = 0, pretend = 0, frame = 40
 3090              		@ frame_needed = 1, uses_anonymous_args = 0
 3091 0000 80B5     		push	{r7, lr}
 3092              	.LCFI129:
ARM GAS  C:\Users\Godwin\AppData\Local\Temp\ccNCbe5d.s 			page 69


 3093              		.cfi_def_cfa_offset 8
 3094              		.cfi_offset 7, -8
 3095              		.cfi_offset 14, -4
 3096 0002 8AB0     		sub	sp, sp, #40
 3097              	.LCFI130:
 3098              		.cfi_def_cfa_offset 48
 3099 0004 00AF     		add	r7, sp, #0
 3100              	.LCFI131:
 3101              		.cfi_def_cfa_register 7
 3102 0006 7860     		str	r0, [r7, #4]
 3103 0008 0B46     		mov	r3, r1
 3104 000a FB70     		strb	r3, [r7, #3]
 709:User/Hardware/Robstride04.c ****     if (motor->MIT_Mode)
 3105              		.loc 1 709 14
 3106 000c 7B68     		ldr	r3, [r7, #4]
 3107 000e 93F84130 		ldrb	r3, [r3, #65]	@ zero_extendqisi2
 3108              		.loc 1 709 8
 3109 0012 002B     		cmp	r3, #0
 3110 0014 03D0     		beq	.L120
 710:User/Hardware/Robstride04.c ****     {
 711:User/Hardware/Robstride04.c ****         RobStride_Motor_MIT_Disable(motor);
 3111              		.loc 1 711 9
 3112 0016 7868     		ldr	r0, [r7, #4]
 3113 0018 FFF7FEFF 		bl	RobStride_Motor_MIT_Disable
 712:User/Hardware/Robstride04.c ****     }
 713:User/Hardware/Robstride04.c ****     else
 714:User/Hardware/Robstride04.c ****     {
 715:User/Hardware/Robstride04.c ****         uint8_t txdata[8] = {0};
 716:User/Hardware/Robstride04.c ****         CAN_TxHeaderTypeDef TxMessage;
 717:User/Hardware/Robstride04.c ****         
 718:User/Hardware/Robstride04.c ****         txdata[0] = clear_error;
 719:User/Hardware/Robstride04.c ****         TxMessage.IDE = CAN_ID_EXT;
 720:User/Hardware/Robstride04.c ****         TxMessage.RTR = CAN_RTR_DATA;
 721:User/Hardware/Robstride04.c ****         TxMessage.DLC = 8;
 722:User/Hardware/Robstride04.c ****         TxMessage.ExtId = (uint32_t)Communication_Type_MotorStop << 24 | 
 723:User/Hardware/Robstride04.c ****                           (uint32_t)motor->Master_CAN_ID << 8 | 
 724:User/Hardware/Robstride04.c ****                           motor->CAN_ID;
 725:User/Hardware/Robstride04.c ****         
 726:User/Hardware/Robstride04.c ****         // 使用扩展帧发送函数
 727:User/Hardware/Robstride04.c ****         canx_send_ext_data(&hfdcan2, TxMessage.ExtId, txdata, TxMessage.DLC);
 728:User/Hardware/Robstride04.c ****         Set_RobStride_Motor_parameter(motor, 0X7005, move_control_mode, 'j');
 729:User/Hardware/Robstride04.c ****     }
 730:User/Hardware/Robstride04.c **** }
 3114              		.loc 1 730 1
 3115 001c 25E0     		b	.L122
 3116              	.L120:
 3117              	.LBB15:
 715:User/Hardware/Robstride04.c ****         CAN_TxHeaderTypeDef TxMessage;
 3118              		.loc 1 715 17
 3119 001e 07F12003 		add	r3, r7, #32
 3120 0022 0022     		movs	r2, #0
 3121 0024 1A60     		str	r2, [r3]
 3122 0026 5A60     		str	r2, [r3, #4]
 718:User/Hardware/Robstride04.c ****         TxMessage.IDE = CAN_ID_EXT;
 3123              		.loc 1 718 19
 3124 0028 FB78     		ldrb	r3, [r7, #3]
 3125 002a 87F82030 		strb	r3, [r7, #32]
ARM GAS  C:\Users\Godwin\AppData\Local\Temp\ccNCbe5d.s 			page 70


 719:User/Hardware/Robstride04.c ****         TxMessage.RTR = CAN_RTR_DATA;
 3126              		.loc 1 719 23
 3127 002e 0123     		movs	r3, #1
 3128 0030 7B61     		str	r3, [r7, #20]
 720:User/Hardware/Robstride04.c ****         TxMessage.DLC = 8;
 3129              		.loc 1 720 23
 3130 0032 0023     		movs	r3, #0
 3131 0034 BB61     		str	r3, [r7, #24]
 721:User/Hardware/Robstride04.c ****         TxMessage.ExtId = (uint32_t)Communication_Type_MotorStop << 24 | 
 3132              		.loc 1 721 23
 3133 0036 0823     		movs	r3, #8
 3134 0038 FB61     		str	r3, [r7, #28]
 723:User/Hardware/Robstride04.c ****                           motor->CAN_ID;
 3135              		.loc 1 723 42
 3136 003a 7B68     		ldr	r3, [r7, #4]
 3137 003c 1B8A     		ldrh	r3, [r3, #16]
 723:User/Hardware/Robstride04.c ****                           motor->CAN_ID;
 3138              		.loc 1 723 58
 3139 003e 1B02     		lsls	r3, r3, #8
 724:User/Hardware/Robstride04.c ****         
 3140              		.loc 1 724 32
 3141 0040 7A68     		ldr	r2, [r7, #4]
 3142 0042 1278     		ldrb	r2, [r2]	@ zero_extendqisi2
 723:User/Hardware/Robstride04.c ****                           motor->CAN_ID;
 3143              		.loc 1 723 63
 3144 0044 1343     		orrs	r3, r3, r2
 3145 0046 43F08063 		orr	r3, r3, #67108864
 722:User/Hardware/Robstride04.c ****                           (uint32_t)motor->Master_CAN_ID << 8 | 
 3146              		.loc 1 722 25
 3147 004a 3B61     		str	r3, [r7, #16]
 727:User/Hardware/Robstride04.c ****         Set_RobStride_Motor_parameter(motor, 0X7005, move_control_mode, 'j');
 3148              		.loc 1 727 9
 3149 004c 3969     		ldr	r1, [r7, #16]
 3150 004e FB69     		ldr	r3, [r7, #28]
 3151 0050 07F12002 		add	r2, r7, #32
 3152 0054 0748     		ldr	r0, .L123
 3153 0056 FFF7FEFF 		bl	canx_send_ext_data
 728:User/Hardware/Robstride04.c ****     }
 3154              		.loc 1 728 9
 3155 005a 6A22     		movs	r2, #106
 3156 005c 9FED060A 		vldr.32	s0, .L123+4
 3157 0060 47F20501 		movw	r1, #28677
 3158 0064 7868     		ldr	r0, [r7, #4]
 3159 0066 FFF7FEFF 		bl	Set_RobStride_Motor_parameter
 3160              	.L122:
 3161              	.LBE15:
 3162              		.loc 1 730 1
 3163 006a 00BF     		nop
 3164 006c 2837     		adds	r7, r7, #40
 3165              	.LCFI132:
 3166              		.cfi_def_cfa_offset 8
 3167 006e BD46     		mov	sp, r7
 3168              	.LCFI133:
 3169              		.cfi_def_cfa_register 13
 3170              		@ sp needed
 3171 0070 80BD     		pop	{r7, pc}
 3172              	.L124:
ARM GAS  C:\Users\Godwin\AppData\Local\Temp\ccNCbe5d.s 			page 71


 3173 0072 00BF     		.align	2
 3174              	.L123:
 3175 0074 00000000 		.word	hfdcan2
 3176 0078 00000000 		.word	0
 3177              		.cfi_endproc
 3178              	.LFE169:
 3180              		.section	.text.Set_RobStride_Motor_parameter,"ax",%progbits
 3181              		.align	1
 3182              		.global	Set_RobStride_Motor_parameter
 3183              		.syntax unified
 3184              		.thumb
 3185              		.thumb_func
 3187              	Set_RobStride_Motor_parameter:
 3188              	.LFB170:
 731:User/Hardware/Robstride04.c **** 
 732:User/Hardware/Robstride04.c **** /*******************************************************************************
 733:User/Hardware/Robstride04.c **** * 函数功能  : RobStride电机写入参数
 734:User/Hardware/Robstride04.c **** *******************************************************************************/
 735:User/Hardware/Robstride04.c **** void Set_RobStride_Motor_parameter(RobStride_Motor_t* motor, uint16_t Index, float Value, char Valu
 736:User/Hardware/Robstride04.c **** {
 3189              		.loc 1 736 1
 3190              		.cfi_startproc
 3191              		@ args = 0, pretend = 0, frame = 48
 3192              		@ frame_needed = 1, uses_anonymous_args = 0
 3193 0000 80B5     		push	{r7, lr}
 3194              	.LCFI134:
 3195              		.cfi_def_cfa_offset 8
 3196              		.cfi_offset 7, -8
 3197              		.cfi_offset 14, -4
 3198 0002 8CB0     		sub	sp, sp, #48
 3199              	.LCFI135:
 3200              		.cfi_def_cfa_offset 56
 3201 0004 00AF     		add	r7, sp, #0
 3202              	.LCFI136:
 3203              		.cfi_def_cfa_register 7
 3204 0006 F860     		str	r0, [r7, #12]
 3205 0008 0B46     		mov	r3, r1
 3206 000a 87ED010A 		vstr.32	s0, [r7, #4]
 3207 000e 7B81     		strh	r3, [r7, #10]	@ movhi
 3208 0010 1346     		mov	r3, r2
 3209 0012 7B72     		strb	r3, [r7, #9]
 737:User/Hardware/Robstride04.c ****     uint8_t txdata[8] = {0};
 3210              		.loc 1 737 13
 3211 0014 07F12803 		add	r3, r7, #40
 3212 0018 0022     		movs	r2, #0
 3213 001a 1A60     		str	r2, [r3]
 3214 001c 5A60     		str	r2, [r3, #4]
 738:User/Hardware/Robstride04.c ****     CAN_TxHeaderTypeDef TxMessage;
 739:User/Hardware/Robstride04.c ****     
 740:User/Hardware/Robstride04.c ****     TxMessage.IDE = CAN_ID_EXT;
 3215              		.loc 1 740 19
 3216 001e 0123     		movs	r3, #1
 3217 0020 FB61     		str	r3, [r7, #28]
 741:User/Hardware/Robstride04.c ****     TxMessage.RTR = CAN_RTR_DATA;
 3218              		.loc 1 741 19
 3219 0022 0023     		movs	r3, #0
 3220 0024 3B62     		str	r3, [r7, #32]
ARM GAS  C:\Users\Godwin\AppData\Local\Temp\ccNCbe5d.s 			page 72


 742:User/Hardware/Robstride04.c ****     TxMessage.DLC = 8;
 3221              		.loc 1 742 19
 3222 0026 0823     		movs	r3, #8
 3223 0028 7B62     		str	r3, [r7, #36]
 743:User/Hardware/Robstride04.c ****     TxMessage.ExtId = (uint32_t)Communication_Type_SetSingleParameter << 24 | 
 744:User/Hardware/Robstride04.c ****                       (uint32_t)motor->Master_CAN_ID << 8 | 
 3224              		.loc 1 744 38
 3225 002a FB68     		ldr	r3, [r7, #12]
 3226 002c 1B8A     		ldrh	r3, [r3, #16]
 3227              		.loc 1 744 54
 3228 002e 1B02     		lsls	r3, r3, #8
 745:User/Hardware/Robstride04.c ****                       motor->CAN_ID;
 3229              		.loc 1 745 28
 3230 0030 FA68     		ldr	r2, [r7, #12]
 3231 0032 1278     		ldrb	r2, [r2]	@ zero_extendqisi2
 744:User/Hardware/Robstride04.c ****                       motor->CAN_ID;
 3232              		.loc 1 744 59
 3233 0034 1343     		orrs	r3, r3, r2
 3234 0036 43F09053 		orr	r3, r3, #301989888
 743:User/Hardware/Robstride04.c ****     TxMessage.ExtId = (uint32_t)Communication_Type_SetSingleParameter << 24 | 
 3235              		.loc 1 743 21
 3236 003a BB61     		str	r3, [r7, #24]
 746:User/Hardware/Robstride04.c ****     
 747:User/Hardware/Robstride04.c ****     txdata[0] = (uint8_t)(Index & 0xFF);
 3237              		.loc 1 747 17
 3238 003c 7B89     		ldrh	r3, [r7, #10]	@ movhi
 3239 003e DBB2     		uxtb	r3, r3
 3240              		.loc 1 747 15
 3241 0040 87F82830 		strb	r3, [r7, #40]
 748:User/Hardware/Robstride04.c ****     txdata[1] = (uint8_t)(Index >> 8);
 3242              		.loc 1 748 17
 3243 0044 7B89     		ldrh	r3, [r7, #10]
 3244 0046 1B0A     		lsrs	r3, r3, #8
 3245 0048 9BB2     		uxth	r3, r3
 3246 004a DBB2     		uxtb	r3, r3
 3247              		.loc 1 748 15
 3248 004c 87F82930 		strb	r3, [r7, #41]
 749:User/Hardware/Robstride04.c ****     txdata[2] = 0x00;
 3249              		.loc 1 749 15
 3250 0050 0023     		movs	r3, #0
 3251 0052 87F82A30 		strb	r3, [r7, #42]
 750:User/Hardware/Robstride04.c ****     txdata[3] = 0x00;
 3252              		.loc 1 750 15
 3253 0056 0023     		movs	r3, #0
 3254 0058 87F82B30 		strb	r3, [r7, #43]
 751:User/Hardware/Robstride04.c ****     
 752:User/Hardware/Robstride04.c ****     if (Value_mode == 'p')
 3255              		.loc 1 752 8
 3256 005c 7B7A     		ldrb	r3, [r7, #9]	@ zero_extendqisi2
 3257 005e 702B     		cmp	r3, #112
 3258 0060 02D1     		bne	.L126
 753:User/Hardware/Robstride04.c ****     {
 754:User/Hardware/Robstride04.c ****         memcpy(&txdata[4], &Value, 4);
 3259              		.loc 1 754 9
 3260 0062 7B68     		ldr	r3, [r7, #4]
 3261 0064 FB62     		str	r3, [r7, #44]
 3262 0066 1FE0     		b	.L127
ARM GAS  C:\Users\Godwin\AppData\Local\Temp\ccNCbe5d.s 			page 73


 3263              	.L126:
 755:User/Hardware/Robstride04.c ****     }
 756:User/Hardware/Robstride04.c ****     else if (Value_mode == 'j')
 3264              		.loc 1 756 13
 3265 0068 7B7A     		ldrb	r3, [r7, #9]	@ zero_extendqisi2
 3266 006a 6A2B     		cmp	r3, #106
 3267 006c 1CD1     		bne	.L127
 757:User/Hardware/Robstride04.c ****     {
 758:User/Hardware/Robstride04.c ****         motor->Motor_Set_All.set_motor_mode = (uint8_t)Value;
 3268              		.loc 1 758 47
 3269 006e D7ED017A 		vldr.32	s15, [r7, #4]
 3270 0072 FCEEE77A 		vcvt.u32.f32	s15, s15
 3271 0076 C7ED007A 		vstr.32	s15, [r7]	@ int
 3272 007a 3B78     		ldrb	r3, [r7]
 3273 007c DAB2     		uxtb	r2, r3
 3274              		.loc 1 758 45
 3275 007e FB68     		ldr	r3, [r7, #12]
 3276 0080 1A75     		strb	r2, [r3, #20]
 759:User/Hardware/Robstride04.c ****         txdata[4] = (uint8_t)Value;
 3277              		.loc 1 759 21
 3278 0082 D7ED017A 		vldr.32	s15, [r7, #4]
 3279 0086 FCEEE77A 		vcvt.u32.f32	s15, s15
 3280 008a C7ED007A 		vstr.32	s15, [r7]	@ int
 3281 008e 3B78     		ldrb	r3, [r7]
 3282 0090 DBB2     		uxtb	r3, r3
 3283              		.loc 1 759 19
 3284 0092 87F82C30 		strb	r3, [r7, #44]
 760:User/Hardware/Robstride04.c ****         txdata[5] = 0x00;
 3285              		.loc 1 760 19
 3286 0096 0023     		movs	r3, #0
 3287 0098 87F82D30 		strb	r3, [r7, #45]
 761:User/Hardware/Robstride04.c ****         txdata[6] = 0x00;
 3288              		.loc 1 761 19
 3289 009c 0023     		movs	r3, #0
 3290 009e 87F82E30 		strb	r3, [r7, #46]
 762:User/Hardware/Robstride04.c ****         txdata[7] = 0x00;
 3291              		.loc 1 762 19
 3292 00a2 0023     		movs	r3, #0
 3293 00a4 87F82F30 		strb	r3, [r7, #47]
 3294              	.L127:
 763:User/Hardware/Robstride04.c ****     }
 764:User/Hardware/Robstride04.c ****     
 765:User/Hardware/Robstride04.c ****     // 使用扩展帧发送函数
 766:User/Hardware/Robstride04.c ****     canx_send_ext_data(&hfdcan2, TxMessage.ExtId, txdata, TxMessage.DLC);
 3295              		.loc 1 766 5
 3296 00a8 B969     		ldr	r1, [r7, #24]
 3297 00aa 7B6A     		ldr	r3, [r7, #36]
 3298 00ac 07F12802 		add	r2, r7, #40
 3299 00b0 0348     		ldr	r0, .L128
 3300 00b2 FFF7FEFF 		bl	canx_send_ext_data
 767:User/Hardware/Robstride04.c **** }
 3301              		.loc 1 767 1
 3302 00b6 00BF     		nop
 3303 00b8 3037     		adds	r7, r7, #48
 3304              	.LCFI137:
 3305              		.cfi_def_cfa_offset 8
 3306 00ba BD46     		mov	sp, r7
ARM GAS  C:\Users\Godwin\AppData\Local\Temp\ccNCbe5d.s 			page 74


 3307              	.LCFI138:
 3308              		.cfi_def_cfa_register 13
 3309              		@ sp needed
 3310 00bc 80BD     		pop	{r7, pc}
 3311              	.L129:
 3312 00be 00BF     		.align	2
 3313              	.L128:
 3314 00c0 00000000 		.word	hfdcan2
 3315              		.cfi_endproc
 3316              	.LFE170:
 3318              		.section	.text.Get_RobStride_Motor_parameter,"ax",%progbits
 3319              		.align	1
 3320              		.global	Get_RobStride_Motor_parameter
 3321              		.syntax unified
 3322              		.thumb
 3323              		.thumb_func
 3325              	Get_RobStride_Motor_parameter:
 3326              	.LFB171:
 768:User/Hardware/Robstride04.c **** 
 769:User/Hardware/Robstride04.c **** /*******************************************************************************
 770:User/Hardware/Robstride04.c **** * 函数功能  : RobStride电机单个参数读取
 771:User/Hardware/Robstride04.c **** *******************************************************************************/
 772:User/Hardware/Robstride04.c **** void Get_RobStride_Motor_parameter(RobStride_Motor_t* motor, uint16_t Index)
 773:User/Hardware/Robstride04.c **** {
 3327              		.loc 1 773 1
 3328              		.cfi_startproc
 3329              		@ args = 0, pretend = 0, frame = 40
 3330              		@ frame_needed = 1, uses_anonymous_args = 0
 3331 0000 80B5     		push	{r7, lr}
 3332              	.LCFI139:
 3333              		.cfi_def_cfa_offset 8
 3334              		.cfi_offset 7, -8
 3335              		.cfi_offset 14, -4
 3336 0002 8AB0     		sub	sp, sp, #40
 3337              	.LCFI140:
 3338              		.cfi_def_cfa_offset 48
 3339 0004 00AF     		add	r7, sp, #0
 3340              	.LCFI141:
 3341              		.cfi_def_cfa_register 7
 3342 0006 7860     		str	r0, [r7, #4]
 3343 0008 0B46     		mov	r3, r1
 3344 000a 7B80     		strh	r3, [r7, #2]	@ movhi
 774:User/Hardware/Robstride04.c ****     uint8_t txdata[8] = {0};
 3345              		.loc 1 774 13
 3346 000c 07F12003 		add	r3, r7, #32
 3347 0010 0022     		movs	r2, #0
 3348 0012 1A60     		str	r2, [r3]
 3349 0014 5A60     		str	r2, [r3, #4]
 775:User/Hardware/Robstride04.c ****     CAN_TxHeaderTypeDef TxMessage;
 776:User/Hardware/Robstride04.c ****     
 777:User/Hardware/Robstride04.c ****     txdata[0] = (uint8_t)(Index & 0xFF);
 3350              		.loc 1 777 17
 3351 0016 7B88     		ldrh	r3, [r7, #2]	@ movhi
 3352 0018 DBB2     		uxtb	r3, r3
 3353              		.loc 1 777 15
 3354 001a 87F82030 		strb	r3, [r7, #32]
 778:User/Hardware/Robstride04.c ****     txdata[1] = (uint8_t)(Index >> 8);
ARM GAS  C:\Users\Godwin\AppData\Local\Temp\ccNCbe5d.s 			page 75


 3355              		.loc 1 778 17
 3356 001e 7B88     		ldrh	r3, [r7, #2]
 3357 0020 1B0A     		lsrs	r3, r3, #8
 3358 0022 9BB2     		uxth	r3, r3
 3359 0024 DBB2     		uxtb	r3, r3
 3360              		.loc 1 778 15
 3361 0026 87F82130 		strb	r3, [r7, #33]
 779:User/Hardware/Robstride04.c ****     
 780:User/Hardware/Robstride04.c ****     TxMessage.IDE = CAN_ID_EXT;
 3362              		.loc 1 780 19
 3363 002a 0123     		movs	r3, #1
 3364 002c 7B61     		str	r3, [r7, #20]
 781:User/Hardware/Robstride04.c ****     TxMessage.RTR = CAN_RTR_DATA;
 3365              		.loc 1 781 19
 3366 002e 0023     		movs	r3, #0
 3367 0030 BB61     		str	r3, [r7, #24]
 782:User/Hardware/Robstride04.c ****     TxMessage.DLC = 8;
 3368              		.loc 1 782 19
 3369 0032 0823     		movs	r3, #8
 3370 0034 FB61     		str	r3, [r7, #28]
 783:User/Hardware/Robstride04.c ****     TxMessage.ExtId = (uint32_t)Communication_Type_GetSingleParameter << 24 | 
 784:User/Hardware/Robstride04.c ****                       (uint32_t)motor->Master_CAN_ID << 8 | 
 3371              		.loc 1 784 38
 3372 0036 7B68     		ldr	r3, [r7, #4]
 3373 0038 1B8A     		ldrh	r3, [r3, #16]
 3374              		.loc 1 784 54
 3375 003a 1B02     		lsls	r3, r3, #8
 785:User/Hardware/Robstride04.c ****                       motor->CAN_ID;
 3376              		.loc 1 785 28
 3377 003c 7A68     		ldr	r2, [r7, #4]
 3378 003e 1278     		ldrb	r2, [r2]	@ zero_extendqisi2
 784:User/Hardware/Robstride04.c ****                       motor->CAN_ID;
 3379              		.loc 1 784 59
 3380 0040 1343     		orrs	r3, r3, r2
 3381 0042 43F08853 		orr	r3, r3, #285212672
 783:User/Hardware/Robstride04.c ****     TxMessage.ExtId = (uint32_t)Communication_Type_GetSingleParameter << 24 | 
 3382              		.loc 1 783 21
 3383 0046 3B61     		str	r3, [r7, #16]
 786:User/Hardware/Robstride04.c ****     
 787:User/Hardware/Robstride04.c ****     // 使用扩展帧发送函数
 788:User/Hardware/Robstride04.c ****     canx_send_ext_data(&hfdcan2, TxMessage.ExtId, txdata, TxMessage.DLC);
 3384              		.loc 1 788 5
 3385 0048 3969     		ldr	r1, [r7, #16]
 3386 004a FB69     		ldr	r3, [r7, #28]
 3387 004c 07F12002 		add	r2, r7, #32
 3388 0050 0348     		ldr	r0, .L131
 3389 0052 FFF7FEFF 		bl	canx_send_ext_data
 789:User/Hardware/Robstride04.c **** }
 3390              		.loc 1 789 1
 3391 0056 00BF     		nop
 3392 0058 2837     		adds	r7, r7, #40
 3393              	.LCFI142:
 3394              		.cfi_def_cfa_offset 8
 3395 005a BD46     		mov	sp, r7
 3396              	.LCFI143:
 3397              		.cfi_def_cfa_register 13
 3398              		@ sp needed
ARM GAS  C:\Users\Godwin\AppData\Local\Temp\ccNCbe5d.s 			page 76


 3399 005c 80BD     		pop	{r7, pc}
 3400              	.L132:
 3401 005e 00BF     		.align	2
 3402              	.L131:
 3403 0060 00000000 		.word	hfdcan2
 3404              		.cfi_endproc
 3405              	.LFE171:
 3407              		.section	.text.Set_CAN_ID,"ax",%progbits
 3408              		.align	1
 3409              		.global	Set_CAN_ID
 3410              		.syntax unified
 3411              		.thumb
 3412              		.thumb_func
 3414              	Set_CAN_ID:
 3415              	.LFB172:
 790:User/Hardware/Robstride04.c **** 
 791:User/Hardware/Robstride04.c **** /*******************************************************************************
 792:User/Hardware/Robstride04.c **** * 函数功能  : RobStride电机设置CAN_ID
 793:User/Hardware/Robstride04.c **** *******************************************************************************/
 794:User/Hardware/Robstride04.c **** void Set_CAN_ID(RobStride_Motor_t* motor, uint8_t Set_CAN_ID)
 795:User/Hardware/Robstride04.c **** {
 3416              		.loc 1 795 1
 3417              		.cfi_startproc
 3418              		@ args = 0, pretend = 0, frame = 40
 3419              		@ frame_needed = 1, uses_anonymous_args = 0
 3420 0000 80B5     		push	{r7, lr}
 3421              	.LCFI144:
 3422              		.cfi_def_cfa_offset 8
 3423              		.cfi_offset 7, -8
 3424              		.cfi_offset 14, -4
 3425 0002 8AB0     		sub	sp, sp, #40
 3426              	.LCFI145:
 3427              		.cfi_def_cfa_offset 48
 3428 0004 00AF     		add	r7, sp, #0
 3429              	.LCFI146:
 3430              		.cfi_def_cfa_register 7
 3431 0006 7860     		str	r0, [r7, #4]
 3432 0008 0B46     		mov	r3, r1
 3433 000a FB70     		strb	r3, [r7, #3]
 796:User/Hardware/Robstride04.c ****     Disenable_Motor(motor, 0);
 3434              		.loc 1 796 5
 3435 000c 0021     		movs	r1, #0
 3436 000e 7868     		ldr	r0, [r7, #4]
 3437 0010 FFF7FEFF 		bl	Disenable_Motor
 797:User/Hardware/Robstride04.c ****     
 798:User/Hardware/Robstride04.c ****     uint8_t txdata[8] = {0};
 3438              		.loc 1 798 13
 3439 0014 07F12003 		add	r3, r7, #32
 3440 0018 0022     		movs	r2, #0
 3441 001a 1A60     		str	r2, [r3]
 3442 001c 5A60     		str	r2, [r3, #4]
 799:User/Hardware/Robstride04.c ****     CAN_TxHeaderTypeDef TxMessage;
 800:User/Hardware/Robstride04.c ****     
 801:User/Hardware/Robstride04.c ****     TxMessage.IDE = CAN_ID_EXT;
 3443              		.loc 1 801 19
 3444 001e 0123     		movs	r3, #1
 3445 0020 7B61     		str	r3, [r7, #20]
ARM GAS  C:\Users\Godwin\AppData\Local\Temp\ccNCbe5d.s 			page 77


 802:User/Hardware/Robstride04.c ****     TxMessage.RTR = CAN_RTR_DATA;
 3446              		.loc 1 802 19
 3447 0022 0023     		movs	r3, #0
 3448 0024 BB61     		str	r3, [r7, #24]
 803:User/Hardware/Robstride04.c ****     TxMessage.DLC = 8;
 3449              		.loc 1 803 19
 3450 0026 0823     		movs	r3, #8
 3451 0028 FB61     		str	r3, [r7, #28]
 804:User/Hardware/Robstride04.c ****     TxMessage.ExtId = (uint32_t)Communication_Type_Can_ID << 24 | 
 805:User/Hardware/Robstride04.c ****                       (uint32_t)Set_CAN_ID << 16 | 
 3452              		.loc 1 805 23
 3453 002a FB78     		ldrb	r3, [r7, #3]	@ zero_extendqisi2
 3454              		.loc 1 805 44
 3455 002c 1A04     		lsls	r2, r3, #16
 806:User/Hardware/Robstride04.c ****                       (uint32_t)motor->Master_CAN_ID << 8 | 
 3456              		.loc 1 806 38
 3457 002e 7B68     		ldr	r3, [r7, #4]
 3458 0030 1B8A     		ldrh	r3, [r3, #16]
 3459              		.loc 1 806 54
 3460 0032 1B02     		lsls	r3, r3, #8
 805:User/Hardware/Robstride04.c ****                       (uint32_t)motor->Master_CAN_ID << 8 | 
 3461              		.loc 1 805 50
 3462 0034 1343     		orrs	r3, r3, r2
 807:User/Hardware/Robstride04.c ****                       motor->CAN_ID;
 3463              		.loc 1 807 28
 3464 0036 7A68     		ldr	r2, [r7, #4]
 3465 0038 1278     		ldrb	r2, [r2]	@ zero_extendqisi2
 806:User/Hardware/Robstride04.c ****                       (uint32_t)motor->Master_CAN_ID << 8 | 
 3466              		.loc 1 806 59
 3467 003a 1343     		orrs	r3, r3, r2
 3468 003c 43F0E063 		orr	r3, r3, #117440512
 804:User/Hardware/Robstride04.c ****                       (uint32_t)Set_CAN_ID << 16 | 
 3469              		.loc 1 804 21
 3470 0040 3B61     		str	r3, [r7, #16]
 808:User/Hardware/Robstride04.c ****     
 809:User/Hardware/Robstride04.c ****     // 使用扩展帧发送函数
 810:User/Hardware/Robstride04.c ****     canx_send_ext_data(&hfdcan2, TxMessage.ExtId, txdata, TxMessage.DLC);
 3471              		.loc 1 810 5
 3472 0042 3969     		ldr	r1, [r7, #16]
 3473 0044 FB69     		ldr	r3, [r7, #28]
 3474 0046 07F12002 		add	r2, r7, #32
 3475 004a 0348     		ldr	r0, .L134
 3476 004c FFF7FEFF 		bl	canx_send_ext_data
 811:User/Hardware/Robstride04.c **** }
 3477              		.loc 1 811 1
 3478 0050 00BF     		nop
 3479 0052 2837     		adds	r7, r7, #40
 3480              	.LCFI147:
 3481              		.cfi_def_cfa_offset 8
 3482 0054 BD46     		mov	sp, r7
 3483              	.LCFI148:
 3484              		.cfi_def_cfa_register 13
 3485              		@ sp needed
 3486 0056 80BD     		pop	{r7, pc}
 3487              	.L135:
 3488              		.align	2
 3489              	.L134:
ARM GAS  C:\Users\Godwin\AppData\Local\Temp\ccNCbe5d.s 			page 78


 3490 0058 00000000 		.word	hfdcan2
 3491              		.cfi_endproc
 3492              	.LFE172:
 3494              		.section	.text.Set_ZeroPos,"ax",%progbits
 3495              		.align	1
 3496              		.global	Set_ZeroPos
 3497              		.syntax unified
 3498              		.thumb
 3499              		.thumb_func
 3501              	Set_ZeroPos:
 3502              	.LFB173:
 812:User/Hardware/Robstride04.c **** 
 813:User/Hardware/Robstride04.c **** /*******************************************************************************
 814:User/Hardware/Robstride04.c **** * 函数功能  : RobStride电机设置机械零点
 815:User/Hardware/Robstride04.c **** *******************************************************************************/
 816:User/Hardware/Robstride04.c **** void Set_ZeroPos(RobStride_Motor_t* motor)
 817:User/Hardware/Robstride04.c **** {
 3503              		.loc 1 817 1
 3504              		.cfi_startproc
 3505              		@ args = 0, pretend = 0, frame = 40
 3506              		@ frame_needed = 1, uses_anonymous_args = 0
 3507 0000 80B5     		push	{r7, lr}
 3508              	.LCFI149:
 3509              		.cfi_def_cfa_offset 8
 3510              		.cfi_offset 7, -8
 3511              		.cfi_offset 14, -4
 3512 0002 8AB0     		sub	sp, sp, #40
 3513              	.LCFI150:
 3514              		.cfi_def_cfa_offset 48
 3515 0004 00AF     		add	r7, sp, #0
 3516              	.LCFI151:
 3517              		.cfi_def_cfa_register 7
 3518 0006 7860     		str	r0, [r7, #4]
 818:User/Hardware/Robstride04.c ****     Disenable_Motor(motor, 0);
 3519              		.loc 1 818 5
 3520 0008 0021     		movs	r1, #0
 3521 000a 7868     		ldr	r0, [r7, #4]
 3522 000c FFF7FEFF 		bl	Disenable_Motor
 819:User/Hardware/Robstride04.c ****     
 820:User/Hardware/Robstride04.c ****     uint8_t txdata[8] = {0};
 3523              		.loc 1 820 13
 3524 0010 07F12003 		add	r3, r7, #32
 3525 0014 0022     		movs	r2, #0
 3526 0016 1A60     		str	r2, [r3]
 3527 0018 5A60     		str	r2, [r3, #4]
 821:User/Hardware/Robstride04.c ****     CAN_TxHeaderTypeDef TxMessage;
 822:User/Hardware/Robstride04.c ****     
 823:User/Hardware/Robstride04.c ****     TxMessage.IDE = CAN_ID_EXT;
 3528              		.loc 1 823 19
 3529 001a 0123     		movs	r3, #1
 3530 001c 7B61     		str	r3, [r7, #20]
 824:User/Hardware/Robstride04.c ****     TxMessage.RTR = CAN_RTR_DATA;
 3531              		.loc 1 824 19
 3532 001e 0023     		movs	r3, #0
 3533 0020 BB61     		str	r3, [r7, #24]
 825:User/Hardware/Robstride04.c ****     TxMessage.DLC = 8;
 3534              		.loc 1 825 19
ARM GAS  C:\Users\Godwin\AppData\Local\Temp\ccNCbe5d.s 			page 79


 3535 0022 0823     		movs	r3, #8
 3536 0024 FB61     		str	r3, [r7, #28]
 826:User/Hardware/Robstride04.c ****     TxMessage.ExtId = (uint32_t)Communication_Type_SetPosZero << 24 | 
 827:User/Hardware/Robstride04.c ****                       (uint32_t)motor->Master_CAN_ID << 8 | 
 3537              		.loc 1 827 38
 3538 0026 7B68     		ldr	r3, [r7, #4]
 3539 0028 1B8A     		ldrh	r3, [r3, #16]
 3540              		.loc 1 827 54
 3541 002a 1B02     		lsls	r3, r3, #8
 828:User/Hardware/Robstride04.c ****                       motor->CAN_ID;
 3542              		.loc 1 828 28
 3543 002c 7A68     		ldr	r2, [r7, #4]
 3544 002e 1278     		ldrb	r2, [r2]	@ zero_extendqisi2
 827:User/Hardware/Robstride04.c ****                       motor->CAN_ID;
 3545              		.loc 1 827 59
 3546 0030 1343     		orrs	r3, r3, r2
 3547 0032 43F0C063 		orr	r3, r3, #100663296
 826:User/Hardware/Robstride04.c ****     TxMessage.ExtId = (uint32_t)Communication_Type_SetPosZero << 24 | 
 3548              		.loc 1 826 21
 3549 0036 3B61     		str	r3, [r7, #16]
 829:User/Hardware/Robstride04.c ****     
 830:User/Hardware/Robstride04.c ****     txdata[0] = 1;
 3550              		.loc 1 830 15
 3551 0038 0123     		movs	r3, #1
 3552 003a 87F82030 		strb	r3, [r7, #32]
 831:User/Hardware/Robstride04.c ****     // 使用扩展帧发送函数
 832:User/Hardware/Robstride04.c ****     canx_send_ext_data(&hfdcan2, TxMessage.ExtId, txdata, TxMessage.DLC);
 3553              		.loc 1 832 5
 3554 003e 3969     		ldr	r1, [r7, #16]
 3555 0040 FB69     		ldr	r3, [r7, #28]
 3556 0042 07F12002 		add	r2, r7, #32
 3557 0046 0548     		ldr	r0, .L137
 3558 0048 FFF7FEFF 		bl	canx_send_ext_data
 833:User/Hardware/Robstride04.c ****     
 834:User/Hardware/Robstride04.c ****     Enable_Motor(motor);
 3559              		.loc 1 834 5
 3560 004c 7868     		ldr	r0, [r7, #4]
 3561 004e FFF7FEFF 		bl	Enable_Motor
 835:User/Hardware/Robstride04.c **** }
 3562              		.loc 1 835 1
 3563 0052 00BF     		nop
 3564 0054 2837     		adds	r7, r7, #40
 3565              	.LCFI152:
 3566              		.cfi_def_cfa_offset 8
 3567 0056 BD46     		mov	sp, r7
 3568              	.LCFI153:
 3569              		.cfi_def_cfa_register 13
 3570              		@ sp needed
 3571 0058 80BD     		pop	{r7, pc}
 3572              	.L138:
 3573 005a 00BF     		.align	2
 3574              	.L137:
 3575 005c 00000000 		.word	hfdcan2
 3576              		.cfi_endproc
 3577              	.LFE173:
 3579              		.section	.text.RobStride_Motor_MotorDataSave,"ax",%progbits
 3580              		.align	1
ARM GAS  C:\Users\Godwin\AppData\Local\Temp\ccNCbe5d.s 			page 80


 3581              		.global	RobStride_Motor_MotorDataSave
 3582              		.syntax unified
 3583              		.thumb
 3584              		.thumb_func
 3586              	RobStride_Motor_MotorDataSave:
 3587              	.LFB174:
 836:User/Hardware/Robstride04.c **** 
 837:User/Hardware/Robstride04.c **** /*******************************************************************************
 838:User/Hardware/Robstride04.c **** * 函数功能  : RobStride电机数据保存
 839:User/Hardware/Robstride04.c **** *******************************************************************************/
 840:User/Hardware/Robstride04.c **** void RobStride_Motor_MotorDataSave(RobStride_Motor_t* motor)
 841:User/Hardware/Robstride04.c **** {
 3588              		.loc 1 841 1
 3589              		.cfi_startproc
 3590              		@ args = 0, pretend = 0, frame = 40
 3591              		@ frame_needed = 1, uses_anonymous_args = 0
 3592 0000 80B5     		push	{r7, lr}
 3593              	.LCFI154:
 3594              		.cfi_def_cfa_offset 8
 3595              		.cfi_offset 7, -8
 3596              		.cfi_offset 14, -4
 3597 0002 8AB0     		sub	sp, sp, #40
 3598              	.LCFI155:
 3599              		.cfi_def_cfa_offset 48
 3600 0004 00AF     		add	r7, sp, #0
 3601              	.LCFI156:
 3602              		.cfi_def_cfa_register 7
 3603 0006 7860     		str	r0, [r7, #4]
 842:User/Hardware/Robstride04.c ****     uint8_t txdata[8] = {0};
 3604              		.loc 1 842 13
 3605 0008 07F12003 		add	r3, r7, #32
 3606 000c 0022     		movs	r2, #0
 3607 000e 1A60     		str	r2, [r3]
 3608 0010 5A60     		str	r2, [r3, #4]
 843:User/Hardware/Robstride04.c ****     CAN_TxHeaderTypeDef TxMessage;
 844:User/Hardware/Robstride04.c ****     
 845:User/Hardware/Robstride04.c ****     TxMessage.IDE = CAN_ID_EXT;
 3609              		.loc 1 845 19
 3610 0012 0123     		movs	r3, #1
 3611 0014 7B61     		str	r3, [r7, #20]
 846:User/Hardware/Robstride04.c ****     TxMessage.RTR = CAN_RTR_DATA;
 3612              		.loc 1 846 19
 3613 0016 0023     		movs	r3, #0
 3614 0018 BB61     		str	r3, [r7, #24]
 847:User/Hardware/Robstride04.c ****     TxMessage.DLC = 8;
 3615              		.loc 1 847 19
 3616 001a 0823     		movs	r3, #8
 3617 001c FB61     		str	r3, [r7, #28]
 848:User/Hardware/Robstride04.c ****     TxMessage.ExtId = (uint32_t)Communication_Type_MotorDataSave << 24 | 
 849:User/Hardware/Robstride04.c ****                       (uint32_t)motor->Master_CAN_ID << 8 | 
 3618              		.loc 1 849 38
 3619 001e 7B68     		ldr	r3, [r7, #4]
 3620 0020 1B8A     		ldrh	r3, [r3, #16]
 3621              		.loc 1 849 54
 3622 0022 1B02     		lsls	r3, r3, #8
 850:User/Hardware/Robstride04.c ****                       motor->CAN_ID;
 3623              		.loc 1 850 28
ARM GAS  C:\Users\Godwin\AppData\Local\Temp\ccNCbe5d.s 			page 81


 3624 0024 7A68     		ldr	r2, [r7, #4]
 3625 0026 1278     		ldrb	r2, [r2]	@ zero_extendqisi2
 849:User/Hardware/Robstride04.c ****                       motor->CAN_ID;
 3626              		.loc 1 849 59
 3627 0028 1343     		orrs	r3, r3, r2
 3628 002a 43F0B053 		orr	r3, r3, #369098752
 848:User/Hardware/Robstride04.c ****     TxMessage.ExtId = (uint32_t)Communication_Type_MotorDataSave << 24 | 
 3629              		.loc 1 848 21
 3630 002e 3B61     		str	r3, [r7, #16]
 851:User/Hardware/Robstride04.c ****     
 852:User/Hardware/Robstride04.c ****     txdata[0] = 0x01;
 3631              		.loc 1 852 15
 3632 0030 0123     		movs	r3, #1
 3633 0032 87F82030 		strb	r3, [r7, #32]
 853:User/Hardware/Robstride04.c ****     txdata[1] = 0x02;
 3634              		.loc 1 853 15
 3635 0036 0223     		movs	r3, #2
 3636 0038 87F82130 		strb	r3, [r7, #33]
 854:User/Hardware/Robstride04.c ****     txdata[2] = 0x03;
 3637              		.loc 1 854 15
 3638 003c 0323     		movs	r3, #3
 3639 003e 87F82230 		strb	r3, [r7, #34]
 855:User/Hardware/Robstride04.c ****     txdata[3] = 0x04;
 3640              		.loc 1 855 15
 3641 0042 0423     		movs	r3, #4
 3642 0044 87F82330 		strb	r3, [r7, #35]
 856:User/Hardware/Robstride04.c ****     txdata[4] = 0x05;
 3643              		.loc 1 856 15
 3644 0048 0523     		movs	r3, #5
 3645 004a 87F82430 		strb	r3, [r7, #36]
 857:User/Hardware/Robstride04.c ****     txdata[5] = 0x06;
 3646              		.loc 1 857 15
 3647 004e 0623     		movs	r3, #6
 3648 0050 87F82530 		strb	r3, [r7, #37]
 858:User/Hardware/Robstride04.c ****     txdata[6] = 0x07;
 3649              		.loc 1 858 15
 3650 0054 0723     		movs	r3, #7
 3651 0056 87F82630 		strb	r3, [r7, #38]
 859:User/Hardware/Robstride04.c ****     txdata[7] = 0x08;
 3652              		.loc 1 859 15
 3653 005a 0823     		movs	r3, #8
 3654 005c 87F82730 		strb	r3, [r7, #39]
 860:User/Hardware/Robstride04.c ****     
 861:User/Hardware/Robstride04.c ****     // 使用扩展帧发送函数
 862:User/Hardware/Robstride04.c ****     canx_send_ext_data(&hfdcan2, TxMessage.ExtId, txdata, TxMessage.DLC);
 3655              		.loc 1 862 5
 3656 0060 3969     		ldr	r1, [r7, #16]
 3657 0062 FB69     		ldr	r3, [r7, #28]
 3658 0064 07F12002 		add	r2, r7, #32
 3659 0068 0348     		ldr	r0, .L140
 3660 006a FFF7FEFF 		bl	canx_send_ext_data
 863:User/Hardware/Robstride04.c **** }
 3661              		.loc 1 863 1
 3662 006e 00BF     		nop
 3663 0070 2837     		adds	r7, r7, #40
 3664              	.LCFI157:
 3665              		.cfi_def_cfa_offset 8
ARM GAS  C:\Users\Godwin\AppData\Local\Temp\ccNCbe5d.s 			page 82


 3666 0072 BD46     		mov	sp, r7
 3667              	.LCFI158:
 3668              		.cfi_def_cfa_register 13
 3669              		@ sp needed
 3670 0074 80BD     		pop	{r7, pc}
 3671              	.L141:
 3672 0076 00BF     		.align	2
 3673              	.L140:
 3674 0078 00000000 		.word	hfdcan2
 3675              		.cfi_endproc
 3676              	.LFE174:
 3678              		.section	.text.RobStride_Motor_BaudRateChange,"ax",%progbits
 3679              		.align	1
 3680              		.global	RobStride_Motor_BaudRateChange
 3681              		.syntax unified
 3682              		.thumb
 3683              		.thumb_func
 3685              	RobStride_Motor_BaudRateChange:
 3686              	.LFB175:
 864:User/Hardware/Robstride04.c **** 
 865:User/Hardware/Robstride04.c **** /*******************************************************************************
 866:User/Hardware/Robstride04.c **** * 函数功能  : RobStride电机波特率修改
 867:User/Hardware/Robstride04.c **** *******************************************************************************/
 868:User/Hardware/Robstride04.c **** void RobStride_Motor_BaudRateChange(RobStride_Motor_t* motor, uint8_t F_CMD)
 869:User/Hardware/Robstride04.c **** {
 3687              		.loc 1 869 1
 3688              		.cfi_startproc
 3689              		@ args = 0, pretend = 0, frame = 40
 3690              		@ frame_needed = 1, uses_anonymous_args = 0
 3691 0000 80B5     		push	{r7, lr}
 3692              	.LCFI159:
 3693              		.cfi_def_cfa_offset 8
 3694              		.cfi_offset 7, -8
 3695              		.cfi_offset 14, -4
 3696 0002 8AB0     		sub	sp, sp, #40
 3697              	.LCFI160:
 3698              		.cfi_def_cfa_offset 48
 3699 0004 00AF     		add	r7, sp, #0
 3700              	.LCFI161:
 3701              		.cfi_def_cfa_register 7
 3702 0006 7860     		str	r0, [r7, #4]
 3703 0008 0B46     		mov	r3, r1
 3704 000a FB70     		strb	r3, [r7, #3]
 870:User/Hardware/Robstride04.c ****     uint8_t txdata[8] = {0};
 3705              		.loc 1 870 13
 3706 000c 07F12003 		add	r3, r7, #32
 3707 0010 0022     		movs	r2, #0
 3708 0012 1A60     		str	r2, [r3]
 3709 0014 5A60     		str	r2, [r3, #4]
 871:User/Hardware/Robstride04.c ****     CAN_TxHeaderTypeDef TxMessage;
 872:User/Hardware/Robstride04.c ****     
 873:User/Hardware/Robstride04.c ****     TxMessage.IDE = CAN_ID_EXT;
 3710              		.loc 1 873 19
 3711 0016 0123     		movs	r3, #1
 3712 0018 7B61     		str	r3, [r7, #20]
 874:User/Hardware/Robstride04.c ****     TxMessage.RTR = CAN_RTR_DATA;
 3713              		.loc 1 874 19
ARM GAS  C:\Users\Godwin\AppData\Local\Temp\ccNCbe5d.s 			page 83


 3714 001a 0023     		movs	r3, #0
 3715 001c BB61     		str	r3, [r7, #24]
 875:User/Hardware/Robstride04.c ****     TxMessage.DLC = 8;
 3716              		.loc 1 875 19
 3717 001e 0823     		movs	r3, #8
 3718 0020 FB61     		str	r3, [r7, #28]
 876:User/Hardware/Robstride04.c ****     TxMessage.ExtId = (uint32_t)Communication_Type_BaudRateChange << 24 | 
 877:User/Hardware/Robstride04.c ****                       (uint32_t)motor->Master_CAN_ID << 8 | 
 3719              		.loc 1 877 38
 3720 0022 7B68     		ldr	r3, [r7, #4]
 3721 0024 1B8A     		ldrh	r3, [r3, #16]
 3722              		.loc 1 877 54
 3723 0026 1B02     		lsls	r3, r3, #8
 878:User/Hardware/Robstride04.c ****                       motor->CAN_ID;
 3724              		.loc 1 878 28
 3725 0028 7A68     		ldr	r2, [r7, #4]
 3726 002a 1278     		ldrb	r2, [r2]	@ zero_extendqisi2
 877:User/Hardware/Robstride04.c ****                       motor->CAN_ID;
 3727              		.loc 1 877 59
 3728 002c 1343     		orrs	r3, r3, r2
 3729 002e 43F0B853 		orr	r3, r3, #385875968
 876:User/Hardware/Robstride04.c ****     TxMessage.ExtId = (uint32_t)Communication_Type_BaudRateChange << 24 | 
 3730              		.loc 1 876 21
 3731 0032 3B61     		str	r3, [r7, #16]
 879:User/Hardware/Robstride04.c ****     
 880:User/Hardware/Robstride04.c ****     txdata[0] = 0x01;
 3732              		.loc 1 880 15
 3733 0034 0123     		movs	r3, #1
 3734 0036 87F82030 		strb	r3, [r7, #32]
 881:User/Hardware/Robstride04.c ****     txdata[1] = 0x02;
 3735              		.loc 1 881 15
 3736 003a 0223     		movs	r3, #2
 3737 003c 87F82130 		strb	r3, [r7, #33]
 882:User/Hardware/Robstride04.c ****     txdata[2] = 0x03;
 3738              		.loc 1 882 15
 3739 0040 0323     		movs	r3, #3
 3740 0042 87F82230 		strb	r3, [r7, #34]
 883:User/Hardware/Robstride04.c ****     txdata[3] = 0x04;
 3741              		.loc 1 883 15
 3742 0046 0423     		movs	r3, #4
 3743 0048 87F82330 		strb	r3, [r7, #35]
 884:User/Hardware/Robstride04.c ****     txdata[4] = 0x05;
 3744              		.loc 1 884 15
 3745 004c 0523     		movs	r3, #5
 3746 004e 87F82430 		strb	r3, [r7, #36]
 885:User/Hardware/Robstride04.c ****     txdata[5] = 0x06;
 3747              		.loc 1 885 15
 3748 0052 0623     		movs	r3, #6
 3749 0054 87F82530 		strb	r3, [r7, #37]
 886:User/Hardware/Robstride04.c ****     txdata[6] = F_CMD;
 3750              		.loc 1 886 15
 3751 0058 FB78     		ldrb	r3, [r7, #3]
 3752 005a 87F82630 		strb	r3, [r7, #38]
 887:User/Hardware/Robstride04.c ****     txdata[7] = 0x08;
 3753              		.loc 1 887 15
 3754 005e 0823     		movs	r3, #8
 3755 0060 87F82730 		strb	r3, [r7, #39]
ARM GAS  C:\Users\Godwin\AppData\Local\Temp\ccNCbe5d.s 			page 84


 888:User/Hardware/Robstride04.c ****     
 889:User/Hardware/Robstride04.c ****     // 使用扩展帧发送函数
 890:User/Hardware/Robstride04.c ****     canx_send_ext_data(&hfdcan2, TxMessage.ExtId, txdata, TxMessage.DLC);
 3756              		.loc 1 890 5
 3757 0064 3969     		ldr	r1, [r7, #16]
 3758 0066 FB69     		ldr	r3, [r7, #28]
 3759 0068 07F12002 		add	r2, r7, #32
 3760 006c 0348     		ldr	r0, .L143
 3761 006e FFF7FEFF 		bl	canx_send_ext_data
 891:User/Hardware/Robstride04.c **** }
 3762              		.loc 1 891 1
 3763 0072 00BF     		nop
 3764 0074 2837     		adds	r7, r7, #40
 3765              	.LCFI162:
 3766              		.cfi_def_cfa_offset 8
 3767 0076 BD46     		mov	sp, r7
 3768              	.LCFI163:
 3769              		.cfi_def_cfa_register 13
 3770              		@ sp needed
 3771 0078 80BD     		pop	{r7, pc}
 3772              	.L144:
 3773 007a 00BF     		.align	2
 3774              	.L143:
 3775 007c 00000000 		.word	hfdcan2
 3776              		.cfi_endproc
 3777              	.LFE175:
 3779              		.section	.text.RobStride_Motor_ProactiveEscalationSet,"ax",%progbits
 3780              		.align	1
 3781              		.global	RobStride_Motor_ProactiveEscalationSet
 3782              		.syntax unified
 3783              		.thumb
 3784              		.thumb_func
 3786              	RobStride_Motor_ProactiveEscalationSet:
 3787              	.LFB176:
 892:User/Hardware/Robstride04.c **** 
 893:User/Hardware/Robstride04.c **** /*******************************************************************************
 894:User/Hardware/Robstride04.c **** * 函数功能  : RobStride电机主动上报设置
 895:User/Hardware/Robstride04.c **** *******************************************************************************/
 896:User/Hardware/Robstride04.c **** void RobStride_Motor_ProactiveEscalationSet(RobStride_Motor_t* motor, uint8_t F_CMD)
 897:User/Hardware/Robstride04.c **** {
 3788              		.loc 1 897 1
 3789              		.cfi_startproc
 3790              		@ args = 0, pretend = 0, frame = 40
 3791              		@ frame_needed = 1, uses_anonymous_args = 0
 3792 0000 80B5     		push	{r7, lr}
 3793              	.LCFI164:
 3794              		.cfi_def_cfa_offset 8
 3795              		.cfi_offset 7, -8
 3796              		.cfi_offset 14, -4
 3797 0002 8AB0     		sub	sp, sp, #40
 3798              	.LCFI165:
 3799              		.cfi_def_cfa_offset 48
 3800 0004 00AF     		add	r7, sp, #0
 3801              	.LCFI166:
 3802              		.cfi_def_cfa_register 7
 3803 0006 7860     		str	r0, [r7, #4]
 3804 0008 0B46     		mov	r3, r1
ARM GAS  C:\Users\Godwin\AppData\Local\Temp\ccNCbe5d.s 			page 85


 3805 000a FB70     		strb	r3, [r7, #3]
 898:User/Hardware/Robstride04.c ****     uint8_t txdata[8] = {0};
 3806              		.loc 1 898 13
 3807 000c 07F12003 		add	r3, r7, #32
 3808 0010 0022     		movs	r2, #0
 3809 0012 1A60     		str	r2, [r3]
 3810 0014 5A60     		str	r2, [r3, #4]
 899:User/Hardware/Robstride04.c ****     CAN_TxHeaderTypeDef TxMessage;
 900:User/Hardware/Robstride04.c ****     
 901:User/Hardware/Robstride04.c ****     TxMessage.IDE = CAN_ID_EXT;
 3811              		.loc 1 901 19
 3812 0016 0123     		movs	r3, #1
 3813 0018 7B61     		str	r3, [r7, #20]
 902:User/Hardware/Robstride04.c ****     TxMessage.RTR = CAN_RTR_DATA;
 3814              		.loc 1 902 19
 3815 001a 0023     		movs	r3, #0
 3816 001c BB61     		str	r3, [r7, #24]
 903:User/Hardware/Robstride04.c ****     TxMessage.DLC = 8;
 3817              		.loc 1 903 19
 3818 001e 0823     		movs	r3, #8
 3819 0020 FB61     		str	r3, [r7, #28]
 904:User/Hardware/Robstride04.c ****     TxMessage.ExtId = (uint32_t)Communication_Type_ProactiveEscalationSet << 24 | 
 905:User/Hardware/Robstride04.c ****                       (uint32_t)motor->Master_CAN_ID << 8 | 
 3820              		.loc 1 905 38
 3821 0022 7B68     		ldr	r3, [r7, #4]
 3822 0024 1B8A     		ldrh	r3, [r3, #16]
 3823              		.loc 1 905 54
 3824 0026 1B02     		lsls	r3, r3, #8
 906:User/Hardware/Robstride04.c ****                       motor->CAN_ID;
 3825              		.loc 1 906 28
 3826 0028 7A68     		ldr	r2, [r7, #4]
 3827 002a 1278     		ldrb	r2, [r2]	@ zero_extendqisi2
 905:User/Hardware/Robstride04.c ****                       motor->CAN_ID;
 3828              		.loc 1 905 59
 3829 002c 1343     		orrs	r3, r3, r2
 3830 002e 43F0C053 		orr	r3, r3, #402653184
 904:User/Hardware/Robstride04.c ****     TxMessage.ExtId = (uint32_t)Communication_Type_ProactiveEscalationSet << 24 | 
 3831              		.loc 1 904 21
 3832 0032 3B61     		str	r3, [r7, #16]
 907:User/Hardware/Robstride04.c ****     
 908:User/Hardware/Robstride04.c ****     txdata[0] = 0x01;
 3833              		.loc 1 908 15
 3834 0034 0123     		movs	r3, #1
 3835 0036 87F82030 		strb	r3, [r7, #32]
 909:User/Hardware/Robstride04.c ****     txdata[1] = 0x02;
 3836              		.loc 1 909 15
 3837 003a 0223     		movs	r3, #2
 3838 003c 87F82130 		strb	r3, [r7, #33]
 910:User/Hardware/Robstride04.c ****     txdata[2] = 0x03;
 3839              		.loc 1 910 15
 3840 0040 0323     		movs	r3, #3
 3841 0042 87F82230 		strb	r3, [r7, #34]
 911:User/Hardware/Robstride04.c ****     txdata[3] = 0x04;
 3842              		.loc 1 911 15
 3843 0046 0423     		movs	r3, #4
 3844 0048 87F82330 		strb	r3, [r7, #35]
 912:User/Hardware/Robstride04.c ****     txdata[4] = 0x05;
ARM GAS  C:\Users\Godwin\AppData\Local\Temp\ccNCbe5d.s 			page 86


 3845              		.loc 1 912 15
 3846 004c 0523     		movs	r3, #5
 3847 004e 87F82430 		strb	r3, [r7, #36]
 913:User/Hardware/Robstride04.c ****     txdata[5] = 0x06;
 3848              		.loc 1 913 15
 3849 0052 0623     		movs	r3, #6
 3850 0054 87F82530 		strb	r3, [r7, #37]
 914:User/Hardware/Robstride04.c ****     txdata[6] = F_CMD;
 3851              		.loc 1 914 15
 3852 0058 FB78     		ldrb	r3, [r7, #3]
 3853 005a 87F82630 		strb	r3, [r7, #38]
 915:User/Hardware/Robstride04.c ****     txdata[7] = 0x08;
 3854              		.loc 1 915 15
 3855 005e 0823     		movs	r3, #8
 3856 0060 87F82730 		strb	r3, [r7, #39]
 916:User/Hardware/Robstride04.c ****     
 917:User/Hardware/Robstride04.c ****     // 使用扩展帧发送函数
 918:User/Hardware/Robstride04.c ****     canx_send_ext_data(&hfdcan2, TxMessage.ExtId, txdata, TxMessage.DLC);
 3857              		.loc 1 918 5
 3858 0064 3969     		ldr	r1, [r7, #16]
 3859 0066 FB69     		ldr	r3, [r7, #28]
 3860 0068 07F12002 		add	r2, r7, #32
 3861 006c 0348     		ldr	r0, .L146
 3862 006e FFF7FEFF 		bl	canx_send_ext_data
 919:User/Hardware/Robstride04.c **** }
 3863              		.loc 1 919 1
 3864 0072 00BF     		nop
 3865 0074 2837     		adds	r7, r7, #40
 3866              	.LCFI167:
 3867              		.cfi_def_cfa_offset 8
 3868 0076 BD46     		mov	sp, r7
 3869              	.LCFI168:
 3870              		.cfi_def_cfa_register 13
 3871              		@ sp needed
 3872 0078 80BD     		pop	{r7, pc}
 3873              	.L147:
 3874 007a 00BF     		.align	2
 3875              	.L146:
 3876 007c 00000000 		.word	hfdcan2
 3877              		.cfi_endproc
 3878              	.LFE176:
 3880              		.section	.text.RobStride_Motor_MotorModeSet,"ax",%progbits
 3881              		.align	1
 3882              		.global	RobStride_Motor_MotorModeSet
 3883              		.syntax unified
 3884              		.thumb
 3885              		.thumb_func
 3887              	RobStride_Motor_MotorModeSet:
 3888              	.LFB177:
 920:User/Hardware/Robstride04.c **** 
 921:User/Hardware/Robstride04.c **** /*******************************************************************************
 922:User/Hardware/Robstride04.c **** * 函数功能  : RobStride电机协议修改
 923:User/Hardware/Robstride04.c **** *******************************************************************************/
 924:User/Hardware/Robstride04.c **** void RobStride_Motor_MotorModeSet(RobStride_Motor_t* motor, uint8_t F_CMD)
 925:User/Hardware/Robstride04.c **** {
 3889              		.loc 1 925 1
 3890              		.cfi_startproc
ARM GAS  C:\Users\Godwin\AppData\Local\Temp\ccNCbe5d.s 			page 87


 3891              		@ args = 0, pretend = 0, frame = 40
 3892              		@ frame_needed = 1, uses_anonymous_args = 0
 3893 0000 80B5     		push	{r7, lr}
 3894              	.LCFI169:
 3895              		.cfi_def_cfa_offset 8
 3896              		.cfi_offset 7, -8
 3897              		.cfi_offset 14, -4
 3898 0002 8AB0     		sub	sp, sp, #40
 3899              	.LCFI170:
 3900              		.cfi_def_cfa_offset 48
 3901 0004 00AF     		add	r7, sp, #0
 3902              	.LCFI171:
 3903              		.cfi_def_cfa_register 7
 3904 0006 7860     		str	r0, [r7, #4]
 3905 0008 0B46     		mov	r3, r1
 3906 000a FB70     		strb	r3, [r7, #3]
 926:User/Hardware/Robstride04.c ****     uint8_t txdata[8] = {0};
 3907              		.loc 1 926 13
 3908 000c 07F12003 		add	r3, r7, #32
 3909 0010 0022     		movs	r2, #0
 3910 0012 1A60     		str	r2, [r3]
 3911 0014 5A60     		str	r2, [r3, #4]
 927:User/Hardware/Robstride04.c ****     CAN_TxHeaderTypeDef TxMessage;
 928:User/Hardware/Robstride04.c ****     
 929:User/Hardware/Robstride04.c ****     TxMessage.IDE = CAN_ID_EXT;
 3912              		.loc 1 929 19
 3913 0016 0123     		movs	r3, #1
 3914 0018 7B61     		str	r3, [r7, #20]
 930:User/Hardware/Robstride04.c ****     TxMessage.RTR = CAN_RTR_DATA;
 3915              		.loc 1 930 19
 3916 001a 0023     		movs	r3, #0
 3917 001c BB61     		str	r3, [r7, #24]
 931:User/Hardware/Robstride04.c ****     TxMessage.DLC = 8;
 3918              		.loc 1 931 19
 3919 001e 0823     		movs	r3, #8
 3920 0020 FB61     		str	r3, [r7, #28]
 932:User/Hardware/Robstride04.c ****     TxMessage.ExtId = (uint32_t)Communication_Type_MotorModeSet << 24 | 
 933:User/Hardware/Robstride04.c ****                       (uint32_t)motor->Master_CAN_ID << 8 | 
 3921              		.loc 1 933 38
 3922 0022 7B68     		ldr	r3, [r7, #4]
 3923 0024 1B8A     		ldrh	r3, [r3, #16]
 3924              		.loc 1 933 54
 3925 0026 1B02     		lsls	r3, r3, #8
 934:User/Hardware/Robstride04.c ****                       motor->CAN_ID;
 3926              		.loc 1 934 28
 3927 0028 7A68     		ldr	r2, [r7, #4]
 3928 002a 1278     		ldrb	r2, [r2]	@ zero_extendqisi2
 933:User/Hardware/Robstride04.c ****                       motor->CAN_ID;
 3929              		.loc 1 933 59
 3930 002c 1343     		orrs	r3, r3, r2
 3931 002e 43F0C853 		orr	r3, r3, #419430400
 932:User/Hardware/Robstride04.c ****     TxMessage.ExtId = (uint32_t)Communication_Type_MotorModeSet << 24 | 
 3932              		.loc 1 932 21
 3933 0032 3B61     		str	r3, [r7, #16]
 935:User/Hardware/Robstride04.c ****     
 936:User/Hardware/Robstride04.c ****     txdata[0] = 0x01;
 3934              		.loc 1 936 15
ARM GAS  C:\Users\Godwin\AppData\Local\Temp\ccNCbe5d.s 			page 88


 3935 0034 0123     		movs	r3, #1
 3936 0036 87F82030 		strb	r3, [r7, #32]
 937:User/Hardware/Robstride04.c ****     txdata[1] = 0x02;
 3937              		.loc 1 937 15
 3938 003a 0223     		movs	r3, #2
 3939 003c 87F82130 		strb	r3, [r7, #33]
 938:User/Hardware/Robstride04.c ****     txdata[2] = 0x03;
 3940              		.loc 1 938 15
 3941 0040 0323     		movs	r3, #3
 3942 0042 87F82230 		strb	r3, [r7, #34]
 939:User/Hardware/Robstride04.c ****     txdata[3] = 0x04;
 3943              		.loc 1 939 15
 3944 0046 0423     		movs	r3, #4
 3945 0048 87F82330 		strb	r3, [r7, #35]
 940:User/Hardware/Robstride04.c ****     txdata[4] = 0x05;
 3946              		.loc 1 940 15
 3947 004c 0523     		movs	r3, #5
 3948 004e 87F82430 		strb	r3, [r7, #36]
 941:User/Hardware/Robstride04.c ****     txdata[5] = 0x06;
 3949              		.loc 1 941 15
 3950 0052 0623     		movs	r3, #6
 3951 0054 87F82530 		strb	r3, [r7, #37]
 942:User/Hardware/Robstride04.c ****     txdata[6] = F_CMD;
 3952              		.loc 1 942 15
 3953 0058 FB78     		ldrb	r3, [r7, #3]
 3954 005a 87F82630 		strb	r3, [r7, #38]
 943:User/Hardware/Robstride04.c ****     txdata[7] = 0x08;
 3955              		.loc 1 943 15
 3956 005e 0823     		movs	r3, #8
 3957 0060 87F82730 		strb	r3, [r7, #39]
 944:User/Hardware/Robstride04.c ****     
 945:User/Hardware/Robstride04.c ****     // 使用扩展帧发送函数
 946:User/Hardware/Robstride04.c ****     canx_send_ext_data(&hfdcan2, TxMessage.ExtId, txdata, TxMessage.DLC);
 3958              		.loc 1 946 5
 3959 0064 3969     		ldr	r1, [r7, #16]
 3960 0066 FB69     		ldr	r3, [r7, #28]
 3961 0068 07F12002 		add	r2, r7, #32
 3962 006c 0348     		ldr	r0, .L149
 3963 006e FFF7FEFF 		bl	canx_send_ext_data
 947:User/Hardware/Robstride04.c **** }
 3964              		.loc 1 947 1
 3965 0072 00BF     		nop
 3966 0074 2837     		adds	r7, r7, #40
 3967              	.LCFI172:
 3968              		.cfi_def_cfa_offset 8
 3969 0076 BD46     		mov	sp, r7
 3970              	.LCFI173:
 3971              		.cfi_def_cfa_register 13
 3972              		@ sp needed
 3973 0078 80BD     		pop	{r7, pc}
 3974              	.L150:
 3975 007a 00BF     		.align	2
 3976              	.L149:
 3977 007c 00000000 		.word	hfdcan2
 3978              		.cfi_endproc
 3979              	.LFE177:
 3981              		.section	.text.data_read_write_init,"ax",%progbits
ARM GAS  C:\Users\Godwin\AppData\Local\Temp\ccNCbe5d.s 			page 89


 3982              		.align	1
 3983              		.global	data_read_write_init
 3984              		.syntax unified
 3985              		.thumb
 3986              		.thumb_func
 3988              	data_read_write_init:
 3989              	.LFB178:
 948:User/Hardware/Robstride04.c **** 
 949:User/Hardware/Robstride04.c **** /*******************************************************************************
 950:User/Hardware/Robstride04.c **** * 函数功能  : 数据读写结构体初始化
 951:User/Hardware/Robstride04.c **** *******************************************************************************/
 952:User/Hardware/Robstride04.c **** void data_read_write_init(data_read_write_t* drw)
 953:User/Hardware/Robstride04.c **** {
 3990              		.loc 1 953 1
 3991              		.cfi_startproc
 3992              		@ args = 0, pretend = 0, frame = 8
 3993              		@ frame_needed = 1, uses_anonymous_args = 0
 3994              		@ link register save eliminated.
 3995 0000 80B4     		push	{r7}
 3996              	.LCFI174:
 3997              		.cfi_def_cfa_offset 4
 3998              		.cfi_offset 7, -4
 3999 0002 83B0     		sub	sp, sp, #12
 4000              	.LCFI175:
 4001              		.cfi_def_cfa_offset 16
 4002 0004 00AF     		add	r7, sp, #0
 4003              	.LCFI176:
 4004              		.cfi_def_cfa_register 7
 4005 0006 7860     		str	r0, [r7, #4]
 954:User/Hardware/Robstride04.c ****     drw->run_mode.index = Index_List[0];
 4006              		.loc 1 954 37
 4007 0008 47F20502 		movw	r2, #28677
 4008              		.loc 1 954 25
 4009 000c 7B68     		ldr	r3, [r7, #4]
 4010 000e 1A80     		strh	r2, [r3]	@ movhi
 955:User/Hardware/Robstride04.c ****     drw->iq_ref.index = Index_List[1];
 4011              		.loc 1 955 35
 4012 0010 47F20602 		movw	r2, #28678
 4013              		.loc 1 955 23
 4014 0014 7B68     		ldr	r3, [r7, #4]
 4015 0016 1A81     		strh	r2, [r3, #8]	@ movhi
 956:User/Hardware/Robstride04.c ****     drw->spd_ref.index = Index_List[2];
 4016              		.loc 1 956 36
 4017 0018 47F20A02 		movw	r2, #28682
 4018              		.loc 1 956 24
 4019 001c 7B68     		ldr	r3, [r7, #4]
 4020 001e 1A82     		strh	r2, [r3, #16]	@ movhi
 957:User/Hardware/Robstride04.c ****     drw->imit_torque.index = Index_List[3];
 4021              		.loc 1 957 40
 4022 0020 47F20B02 		movw	r2, #28683
 4023              		.loc 1 957 28
 4024 0024 7B68     		ldr	r3, [r7, #4]
 4025 0026 1A83     		strh	r2, [r3, #24]	@ movhi
 958:User/Hardware/Robstride04.c ****     drw->cur_kp.index = Index_List[4];
 4026              		.loc 1 958 35
 4027 0028 47F21002 		movw	r2, #28688
 4028              		.loc 1 958 23
ARM GAS  C:\Users\Godwin\AppData\Local\Temp\ccNCbe5d.s 			page 90


 4029 002c 7B68     		ldr	r3, [r7, #4]
 4030 002e 1A84     		strh	r2, [r3, #32]	@ movhi
 959:User/Hardware/Robstride04.c ****     drw->cur_ki.index = Index_List[5];
 4031              		.loc 1 959 35
 4032 0030 47F21102 		movw	r2, #28689
 4033              		.loc 1 959 23
 4034 0034 7B68     		ldr	r3, [r7, #4]
 4035 0036 1A85     		strh	r2, [r3, #40]	@ movhi
 960:User/Hardware/Robstride04.c ****     drw->cur_filt_gain.index = Index_List[6];
 4036              		.loc 1 960 42
 4037 0038 47F21402 		movw	r2, #28692
 4038              		.loc 1 960 30
 4039 003c 7B68     		ldr	r3, [r7, #4]
 4040 003e 1A86     		strh	r2, [r3, #48]	@ movhi
 961:User/Hardware/Robstride04.c ****     drw->loc_ref.index = Index_List[7];
 4041              		.loc 1 961 36
 4042 0040 47F21602 		movw	r2, #28694
 4043              		.loc 1 961 24
 4044 0044 7B68     		ldr	r3, [r7, #4]
 4045 0046 1A87     		strh	r2, [r3, #56]	@ movhi
 962:User/Hardware/Robstride04.c ****     drw->limit_spd.index = Index_List[8];
 4046              		.loc 1 962 38
 4047 0048 47F21702 		movw	r2, #28695
 4048              		.loc 1 962 26
 4049 004c 7B68     		ldr	r3, [r7, #4]
 4050 004e A3F84020 		strh	r2, [r3, #64]	@ movhi
 963:User/Hardware/Robstride04.c ****     drw->limit_cur.index = Index_List[9];
 4051              		.loc 1 963 38
 4052 0052 47F21802 		movw	r2, #28696
 4053              		.loc 1 963 26
 4054 0056 7B68     		ldr	r3, [r7, #4]
 4055 0058 A3F84820 		strh	r2, [r3, #72]	@ movhi
 964:User/Hardware/Robstride04.c ****     drw->mechPos.index = Index_List[10];
 4056              		.loc 1 964 36
 4057 005c 47F21902 		movw	r2, #28697
 4058              		.loc 1 964 24
 4059 0060 7B68     		ldr	r3, [r7, #4]
 4060 0062 A3F85020 		strh	r2, [r3, #80]	@ movhi
 965:User/Hardware/Robstride04.c ****     drw->iqf.index = Index_List[11];
 4061              		.loc 1 965 32
 4062 0066 47F21A02 		movw	r2, #28698
 4063              		.loc 1 965 20
 4064 006a 7B68     		ldr	r3, [r7, #4]
 4065 006c A3F85820 		strh	r2, [r3, #88]	@ movhi
 966:User/Hardware/Robstride04.c ****     drw->mechVel.index = Index_List[12];
 4066              		.loc 1 966 36
 4067 0070 47F21B02 		movw	r2, #28699
 4068              		.loc 1 966 24
 4069 0074 7B68     		ldr	r3, [r7, #4]
 4070 0076 A3F86020 		strh	r2, [r3, #96]	@ movhi
 967:User/Hardware/Robstride04.c ****     drw->VBUS.index = Index_List[13];
 4071              		.loc 1 967 33
 4072 007a 47F21C02 		movw	r2, #28700
 4073              		.loc 1 967 21
 4074 007e 7B68     		ldr	r3, [r7, #4]
 4075 0080 A3F86820 		strh	r2, [r3, #104]	@ movhi
 968:User/Hardware/Robstride04.c ****     drw->rotation.index = Index_List[14];
ARM GAS  C:\Users\Godwin\AppData\Local\Temp\ccNCbe5d.s 			page 91


 4076              		.loc 1 968 37
 4077 0084 47F21D02 		movw	r2, #28701
 4078              		.loc 1 968 25
 4079 0088 7B68     		ldr	r3, [r7, #4]
 4080 008a A3F87020 		strh	r2, [r3, #112]	@ movhi
 969:User/Hardware/Robstride04.c **** }
 4081              		.loc 1 969 1
 4082 008e 00BF     		nop
 4083 0090 0C37     		adds	r7, r7, #12
 4084              	.LCFI177:
 4085              		.cfi_def_cfa_offset 4
 4086 0092 BD46     		mov	sp, r7
 4087              	.LCFI178:
 4088              		.cfi_def_cfa_register 13
 4089              		@ sp needed
 4090 0094 5DF8047B 		ldr	r7, [sp], #4
 4091              	.LCFI179:
 4092              		.cfi_restore 7
 4093              		.cfi_def_cfa_offset 0
 4094 0098 7047     		bx	lr
 4095              		.cfi_endproc
 4096              	.LFE178:
 4098              		.section	.text.Get_MIT_Mode,"ax",%progbits
 4099              		.align	1
 4100              		.global	Get_MIT_Mode
 4101              		.syntax unified
 4102              		.thumb
 4103              		.thumb_func
 4105              	Get_MIT_Mode:
 4106              	.LFB179:
 970:User/Hardware/Robstride04.c **** 
 971:User/Hardware/Robstride04.c **** /*******************************************************************************
 972:User/Hardware/Robstride04.c **** * 函数功能  : 获取MIT模式状态
 973:User/Hardware/Robstride04.c **** *******************************************************************************/
 974:User/Hardware/Robstride04.c **** bool Get_MIT_Mode(RobStride_Motor_t* motor)
 975:User/Hardware/Robstride04.c **** {
 4107              		.loc 1 975 1
 4108              		.cfi_startproc
 4109              		@ args = 0, pretend = 0, frame = 8
 4110              		@ frame_needed = 1, uses_anonymous_args = 0
 4111              		@ link register save eliminated.
 4112 0000 80B4     		push	{r7}
 4113              	.LCFI180:
 4114              		.cfi_def_cfa_offset 4
 4115              		.cfi_offset 7, -4
 4116 0002 83B0     		sub	sp, sp, #12
 4117              	.LCFI181:
 4118              		.cfi_def_cfa_offset 16
 4119 0004 00AF     		add	r7, sp, #0
 4120              	.LCFI182:
 4121              		.cfi_def_cfa_register 7
 4122 0006 7860     		str	r0, [r7, #4]
 976:User/Hardware/Robstride04.c ****     return motor->MIT_Mode;
 4123              		.loc 1 976 17
 4124 0008 7B68     		ldr	r3, [r7, #4]
 4125 000a 93F84130 		ldrb	r3, [r3, #65]	@ zero_extendqisi2
 977:User/Hardware/Robstride04.c **** }
ARM GAS  C:\Users\Godwin\AppData\Local\Temp\ccNCbe5d.s 			page 92


 4126              		.loc 1 977 1
 4127 000e 1846     		mov	r0, r3
 4128 0010 0C37     		adds	r7, r7, #12
 4129              	.LCFI183:
 4130              		.cfi_def_cfa_offset 4
 4131 0012 BD46     		mov	sp, r7
 4132              	.LCFI184:
 4133              		.cfi_def_cfa_register 13
 4134              		@ sp needed
 4135 0014 5DF8047B 		ldr	r7, [sp], #4
 4136              	.LCFI185:
 4137              		.cfi_restore 7
 4138              		.cfi_def_cfa_offset 0
 4139 0018 7047     		bx	lr
 4140              		.cfi_endproc
 4141              	.LFE179:
 4143              		.section	.text.get_MIT_Type,"ax",%progbits
 4144              		.align	1
 4145              		.global	get_MIT_Type
 4146              		.syntax unified
 4147              		.thumb
 4148              		.thumb_func
 4150              	get_MIT_Type:
 4151              	.LFB180:
 978:User/Hardware/Robstride04.c **** 
 979:User/Hardware/Robstride04.c **** /*******************************************************************************
 980:User/Hardware/Robstride04.c **** * 函数功能  : 获取MIT类型
 981:User/Hardware/Robstride04.c **** *******************************************************************************/
 982:User/Hardware/Robstride04.c **** enum MIT_TYPE get_MIT_Type(RobStride_Motor_t* motor)
 983:User/Hardware/Robstride04.c **** {
 4152              		.loc 1 983 1
 4153              		.cfi_startproc
 4154              		@ args = 0, pretend = 0, frame = 8
 4155              		@ frame_needed = 1, uses_anonymous_args = 0
 4156              		@ link register save eliminated.
 4157 0000 80B4     		push	{r7}
 4158              	.LCFI186:
 4159              		.cfi_def_cfa_offset 4
 4160              		.cfi_offset 7, -4
 4161 0002 83B0     		sub	sp, sp, #12
 4162              	.LCFI187:
 4163              		.cfi_def_cfa_offset 16
 4164 0004 00AF     		add	r7, sp, #0
 4165              	.LCFI188:
 4166              		.cfi_def_cfa_register 7
 4167 0006 7860     		str	r0, [r7, #4]
 984:User/Hardware/Robstride04.c ****     return motor->MIT_Type;
 4168              		.loc 1 984 17
 4169 0008 7B68     		ldr	r3, [r7, #4]
 4170 000a 93F84230 		ldrb	r3, [r3, #66]	@ zero_extendqisi2
 985:User/Hardware/Robstride04.c **** }
 4171              		.loc 1 985 1
 4172 000e 1846     		mov	r0, r3
 4173 0010 0C37     		adds	r7, r7, #12
 4174              	.LCFI189:
 4175              		.cfi_def_cfa_offset 4
 4176 0012 BD46     		mov	sp, r7
ARM GAS  C:\Users\Godwin\AppData\Local\Temp\ccNCbe5d.s 			page 93


 4177              	.LCFI190:
 4178              		.cfi_def_cfa_register 13
 4179              		@ sp needed
 4180 0014 5DF8047B 		ldr	r7, [sp], #4
 4181              	.LCFI191:
 4182              		.cfi_restore 7
 4183              		.cfi_def_cfa_offset 0
 4184 0018 7047     		bx	lr
 4185              		.cfi_endproc
 4186              	.LFE180:
 4188              		.text
 4189              	.Letext0:
 4190              		.file 2 "C:/Users/Godwin/13.2 Rel1/arm-none-eabi/include/machine/_default_types.h"
 4191              		.file 3 "C:/Users/Godwin/13.2 Rel1/arm-none-eabi/include/sys/_stdint.h"
 4192              		.file 4 "Drivers/CMSIS/Device/ST/STM32H7xx/Include/stm32h723xx.h"
 4193              		.file 5 "Drivers/CMSIS/Device/ST/STM32H7xx/Include/stm32h7xx.h"
 4194              		.file 6 "C:/Users/Godwin/13.2 Rel1/lib/gcc/arm-none-eabi/13.2.1/include/stddef.h"
 4195              		.file 7 "Drivers/STM32H7xx_HAL_Driver/Inc/stm32h7xx_hal_def.h"
 4196              		.file 8 "Drivers/STM32H7xx_HAL_Driver/Inc/stm32h7xx_hal_fdcan.h"
 4197              		.file 9 "User/Hardware/Robstride04.h"
 4198              		.file 10 "Core/Inc/fdcan.h"
 4199              		.file 11 "User/BSP/can_receive_send.h"
 4200              		.file 12 "C:/Users/Godwin/13.2 Rel1/arm-none-eabi/include/string.h"
ARM GAS  C:\Users\Godwin\AppData\Local\Temp\ccNCbe5d.s 			page 94

