ARM GAS  C:\Users\Godwin\AppData\Local\Temp\ccGMPn8j.s 			page 1


   1              		.cpu cortex-m7
   2              		.arch armv7e-m
   3              		.fpu fpv5-d16
   4              		.eabi_attribute 28, 1
   5              		.eabi_attribute 20, 1
   6              		.eabi_attribute 21, 1
   7              		.eabi_attribute 23, 3
   8              		.eabi_attribute 24, 1
   9              		.eabi_attribute 25, 1
  10              		.eabi_attribute 26, 1
  11              		.eabi_attribute 30, 6
  12              		.eabi_attribute 34, 1
  13              		.eabi_attribute 18, 4
  14              		.file	"UART_data_txrx.c"
  15              		.text
  16              	.Ltext0:
  17              		.cfi_sections	.debug_frame
  18              		.file 1 "User/BSP/UART_data_txrx.c"
  19              		.global	Flag_T13
  20              		.section	.bss.Flag_T13,"aw",%nobits
  21              		.align	2
  24              	Flag_T13:
  25 0000 00000000 		.space	4
  26              		.global	UART1_data
  27              		.section	.bss.UART1_data,"aw",%nobits
  28              		.align	2
  31              	UART1_data:
  32 0000 00000000 		.space	269
  32      00000000 
  32      00000000 
  32      00000000 
  32      00000000 
  33              		.global	UART2_data
  34              		.section	.bss.UART2_data,"aw",%nobits
  35              		.align	2
  38              	UART2_data:
  39 0000 00000000 		.space	269
  39      00000000 
  39      00000000 
  39      00000000 
  39      00000000 
  40              		.global	UART3_data
  41              		.section	.bss.UART3_data,"aw",%nobits
  42              		.align	2
  45              	UART3_data:
  46 0000 00000000 		.space	269
  46      00000000 
  46      00000000 
  46      00000000 
  46      00000000 
  47              		.global	UART5_data
  48              		.section	.bss.UART5_data,"aw",%nobits
  49              		.align	2
  52              	UART5_data:
  53 0000 00000000 		.space	269
  53      00000000 
  53      00000000 
ARM GAS  C:\Users\Godwin\AppData\Local\Temp\ccGMPn8j.s 			page 2


  53      00000000 
  53      00000000 
  54              		.global	UART7_data
  55              		.section	.bss.UART7_data,"aw",%nobits
  56              		.align	2
  59              	UART7_data:
  60 0000 00000000 		.space	269
  60      00000000 
  60      00000000 
  60      00000000 
  60      00000000 
  61              		.global	UART10_data
  62              		.section	.bss.UART10_data,"aw",%nobits
  63              		.align	2
  66              	UART10_data:
  67 0000 00000000 		.space	269
  67      00000000 
  67      00000000 
  67      00000000 
  67      00000000 
  68              		.section	.text.uart_init,"ax",%progbits
  69              		.align	1
  70              		.global	uart_init
  71              		.syntax unified
  72              		.thumb
  73              		.thumb_func
  75              	uart_init:
  76              	.LFB147:
   1:User/BSP/UART_data_txrx.c **** /**
   2:User/BSP/UART_data_txrx.c ****  * @file UART_data_txrx.c
   3:User/BSP/UART_data_txrx.c ****  * @author sethome
   4:User/BSP/UART_data_txrx.c ****  * @brief 串口数据发送接受
   5:User/BSP/UART_data_txrx.c ****  * @version 0.1
   6:User/BSP/UART_data_txrx.c ****  * @date 2022-11-20
   7:User/BSP/UART_data_txrx.c ****  *
   8:User/BSP/UART_data_txrx.c ****  * @copyright Copyright (c) 2022 sethome
   9:User/BSP/UART_data_txrx.c ****  *
  10:User/BSP/UART_data_txrx.c ****  */
  11:User/BSP/UART_data_txrx.c **** // #include "fifo.h"
  12:User/BSP/UART_data_txrx.c **** #include "stdio.h"
  13:User/BSP/UART_data_txrx.c **** #include "stdlib.h"
  14:User/BSP/UART_data_txrx.c **** #include "string.h"
  15:User/BSP/UART_data_txrx.c **** #include "fifo.h"
  16:User/BSP/UART_data_txrx.c **** #include "UART_data_txrx.h"
  17:User/BSP/UART_data_txrx.c **** uint32_t Flag_T13 = 0;
  18:User/BSP/UART_data_txrx.c **** 
  19:User/BSP/UART_data_txrx.c **** // DMA控制变量
  20:User/BSP/UART_data_txrx.c **** extern DMA_HandleTypeDef hdma_uart5_rx; // 遥控器，仅用接受
  21:User/BSP/UART_data_txrx.c **** extern DMA_HandleTypeDef hdma_uart7_rx; // 串口7，连接电源管理模块
  22:User/BSP/UART_data_txrx.c **** extern DMA_HandleTypeDef hdma_uart7_tx;
  23:User/BSP/UART_data_txrx.c **** extern DMA_HandleTypeDef hdma_usart10_rx; // 串口10，连接图传模块
  24:User/BSP/UART_data_txrx.c **** extern DMA_HandleTypeDef hdma_usart10_tx;
  25:User/BSP/UART_data_txrx.c **** extern DMA_HandleTypeDef hdma_usart1_rx;
  26:User/BSP/UART_data_txrx.c **** extern DMA_HandleTypeDef hdma_usart1_tx;
  27:User/BSP/UART_data_txrx.c **** extern DMA_HandleTypeDef hdma_usart2_rx;
  28:User/BSP/UART_data_txrx.c **** extern DMA_HandleTypeDef hdma_usart2_tx;
  29:User/BSP/UART_data_txrx.c **** extern DMA_HandleTypeDef hdma_usart3_rx;
ARM GAS  C:\Users\Godwin\AppData\Local\Temp\ccGMPn8j.s 			page 3


  30:User/BSP/UART_data_txrx.c **** extern DMA_HandleTypeDef hdma_usart3_tx;
  31:User/BSP/UART_data_txrx.c **** 
  32:User/BSP/UART_data_txrx.c **** // 串口控制变量
  33:User/BSP/UART_data_txrx.c **** extern UART_HandleTypeDef huart1;
  34:User/BSP/UART_data_txrx.c **** extern UART_HandleTypeDef huart2;
  35:User/BSP/UART_data_txrx.c **** extern UART_HandleTypeDef huart3;
  36:User/BSP/UART_data_txrx.c **** extern UART_HandleTypeDef huart5; // 遥控器，可能用不到
  37:User/BSP/UART_data_txrx.c **** extern UART_HandleTypeDef huart7;
  38:User/BSP/UART_data_txrx.c **** extern UART_HandleTypeDef huart10;
  39:User/BSP/UART_data_txrx.c **** 
  40:User/BSP/UART_data_txrx.c **** // 将上述串口+DMA整合，并包含缓冲区
  41:User/BSP/UART_data_txrx.c **** transmit_data UART1_data;
  42:User/BSP/UART_data_txrx.c **** transmit_data UART2_data;
  43:User/BSP/UART_data_txrx.c **** transmit_data UART3_data;
  44:User/BSP/UART_data_txrx.c **** transmit_data UART5_data;
  45:User/BSP/UART_data_txrx.c **** transmit_data UART7_data;
  46:User/BSP/UART_data_txrx.c **** transmit_data UART10_data;
  47:User/BSP/UART_data_txrx.c **** 
  48:User/BSP/UART_data_txrx.c **** /**
  49:User/BSP/UART_data_txrx.c ****  * @brief 串口初始化
  50:User/BSP/UART_data_txrx.c ****  *
  51:User/BSP/UART_data_txrx.c ****  * @return * void
  52:User/BSP/UART_data_txrx.c ****  */
  53:User/BSP/UART_data_txrx.c **** void uart_init(void)
  54:User/BSP/UART_data_txrx.c **** {
  77              		.loc 1 54 1
  78              		.cfi_startproc
  79              		@ args = 0, pretend = 0, frame = 0
  80              		@ frame_needed = 1, uses_anonymous_args = 0
  81 0000 80B5     		push	{r7, lr}
  82              	.LCFI0:
  83              		.cfi_def_cfa_offset 8
  84              		.cfi_offset 7, -8
  85              		.cfi_offset 14, -4
  86 0002 00AF     		add	r7, sp, #0
  87              	.LCFI1:
  88              		.cfi_def_cfa_register 7
  55:User/BSP/UART_data_txrx.c ****   UART_DMA_rxtx_start(&UART1_data, &huart1, &hdma_usart1_rx, &hdma_usart1_rx);
  89              		.loc 1 55 3
  90 0004 124B     		ldr	r3, .L2
  91 0006 124A     		ldr	r2, .L2
  92 0008 1249     		ldr	r1, .L2+4
  93 000a 1348     		ldr	r0, .L2+8
  94 000c FFF7FEFF 		bl	UART_DMA_rxtx_start
  56:User/BSP/UART_data_txrx.c ****   UART_DMA_rxtx_start(&UART2_data, &huart2, &hdma_usart2_rx, &hdma_usart2_rx);
  95              		.loc 1 56 3
  96 0010 124B     		ldr	r3, .L2+12
  97 0012 124A     		ldr	r2, .L2+12
  98 0014 1249     		ldr	r1, .L2+16
  99 0016 1348     		ldr	r0, .L2+20
 100 0018 FFF7FEFF 		bl	UART_DMA_rxtx_start
  57:User/BSP/UART_data_txrx.c ****   UART_DMA_rxtx_start(&UART3_data, &huart3, &hdma_usart3_rx, &hdma_usart3_rx);
 101              		.loc 1 57 3
 102 001c 124B     		ldr	r3, .L2+24
 103 001e 124A     		ldr	r2, .L2+24
 104 0020 1249     		ldr	r1, .L2+28
 105 0022 1348     		ldr	r0, .L2+32
ARM GAS  C:\Users\Godwin\AppData\Local\Temp\ccGMPn8j.s 			page 4


 106 0024 FFF7FEFF 		bl	UART_DMA_rxtx_start
  58:User/BSP/UART_data_txrx.c ****   UART_DMA_rxtx_start(&UART5_data, &huart5, &hdma_uart5_rx, &hdma_uart5_rx);
 107              		.loc 1 58 3
 108 0028 124B     		ldr	r3, .L2+36
 109 002a 124A     		ldr	r2, .L2+36
 110 002c 1249     		ldr	r1, .L2+40
 111 002e 1348     		ldr	r0, .L2+44
 112 0030 FFF7FEFF 		bl	UART_DMA_rxtx_start
  59:User/BSP/UART_data_txrx.c ****   UART_DMA_rxtx_start(&UART7_data, &huart7, &hdma_uart7_rx, &hdma_uart7_tx);
 113              		.loc 1 59 3
 114 0034 124B     		ldr	r3, .L2+48
 115 0036 134A     		ldr	r2, .L2+52
 116 0038 1349     		ldr	r1, .L2+56
 117 003a 1448     		ldr	r0, .L2+60
 118 003c FFF7FEFF 		bl	UART_DMA_rxtx_start
  60:User/BSP/UART_data_txrx.c ****   UART_DMA_rxtx_start(&UART10_data, &huart10, &hdma_usart10_rx, &hdma_usart10_tx);
 119              		.loc 1 60 3
 120 0040 134B     		ldr	r3, .L2+64
 121 0042 144A     		ldr	r2, .L2+68
 122 0044 1449     		ldr	r1, .L2+72
 123 0046 1548     		ldr	r0, .L2+76
 124 0048 FFF7FEFF 		bl	UART_DMA_rxtx_start
  61:User/BSP/UART_data_txrx.c **** }
 125              		.loc 1 61 1
 126 004c 00BF     		nop
 127 004e 80BD     		pop	{r7, pc}
 128              	.L3:
 129              		.align	2
 130              	.L2:
 131 0050 00000000 		.word	hdma_usart1_rx
 132 0054 00000000 		.word	huart1
 133 0058 00000000 		.word	UART1_data
 134 005c 00000000 		.word	hdma_usart2_rx
 135 0060 00000000 		.word	huart2
 136 0064 00000000 		.word	UART2_data
 137 0068 00000000 		.word	hdma_usart3_rx
 138 006c 00000000 		.word	huart3
 139 0070 00000000 		.word	UART3_data
 140 0074 00000000 		.word	hdma_uart5_rx
 141 0078 00000000 		.word	huart5
 142 007c 00000000 		.word	UART5_data
 143 0080 00000000 		.word	hdma_uart7_tx
 144 0084 00000000 		.word	hdma_uart7_rx
 145 0088 00000000 		.word	huart7
 146 008c 00000000 		.word	UART7_data
 147 0090 00000000 		.word	hdma_usart10_tx
 148 0094 00000000 		.word	hdma_usart10_rx
 149 0098 00000000 		.word	huart10
 150 009c 00000000 		.word	UART10_data
 151              		.cfi_endproc
 152              	.LFE147:
 154              		.section	.text.UART_DMA_rxtx_start,"ax",%progbits
 155              		.align	1
 156              		.global	UART_DMA_rxtx_start
 157              		.syntax unified
 158              		.thumb
 159              		.thumb_func
ARM GAS  C:\Users\Godwin\AppData\Local\Temp\ccGMPn8j.s 			page 5


 161              	UART_DMA_rxtx_start:
 162              	.LFB148:
  62:User/BSP/UART_data_txrx.c **** 
  63:User/BSP/UART_data_txrx.c **** /**
  64:User/BSP/UART_data_txrx.c ****  * @brief DMA，串口中断启动，d(?ω?`)o温馨提示，可以在头文件里用宏自定义串口缓冲区大小，
  65:User/BSP/UART_data_txrx.c ****  * @param data 串口整合包指针
  66:User/BSP/UART_data_txrx.c ****  * @param huart 串口指针
  67:User/BSP/UART_data_txrx.c ****  * @param hdma_usart_rx 串口接受dma指针
  68:User/BSP/UART_data_txrx.c ****  * @param hdma_usart_tx 串口发送dma指针
  69:User/BSP/UART_data_txrx.c ****  */
  70:User/BSP/UART_data_txrx.c **** void UART_DMA_rxtx_start(transmit_data *data, UART_HandleTypeDef *huart, DMA_HandleTypeDef *hdma_us
  71:User/BSP/UART_data_txrx.c **** {
 163              		.loc 1 71 1
 164              		.cfi_startproc
 165              		@ args = 0, pretend = 0, frame = 16
 166              		@ frame_needed = 1, uses_anonymous_args = 0
 167 0000 80B5     		push	{r7, lr}
 168              	.LCFI2:
 169              		.cfi_def_cfa_offset 8
 170              		.cfi_offset 7, -8
 171              		.cfi_offset 14, -4
 172 0002 84B0     		sub	sp, sp, #16
 173              	.LCFI3:
 174              		.cfi_def_cfa_offset 24
 175 0004 00AF     		add	r7, sp, #0
 176              	.LCFI4:
 177              		.cfi_def_cfa_register 7
 178 0006 F860     		str	r0, [r7, #12]
 179 0008 B960     		str	r1, [r7, #8]
 180 000a 7A60     		str	r2, [r7, #4]
 181 000c 3B60     		str	r3, [r7]
  72:User/BSP/UART_data_txrx.c ****   data->huart = huart;                 // 串口控制变量
 182              		.loc 1 72 15
 183 000e FB68     		ldr	r3, [r7, #12]
 184 0010 BA68     		ldr	r2, [r7, #8]
 185 0012 1A60     		str	r2, [r3]	@ unaligned
  73:User/BSP/UART_data_txrx.c ****   data->hdma_usart_rx = hdma_usart_rx; // DMA接收缓冲
 186              		.loc 1 73 23
 187 0014 FB68     		ldr	r3, [r7, #12]
 188 0016 7A68     		ldr	r2, [r7, #4]
 189 0018 5A60     		str	r2, [r3, #4]	@ unaligned
  74:User/BSP/UART_data_txrx.c ****   data->hdma_usart_tx = hdma_usart_tx; // DMA发送缓冲
 190              		.loc 1 74 23
 191 001a FB68     		ldr	r3, [r7, #12]
 192 001c 3A68     		ldr	r2, [r7]
 193 001e 9A60     		str	r2, [r3, #8]	@ unaligned
  75:User/BSP/UART_data_txrx.c **** 
  76:User/BSP/UART_data_txrx.c ****   HAL_UARTEx_ReceiveToIdle_DMA(huart, data->rev_data, UART_BUFFER_SIZE); // 开启DMA批量数据接受
 194              		.loc 1 76 43
 195 0020 FB68     		ldr	r3, [r7, #12]
 196 0022 0C33     		adds	r3, r3, #12
 197              		.loc 1 76 3
 198 0024 4FF48072 		mov	r2, #256
 199 0028 1946     		mov	r1, r3
 200 002a B868     		ldr	r0, [r7, #8]
 201 002c FFF7FEFF 		bl	HAL_UARTEx_ReceiveToIdle_DMA
  77:User/BSP/UART_data_txrx.c ****   __HAL_DMA_DISABLE_IT(huart->hdmarx, DMA_IT_HT);                        // 关闭接受过半中断
ARM GAS  C:\Users\Godwin\AppData\Local\Temp\ccGMPn8j.s 			page 6


 202              		.loc 1 77 3
 203 0030 BB68     		ldr	r3, [r7, #8]
 204 0032 D3F88030 		ldr	r3, [r3, #128]
 205 0036 1B68     		ldr	r3, [r3]
 206 0038 444A     		ldr	r2, .L8
 207 003a 9342     		cmp	r3, r2
 208 003c 68D0     		beq	.L5
 209              		.loc 1 77 3 is_stmt 0 discriminator 2
 210 003e BB68     		ldr	r3, [r7, #8]
 211 0040 D3F88030 		ldr	r3, [r3, #128]
 212 0044 1B68     		ldr	r3, [r3]
 213 0046 424A     		ldr	r2, .L8+4
 214 0048 9342     		cmp	r3, r2
 215 004a 61D0     		beq	.L5
 216              		.loc 1 77 3 discriminator 4
 217 004c BB68     		ldr	r3, [r7, #8]
 218 004e D3F88030 		ldr	r3, [r3, #128]
 219 0052 1B68     		ldr	r3, [r3]
 220 0054 3F4A     		ldr	r2, .L8+8
 221 0056 9342     		cmp	r3, r2
 222 0058 5AD0     		beq	.L5
 223              		.loc 1 77 3 discriminator 6
 224 005a BB68     		ldr	r3, [r7, #8]
 225 005c D3F88030 		ldr	r3, [r3, #128]
 226 0060 1B68     		ldr	r3, [r3]
 227 0062 3D4A     		ldr	r2, .L8+12
 228 0064 9342     		cmp	r3, r2
 229 0066 53D0     		beq	.L5
 230              		.loc 1 77 3 discriminator 8
 231 0068 BB68     		ldr	r3, [r7, #8]
 232 006a D3F88030 		ldr	r3, [r3, #128]
 233 006e 1B68     		ldr	r3, [r3]
 234 0070 3A4A     		ldr	r2, .L8+16
 235 0072 9342     		cmp	r3, r2
 236 0074 4CD0     		beq	.L5
 237              		.loc 1 77 3 discriminator 10
 238 0076 BB68     		ldr	r3, [r7, #8]
 239 0078 D3F88030 		ldr	r3, [r3, #128]
 240 007c 1B68     		ldr	r3, [r3]
 241 007e 384A     		ldr	r2, .L8+20
 242 0080 9342     		cmp	r3, r2
 243 0082 45D0     		beq	.L5
 244              		.loc 1 77 3 discriminator 12
 245 0084 BB68     		ldr	r3, [r7, #8]
 246 0086 D3F88030 		ldr	r3, [r3, #128]
 247 008a 1B68     		ldr	r3, [r3]
 248 008c 354A     		ldr	r2, .L8+24
 249 008e 9342     		cmp	r3, r2
 250 0090 3ED0     		beq	.L5
 251              		.loc 1 77 3 discriminator 14
 252 0092 BB68     		ldr	r3, [r7, #8]
 253 0094 D3F88030 		ldr	r3, [r3, #128]
 254 0098 1B68     		ldr	r3, [r3]
 255 009a 334A     		ldr	r2, .L8+28
 256 009c 9342     		cmp	r3, r2
 257 009e 37D0     		beq	.L5
 258              		.loc 1 77 3 discriminator 16
ARM GAS  C:\Users\Godwin\AppData\Local\Temp\ccGMPn8j.s 			page 7


 259 00a0 BB68     		ldr	r3, [r7, #8]
 260 00a2 D3F88030 		ldr	r3, [r3, #128]
 261 00a6 1B68     		ldr	r3, [r3]
 262 00a8 304A     		ldr	r2, .L8+32
 263 00aa 9342     		cmp	r3, r2
 264 00ac 30D0     		beq	.L5
 265              		.loc 1 77 3 discriminator 18
 266 00ae BB68     		ldr	r3, [r7, #8]
 267 00b0 D3F88030 		ldr	r3, [r3, #128]
 268 00b4 1B68     		ldr	r3, [r3]
 269 00b6 2E4A     		ldr	r2, .L8+36
 270 00b8 9342     		cmp	r3, r2
 271 00ba 29D0     		beq	.L5
 272              		.loc 1 77 3 discriminator 20
 273 00bc BB68     		ldr	r3, [r7, #8]
 274 00be D3F88030 		ldr	r3, [r3, #128]
 275 00c2 1B68     		ldr	r3, [r3]
 276 00c4 2B4A     		ldr	r2, .L8+40
 277 00c6 9342     		cmp	r3, r2
 278 00c8 22D0     		beq	.L5
 279              		.loc 1 77 3 discriminator 22
 280 00ca BB68     		ldr	r3, [r7, #8]
 281 00cc D3F88030 		ldr	r3, [r3, #128]
 282 00d0 1B68     		ldr	r3, [r3]
 283 00d2 294A     		ldr	r2, .L8+44
 284 00d4 9342     		cmp	r3, r2
 285 00d6 1BD0     		beq	.L5
 286              		.loc 1 77 3 discriminator 24
 287 00d8 BB68     		ldr	r3, [r7, #8]
 288 00da D3F88030 		ldr	r3, [r3, #128]
 289 00de 1B68     		ldr	r3, [r3]
 290 00e0 264A     		ldr	r2, .L8+48
 291 00e2 9342     		cmp	r3, r2
 292 00e4 14D0     		beq	.L5
 293              		.loc 1 77 3 discriminator 26
 294 00e6 BB68     		ldr	r3, [r7, #8]
 295 00e8 D3F88030 		ldr	r3, [r3, #128]
 296 00ec 1B68     		ldr	r3, [r3]
 297 00ee 244A     		ldr	r2, .L8+52
 298 00f0 9342     		cmp	r3, r2
 299 00f2 0DD0     		beq	.L5
 300              		.loc 1 77 3 discriminator 28
 301 00f4 BB68     		ldr	r3, [r7, #8]
 302 00f6 D3F88030 		ldr	r3, [r3, #128]
 303 00fa 1B68     		ldr	r3, [r3]
 304 00fc 214A     		ldr	r2, .L8+56
 305 00fe 9342     		cmp	r3, r2
 306 0100 06D0     		beq	.L5
 307              		.loc 1 77 3 discriminator 30
 308 0102 BB68     		ldr	r3, [r7, #8]
 309 0104 D3F88030 		ldr	r3, [r3, #128]
 310 0108 1B68     		ldr	r3, [r3]
 311 010a 1F4A     		ldr	r2, .L8+60
 312 010c 9342     		cmp	r3, r2
 313 010e 0CD1     		bne	.L6
 314              	.L5:
 315              		.loc 1 77 3 discriminator 31
ARM GAS  C:\Users\Godwin\AppData\Local\Temp\ccGMPn8j.s 			page 8


 316 0110 BB68     		ldr	r3, [r7, #8]
 317 0112 D3F88030 		ldr	r3, [r3, #128]
 318 0116 1B68     		ldr	r3, [r3]
 319 0118 1A68     		ldr	r2, [r3]
 320 011a BB68     		ldr	r3, [r7, #8]
 321 011c D3F88030 		ldr	r3, [r3, #128]
 322 0120 1B68     		ldr	r3, [r3]
 323 0122 22F00802 		bic	r2, r2, #8
 324 0126 1A60     		str	r2, [r3]
 325              		.loc 1 77 3
 326 0128 0CE0     		b	.L7
 327              	.L6:
 328              		.loc 1 77 3 discriminator 32
 329 012a BB68     		ldr	r3, [r7, #8]
 330 012c D3F88030 		ldr	r3, [r3, #128]
 331 0130 1B68     		ldr	r3, [r3]
 332 0132 1A68     		ldr	r2, [r3]
 333 0134 BB68     		ldr	r3, [r7, #8]
 334 0136 D3F88030 		ldr	r3, [r3, #128]
 335 013a 1B68     		ldr	r3, [r3]
 336 013c 22F00402 		bic	r2, r2, #4
 337 0140 1A60     		str	r2, [r3]
  78:User/BSP/UART_data_txrx.c **** }
 338              		.loc 1 78 1 is_stmt 1
 339 0142 00BF     		nop
 340              	.L7:
 341 0144 00BF     		nop
 342 0146 1037     		adds	r7, r7, #16
 343              	.LCFI5:
 344              		.cfi_def_cfa_offset 8
 345 0148 BD46     		mov	sp, r7
 346              	.LCFI6:
 347              		.cfi_def_cfa_register 13
 348              		@ sp needed
 349 014a 80BD     		pop	{r7, pc}
 350              	.L9:
 351              		.align	2
 352              	.L8:
 353 014c 10000240 		.word	1073872912
 354 0150 28000240 		.word	1073872936
 355 0154 40000240 		.word	1073872960
 356 0158 58000240 		.word	1073872984
 357 015c 70000240 		.word	1073873008
 358 0160 88000240 		.word	1073873032
 359 0164 A0000240 		.word	1073873056
 360 0168 B8000240 		.word	1073873080
 361 016c 10040240 		.word	1073873936
 362 0170 28040240 		.word	1073873960
 363 0174 40040240 		.word	1073873984
 364 0178 58040240 		.word	1073874008
 365 017c 70040240 		.word	1073874032
 366 0180 88040240 		.word	1073874056
 367 0184 A0040240 		.word	1073874080
 368 0188 B8040240 		.word	1073874104
 369              		.cfi_endproc
 370              	.LFE148:
 372              		.section	.text.UART_send_data,"ax",%progbits
ARM GAS  C:\Users\Godwin\AppData\Local\Temp\ccGMPn8j.s 			page 9


 373              		.align	1
 374              		.global	UART_send_data
 375              		.syntax unified
 376              		.thumb
 377              		.thumb_func
 379              	UART_send_data:
 380              	.LFB149:
  79:User/BSP/UART_data_txrx.c **** 
  80:User/BSP/UART_data_txrx.c **** /**
  81:User/BSP/UART_data_txrx.c ****  * @brief 串口发送数据
  82:User/BSP/UART_data_txrx.c ****  *
  83:User/BSP/UART_data_txrx.c ****  * @param uart 发送串口整合包
  84:User/BSP/UART_data_txrx.c ****  * @param data 发送数据（数据别释放了，不然后面收不到）
  85:User/BSP/UART_data_txrx.c ****  * @param size 数据大小
  86:User/BSP/UART_data_txrx.c ****  */
  87:User/BSP/UART_data_txrx.c **** void UART_send_data(transmit_data uart, uint8_t data[], uint16_t size)
  88:User/BSP/UART_data_txrx.c **** {
 381              		.loc 1 88 1
 382              		.cfi_startproc
 383              		@ args = 280, pretend = 16, frame = 0
 384              		@ frame_needed = 1, uses_anonymous_args = 0
 385 0000 84B0     		sub	sp, sp, #16
 386              	.LCFI7:
 387              		.cfi_def_cfa_offset 16
 388 0002 80B5     		push	{r7, lr}
 389              	.LCFI8:
 390              		.cfi_def_cfa_offset 24
 391              		.cfi_offset 7, -24
 392              		.cfi_offset 14, -20
 393 0004 00AF     		add	r7, sp, #0
 394              	.LCFI9:
 395              		.cfi_def_cfa_register 7
 396 0006 07F1080C 		add	ip, r7, #8
 397 000a 8CE80F00 		stm	ip, {r0, r1, r2, r3}
  89:User/BSP/UART_data_txrx.c ****   //+++++++++++++++//while(HAL_DMA_GetState(UART6_data.hdma_usart_tx) != HAL_DMA_STATE_READY)
  90:User/BSP/UART_data_txrx.c ****   HAL_UART_Transmit_DMA(uart.huart, data, size); // 套娃d(?ω?`)o
 398              		.loc 1 90 3
 399 000e BB68     		ldr	r3, [r7, #8]
 400 0010 B7F81C21 		ldrh	r2, [r7, #284]
 401 0014 D7F81811 		ldr	r1, [r7, #280]
 402 0018 1846     		mov	r0, r3
 403 001a FFF7FEFF 		bl	HAL_UART_Transmit_DMA
  91:User/BSP/UART_data_txrx.c **** }
 404              		.loc 1 91 1
 405 001e 00BF     		nop
 406 0020 BD46     		mov	sp, r7
 407              	.LCFI10:
 408              		.cfi_def_cfa_register 13
 409              		@ sp needed
 410 0022 BDE88040 		pop	{r7, lr}
 411              	.LCFI11:
 412              		.cfi_restore 14
 413              		.cfi_restore 7
 414              		.cfi_def_cfa_offset 16
 415 0026 04B0     		add	sp, sp, #16
 416              	.LCFI12:
 417              		.cfi_def_cfa_offset 0
ARM GAS  C:\Users\Godwin\AppData\Local\Temp\ccGMPn8j.s 			page 10


 418 0028 7047     		bx	lr
 419              		.cfi_endproc
 420              	.LFE149:
 422              		.section	.text.HAL_UARTEx_RxEventCallback,"ax",%progbits
 423              		.align	1
 424              		.global	HAL_UARTEx_RxEventCallback
 425              		.syntax unified
 426              		.thumb
 427              		.thumb_func
 429              	HAL_UARTEx_RxEventCallback:
 430              	.LFB150:
  92:User/BSP/UART_data_txrx.c **** 
  93:User/BSP/UART_data_txrx.c **** /**
  94:User/BSP/UART_data_txrx.c ****  * @brief 串口接受空回调函数，用于接受不定长数据，放置数据处理函数
  95:User/BSP/UART_data_txrx.c ****  *
  96:User/BSP/UART_data_txrx.c ****  * @param huart 接受到数据的串口
  97:User/BSP/UART_data_txrx.c ****  * @param Size 数据大小
  98:User/BSP/UART_data_txrx.c ****  */
  99:User/BSP/UART_data_txrx.c **** void HAL_UARTEx_RxEventCallback(UART_HandleTypeDef *huart, uint16_t Size)
 100:User/BSP/UART_data_txrx.c **** {
 431              		.loc 1 100 1
 432              		.cfi_startproc
 433              		@ args = 0, pretend = 0, frame = 8
 434              		@ frame_needed = 1, uses_anonymous_args = 0
 435 0000 80B5     		push	{r7, lr}
 436              	.LCFI13:
 437              		.cfi_def_cfa_offset 8
 438              		.cfi_offset 7, -8
 439              		.cfi_offset 14, -4
 440 0002 82B0     		sub	sp, sp, #8
 441              	.LCFI14:
 442              		.cfi_def_cfa_offset 16
 443 0004 00AF     		add	r7, sp, #0
 444              	.LCFI15:
 445              		.cfi_def_cfa_register 7
 446 0006 7860     		str	r0, [r7, #4]
 447 0008 0B46     		mov	r3, r1
 448 000a 7B80     		strh	r3, [r7, #2]	@ movhi
 101:User/BSP/UART_data_txrx.c ****   if (huart == &huart5) // 遥控器
 449              		.loc 1 101 6
 450 000c 7B68     		ldr	r3, [r7, #4]
 451 000e 954A     		ldr	r2, .L24
 452 0010 9342     		cmp	r3, r2
 453 0012 00F0F781 		beq	.L23
 102:User/BSP/UART_data_txrx.c ****   {
 103:User/BSP/UART_data_txrx.c ****     // // DT7_decode_data(UART5_data.rev_data);
 104:User/BSP/UART_data_txrx.c ****     // update_sbus(UART5_data.rev_data, &SBUS_CH);
 105:User/BSP/UART_data_txrx.c ****     // HAL_UARTEx_ReceiveToIdle_DMA(huart, UART5_data.rev_data, UART_BUFFER_SIZE);
 106:User/BSP/UART_data_txrx.c ****     // __HAL_DMA_DISABLE_IT(huart->hdmarx, DMA_IT_HT);
 107:User/BSP/UART_data_txrx.c ****   }
 108:User/BSP/UART_data_txrx.c ****   else if (huart == &huart7) // 电管裁判系统
 454              		.loc 1 108 11
 455 0016 7B68     		ldr	r3, [r7, #4]
 456 0018 934A     		ldr	r2, .L24+4
 457 001a 9342     		cmp	r3, r2
 458 001c 00F0F281 		beq	.L23
 109:User/BSP/UART_data_txrx.c ****   {
ARM GAS  C:\Users\Godwin\AppData\Local\Temp\ccGMPn8j.s 			page 11


 110:User/BSP/UART_data_txrx.c ****  
 111:User/BSP/UART_data_txrx.c ****   }
 112:User/BSP/UART_data_txrx.c ****   else if (huart == &huart10) // 图传链路裁判系统
 459              		.loc 1 112 11
 460 0020 7B68     		ldr	r3, [r7, #4]
 461 0022 924A     		ldr	r2, .L24+8
 462 0024 9342     		cmp	r3, r2
 463 0026 00F0ED81 		beq	.L23
 113:User/BSP/UART_data_txrx.c ****   {
 114:User/BSP/UART_data_txrx.c **** 
 115:User/BSP/UART_data_txrx.c ****   }
 116:User/BSP/UART_data_txrx.c ****   else if (huart == &huart1)
 464              		.loc 1 116 11
 465 002a 7B68     		ldr	r3, [r7, #4]
 466 002c 904A     		ldr	r2, .L24+12
 467 002e 9342     		cmp	r3, r2
 468 0030 40F09080 		bne	.L13
 117:User/BSP/UART_data_txrx.c ****   {
 118:User/BSP/UART_data_txrx.c ****     if (UART1_data.rev_data[0] == 0xA5)
 119:User/BSP/UART_data_txrx.c ****     {
 120:User/BSP/UART_data_txrx.c ****      
 121:User/BSP/UART_data_txrx.c ****     }
 122:User/BSP/UART_data_txrx.c ****     HAL_UARTEx_ReceiveToIdle_DMA(huart, UART1_data.rev_data, UART_BUFFER_SIZE);
 469              		.loc 1 122 5
 470 0034 4FF48072 		mov	r2, #256
 471 0038 8E49     		ldr	r1, .L24+16
 472 003a 7868     		ldr	r0, [r7, #4]
 473 003c FFF7FEFF 		bl	HAL_UARTEx_ReceiveToIdle_DMA
 123:User/BSP/UART_data_txrx.c ****     __HAL_DMA_DISABLE_IT(huart->hdmarx, DMA_IT_HT);
 474              		.loc 1 123 5
 475 0040 7B68     		ldr	r3, [r7, #4]
 476 0042 D3F88030 		ldr	r3, [r3, #128]
 477 0046 1B68     		ldr	r3, [r3]
 478 0048 8B4A     		ldr	r2, .L24+20
 479 004a 9342     		cmp	r3, r2
 480 004c 68D0     		beq	.L14
 481              		.loc 1 123 5 is_stmt 0 discriminator 2
 482 004e 7B68     		ldr	r3, [r7, #4]
 483 0050 D3F88030 		ldr	r3, [r3, #128]
 484 0054 1B68     		ldr	r3, [r3]
 485 0056 894A     		ldr	r2, .L24+24
 486 0058 9342     		cmp	r3, r2
 487 005a 61D0     		beq	.L14
 488              		.loc 1 123 5 discriminator 4
 489 005c 7B68     		ldr	r3, [r7, #4]
 490 005e D3F88030 		ldr	r3, [r3, #128]
 491 0062 1B68     		ldr	r3, [r3]
 492 0064 864A     		ldr	r2, .L24+28
 493 0066 9342     		cmp	r3, r2
 494 0068 5AD0     		beq	.L14
 495              		.loc 1 123 5 discriminator 6
 496 006a 7B68     		ldr	r3, [r7, #4]
 497 006c D3F88030 		ldr	r3, [r3, #128]
 498 0070 1B68     		ldr	r3, [r3]
 499 0072 844A     		ldr	r2, .L24+32
 500 0074 9342     		cmp	r3, r2
 501 0076 53D0     		beq	.L14
ARM GAS  C:\Users\Godwin\AppData\Local\Temp\ccGMPn8j.s 			page 12


 502              		.loc 1 123 5 discriminator 8
 503 0078 7B68     		ldr	r3, [r7, #4]
 504 007a D3F88030 		ldr	r3, [r3, #128]
 505 007e 1B68     		ldr	r3, [r3]
 506 0080 814A     		ldr	r2, .L24+36
 507 0082 9342     		cmp	r3, r2
 508 0084 4CD0     		beq	.L14
 509              		.loc 1 123 5 discriminator 10
 510 0086 7B68     		ldr	r3, [r7, #4]
 511 0088 D3F88030 		ldr	r3, [r3, #128]
 512 008c 1B68     		ldr	r3, [r3]
 513 008e 7F4A     		ldr	r2, .L24+40
 514 0090 9342     		cmp	r3, r2
 515 0092 45D0     		beq	.L14
 516              		.loc 1 123 5 discriminator 12
 517 0094 7B68     		ldr	r3, [r7, #4]
 518 0096 D3F88030 		ldr	r3, [r3, #128]
 519 009a 1B68     		ldr	r3, [r3]
 520 009c 7C4A     		ldr	r2, .L24+44
 521 009e 9342     		cmp	r3, r2
 522 00a0 3ED0     		beq	.L14
 523              		.loc 1 123 5 discriminator 14
 524 00a2 7B68     		ldr	r3, [r7, #4]
 525 00a4 D3F88030 		ldr	r3, [r3, #128]
 526 00a8 1B68     		ldr	r3, [r3]
 527 00aa 7A4A     		ldr	r2, .L24+48
 528 00ac 9342     		cmp	r3, r2
 529 00ae 37D0     		beq	.L14
 530              		.loc 1 123 5 discriminator 16
 531 00b0 7B68     		ldr	r3, [r7, #4]
 532 00b2 D3F88030 		ldr	r3, [r3, #128]
 533 00b6 1B68     		ldr	r3, [r3]
 534 00b8 774A     		ldr	r2, .L24+52
 535 00ba 9342     		cmp	r3, r2
 536 00bc 30D0     		beq	.L14
 537              		.loc 1 123 5 discriminator 18
 538 00be 7B68     		ldr	r3, [r7, #4]
 539 00c0 D3F88030 		ldr	r3, [r3, #128]
 540 00c4 1B68     		ldr	r3, [r3]
 541 00c6 754A     		ldr	r2, .L24+56
 542 00c8 9342     		cmp	r3, r2
 543 00ca 29D0     		beq	.L14
 544              		.loc 1 123 5 discriminator 20
 545 00cc 7B68     		ldr	r3, [r7, #4]
 546 00ce D3F88030 		ldr	r3, [r3, #128]
 547 00d2 1B68     		ldr	r3, [r3]
 548 00d4 724A     		ldr	r2, .L24+60
 549 00d6 9342     		cmp	r3, r2
 550 00d8 22D0     		beq	.L14
 551              		.loc 1 123 5 discriminator 22
 552 00da 7B68     		ldr	r3, [r7, #4]
 553 00dc D3F88030 		ldr	r3, [r3, #128]
 554 00e0 1B68     		ldr	r3, [r3]
 555 00e2 704A     		ldr	r2, .L24+64
 556 00e4 9342     		cmp	r3, r2
 557 00e6 1BD0     		beq	.L14
 558              		.loc 1 123 5 discriminator 24
ARM GAS  C:\Users\Godwin\AppData\Local\Temp\ccGMPn8j.s 			page 13


 559 00e8 7B68     		ldr	r3, [r7, #4]
 560 00ea D3F88030 		ldr	r3, [r3, #128]
 561 00ee 1B68     		ldr	r3, [r3]
 562 00f0 6D4A     		ldr	r2, .L24+68
 563 00f2 9342     		cmp	r3, r2
 564 00f4 14D0     		beq	.L14
 565              		.loc 1 123 5 discriminator 26
 566 00f6 7B68     		ldr	r3, [r7, #4]
 567 00f8 D3F88030 		ldr	r3, [r3, #128]
 568 00fc 1B68     		ldr	r3, [r3]
 569 00fe 6B4A     		ldr	r2, .L24+72
 570 0100 9342     		cmp	r3, r2
 571 0102 0DD0     		beq	.L14
 572              		.loc 1 123 5 discriminator 28
 573 0104 7B68     		ldr	r3, [r7, #4]
 574 0106 D3F88030 		ldr	r3, [r3, #128]
 575 010a 1B68     		ldr	r3, [r3]
 576 010c 684A     		ldr	r2, .L24+76
 577 010e 9342     		cmp	r3, r2
 578 0110 06D0     		beq	.L14
 579              		.loc 1 123 5 discriminator 30
 580 0112 7B68     		ldr	r3, [r7, #4]
 581 0114 D3F88030 		ldr	r3, [r3, #128]
 582 0118 1B68     		ldr	r3, [r3]
 583 011a 664A     		ldr	r2, .L24+80
 584 011c 9342     		cmp	r3, r2
 585 011e 0CD1     		bne	.L15
 586              	.L14:
 587              		.loc 1 123 5 discriminator 31
 588 0120 7B68     		ldr	r3, [r7, #4]
 589 0122 D3F88030 		ldr	r3, [r3, #128]
 590 0126 1B68     		ldr	r3, [r3]
 591 0128 1A68     		ldr	r2, [r3]
 592 012a 7B68     		ldr	r3, [r7, #4]
 593 012c D3F88030 		ldr	r3, [r3, #128]
 594 0130 1B68     		ldr	r3, [r3]
 595 0132 22F00802 		bic	r2, r2, #8
 596 0136 1A60     		str	r2, [r3]
 597              		.loc 1 123 5
 598 0138 64E1     		b	.L12
 599              	.L15:
 600              		.loc 1 123 5 discriminator 32
 601 013a 7B68     		ldr	r3, [r7, #4]
 602 013c D3F88030 		ldr	r3, [r3, #128]
 603 0140 1B68     		ldr	r3, [r3]
 604 0142 1A68     		ldr	r2, [r3]
 605 0144 7B68     		ldr	r3, [r7, #4]
 606 0146 D3F88030 		ldr	r3, [r3, #128]
 607 014a 1B68     		ldr	r3, [r3]
 608 014c 22F00402 		bic	r2, r2, #4
 609 0150 1A60     		str	r2, [r3]
 124:User/BSP/UART_data_txrx.c ****   }
 125:User/BSP/UART_data_txrx.c ****   else if (huart == &huart2)
 126:User/BSP/UART_data_txrx.c ****   {
 127:User/BSP/UART_data_txrx.c ****     HAL_UARTEx_ReceiveToIdle_DMA(huart, UART2_data.rev_data, UART_BUFFER_SIZE);
 128:User/BSP/UART_data_txrx.c ****     __HAL_DMA_DISABLE_IT(huart->hdmarx, DMA_IT_HT);
 129:User/BSP/UART_data_txrx.c ****   }
ARM GAS  C:\Users\Godwin\AppData\Local\Temp\ccGMPn8j.s 			page 14


 130:User/BSP/UART_data_txrx.c ****   else if (huart == &huart3)
 131:User/BSP/UART_data_txrx.c ****   {
 132:User/BSP/UART_data_txrx.c ****     HAL_UARTEx_ReceiveToIdle_DMA(huart, UART3_data.rev_data, UART_BUFFER_SIZE);
 133:User/BSP/UART_data_txrx.c ****     __HAL_DMA_DISABLE_IT(huart->hdmarx, DMA_IT_HT);
 134:User/BSP/UART_data_txrx.c ****   }
 135:User/BSP/UART_data_txrx.c **** }
 610              		.loc 1 135 1 is_stmt 1
 611 0152 57E1     		b	.L23
 612              	.L13:
 125:User/BSP/UART_data_txrx.c ****   {
 613              		.loc 1 125 11
 614 0154 7B68     		ldr	r3, [r7, #4]
 615 0156 584A     		ldr	r2, .L24+84
 616 0158 9342     		cmp	r3, r2
 617 015a 40F0BE80 		bne	.L17
 127:User/BSP/UART_data_txrx.c ****     __HAL_DMA_DISABLE_IT(huart->hdmarx, DMA_IT_HT);
 618              		.loc 1 127 5
 619 015e 4FF48072 		mov	r2, #256
 620 0162 5649     		ldr	r1, .L24+88
 621 0164 7868     		ldr	r0, [r7, #4]
 622 0166 FFF7FEFF 		bl	HAL_UARTEx_ReceiveToIdle_DMA
 128:User/BSP/UART_data_txrx.c ****   }
 623              		.loc 1 128 5
 624 016a 7B68     		ldr	r3, [r7, #4]
 625 016c D3F88030 		ldr	r3, [r3, #128]
 626 0170 1B68     		ldr	r3, [r3]
 627 0172 414A     		ldr	r2, .L24+20
 628 0174 9342     		cmp	r3, r2
 629 0176 68D0     		beq	.L18
 128:User/BSP/UART_data_txrx.c ****   }
 630              		.loc 1 128 5 is_stmt 0 discriminator 2
 631 0178 7B68     		ldr	r3, [r7, #4]
 632 017a D3F88030 		ldr	r3, [r3, #128]
 633 017e 1B68     		ldr	r3, [r3]
 634 0180 3E4A     		ldr	r2, .L24+24
 635 0182 9342     		cmp	r3, r2
 636 0184 61D0     		beq	.L18
 128:User/BSP/UART_data_txrx.c ****   }
 637              		.loc 1 128 5 discriminator 4
 638 0186 7B68     		ldr	r3, [r7, #4]
 639 0188 D3F88030 		ldr	r3, [r3, #128]
 640 018c 1B68     		ldr	r3, [r3]
 641 018e 3C4A     		ldr	r2, .L24+28
 642 0190 9342     		cmp	r3, r2
 643 0192 5AD0     		beq	.L18
 128:User/BSP/UART_data_txrx.c ****   }
 644              		.loc 1 128 5 discriminator 6
 645 0194 7B68     		ldr	r3, [r7, #4]
 646 0196 D3F88030 		ldr	r3, [r3, #128]
 647 019a 1B68     		ldr	r3, [r3]
 648 019c 394A     		ldr	r2, .L24+32
 649 019e 9342     		cmp	r3, r2
 650 01a0 53D0     		beq	.L18
 128:User/BSP/UART_data_txrx.c ****   }
 651              		.loc 1 128 5 discriminator 8
 652 01a2 7B68     		ldr	r3, [r7, #4]
 653 01a4 D3F88030 		ldr	r3, [r3, #128]
ARM GAS  C:\Users\Godwin\AppData\Local\Temp\ccGMPn8j.s 			page 15


 654 01a8 1B68     		ldr	r3, [r3]
 655 01aa 374A     		ldr	r2, .L24+36
 656 01ac 9342     		cmp	r3, r2
 657 01ae 4CD0     		beq	.L18
 128:User/BSP/UART_data_txrx.c ****   }
 658              		.loc 1 128 5 discriminator 10
 659 01b0 7B68     		ldr	r3, [r7, #4]
 660 01b2 D3F88030 		ldr	r3, [r3, #128]
 661 01b6 1B68     		ldr	r3, [r3]
 662 01b8 344A     		ldr	r2, .L24+40
 663 01ba 9342     		cmp	r3, r2
 664 01bc 45D0     		beq	.L18
 128:User/BSP/UART_data_txrx.c ****   }
 665              		.loc 1 128 5 discriminator 12
 666 01be 7B68     		ldr	r3, [r7, #4]
 667 01c0 D3F88030 		ldr	r3, [r3, #128]
 668 01c4 1B68     		ldr	r3, [r3]
 669 01c6 324A     		ldr	r2, .L24+44
 670 01c8 9342     		cmp	r3, r2
 671 01ca 3ED0     		beq	.L18
 128:User/BSP/UART_data_txrx.c ****   }
 672              		.loc 1 128 5 discriminator 14
 673 01cc 7B68     		ldr	r3, [r7, #4]
 674 01ce D3F88030 		ldr	r3, [r3, #128]
 675 01d2 1B68     		ldr	r3, [r3]
 676 01d4 2F4A     		ldr	r2, .L24+48
 677 01d6 9342     		cmp	r3, r2
 678 01d8 37D0     		beq	.L18
 128:User/BSP/UART_data_txrx.c ****   }
 679              		.loc 1 128 5 discriminator 16
 680 01da 7B68     		ldr	r3, [r7, #4]
 681 01dc D3F88030 		ldr	r3, [r3, #128]
 682 01e0 1B68     		ldr	r3, [r3]
 683 01e2 2D4A     		ldr	r2, .L24+52
 684 01e4 9342     		cmp	r3, r2
 685 01e6 30D0     		beq	.L18
 128:User/BSP/UART_data_txrx.c ****   }
 686              		.loc 1 128 5 discriminator 18
 687 01e8 7B68     		ldr	r3, [r7, #4]
 688 01ea D3F88030 		ldr	r3, [r3, #128]
 689 01ee 1B68     		ldr	r3, [r3]
 690 01f0 2A4A     		ldr	r2, .L24+56
 691 01f2 9342     		cmp	r3, r2
 692 01f4 29D0     		beq	.L18
 128:User/BSP/UART_data_txrx.c ****   }
 693              		.loc 1 128 5 discriminator 20
 694 01f6 7B68     		ldr	r3, [r7, #4]
 695 01f8 D3F88030 		ldr	r3, [r3, #128]
 696 01fc 1B68     		ldr	r3, [r3]
 697 01fe 284A     		ldr	r2, .L24+60
 698 0200 9342     		cmp	r3, r2
 699 0202 22D0     		beq	.L18
 128:User/BSP/UART_data_txrx.c ****   }
 700              		.loc 1 128 5 discriminator 22
 701 0204 7B68     		ldr	r3, [r7, #4]
 702 0206 D3F88030 		ldr	r3, [r3, #128]
 703 020a 1B68     		ldr	r3, [r3]
ARM GAS  C:\Users\Godwin\AppData\Local\Temp\ccGMPn8j.s 			page 16


 704 020c 254A     		ldr	r2, .L24+64
 705 020e 9342     		cmp	r3, r2
 706 0210 1BD0     		beq	.L18
 128:User/BSP/UART_data_txrx.c ****   }
 707              		.loc 1 128 5 discriminator 24
 708 0212 7B68     		ldr	r3, [r7, #4]
 709 0214 D3F88030 		ldr	r3, [r3, #128]
 710 0218 1B68     		ldr	r3, [r3]
 711 021a 234A     		ldr	r2, .L24+68
 712 021c 9342     		cmp	r3, r2
 713 021e 14D0     		beq	.L18
 128:User/BSP/UART_data_txrx.c ****   }
 714              		.loc 1 128 5 discriminator 26
 715 0220 7B68     		ldr	r3, [r7, #4]
 716 0222 D3F88030 		ldr	r3, [r3, #128]
 717 0226 1B68     		ldr	r3, [r3]
 718 0228 204A     		ldr	r2, .L24+72
 719 022a 9342     		cmp	r3, r2
 720 022c 0DD0     		beq	.L18
 128:User/BSP/UART_data_txrx.c ****   }
 721              		.loc 1 128 5 discriminator 28
 722 022e 7B68     		ldr	r3, [r7, #4]
 723 0230 D3F88030 		ldr	r3, [r3, #128]
 724 0234 1B68     		ldr	r3, [r3]
 725 0236 1E4A     		ldr	r2, .L24+76
 726 0238 9342     		cmp	r3, r2
 727 023a 06D0     		beq	.L18
 128:User/BSP/UART_data_txrx.c ****   }
 728              		.loc 1 128 5 discriminator 30
 729 023c 7B68     		ldr	r3, [r7, #4]
 730 023e D3F88030 		ldr	r3, [r3, #128]
 731 0242 1B68     		ldr	r3, [r3]
 732 0244 1B4A     		ldr	r2, .L24+80
 733 0246 9342     		cmp	r3, r2
 734 0248 3AD1     		bne	.L19
 735              	.L18:
 128:User/BSP/UART_data_txrx.c ****   }
 736              		.loc 1 128 5 discriminator 31
 737 024a 7B68     		ldr	r3, [r7, #4]
 738 024c D3F88030 		ldr	r3, [r3, #128]
 739 0250 1B68     		ldr	r3, [r3]
 740 0252 1A68     		ldr	r2, [r3]
 741 0254 7B68     		ldr	r3, [r7, #4]
 742 0256 D3F88030 		ldr	r3, [r3, #128]
 743 025a 1B68     		ldr	r3, [r3]
 744 025c 22F00802 		bic	r2, r2, #8
 745 0260 1A60     		str	r2, [r3]
 128:User/BSP/UART_data_txrx.c ****   }
 746              		.loc 1 128 5
 747 0262 CFE0     		b	.L12
 748              	.L25:
 749              		.align	2
 750              	.L24:
 751 0264 00000000 		.word	huart5
 752 0268 00000000 		.word	huart7
 753 026c 00000000 		.word	huart10
 754 0270 00000000 		.word	huart1
ARM GAS  C:\Users\Godwin\AppData\Local\Temp\ccGMPn8j.s 			page 17


 755 0274 0C000000 		.word	UART1_data+12
 756 0278 10000240 		.word	1073872912
 757 027c 28000240 		.word	1073872936
 758 0280 40000240 		.word	1073872960
 759 0284 58000240 		.word	1073872984
 760 0288 70000240 		.word	1073873008
 761 028c 88000240 		.word	1073873032
 762 0290 A0000240 		.word	1073873056
 763 0294 B8000240 		.word	1073873080
 764 0298 10040240 		.word	1073873936
 765 029c 28040240 		.word	1073873960
 766 02a0 40040240 		.word	1073873984
 767 02a4 58040240 		.word	1073874008
 768 02a8 70040240 		.word	1073874032
 769 02ac 88040240 		.word	1073874056
 770 02b0 A0040240 		.word	1073874080
 771 02b4 B8040240 		.word	1073874104
 772 02b8 00000000 		.word	huart2
 773 02bc 0C000000 		.word	UART2_data+12
 774              	.L19:
 128:User/BSP/UART_data_txrx.c ****   }
 775              		.loc 1 128 5 discriminator 32
 776 02c0 7B68     		ldr	r3, [r7, #4]
 777 02c2 D3F88030 		ldr	r3, [r3, #128]
 778 02c6 1B68     		ldr	r3, [r3]
 779 02c8 1A68     		ldr	r2, [r3]
 780 02ca 7B68     		ldr	r3, [r7, #4]
 781 02cc D3F88030 		ldr	r3, [r3, #128]
 782 02d0 1B68     		ldr	r3, [r3]
 783 02d2 22F00402 		bic	r2, r2, #4
 784 02d6 1A60     		str	r2, [r3]
 785              		.loc 1 135 1 is_stmt 1
 786 02d8 94E0     		b	.L23
 787              	.L17:
 130:User/BSP/UART_data_txrx.c ****   {
 788              		.loc 1 130 11
 789 02da 7B68     		ldr	r3, [r7, #4]
 790 02dc 4B4A     		ldr	r2, .L26
 791 02de 9342     		cmp	r3, r2
 792 02e0 40F09080 		bne	.L23
 132:User/BSP/UART_data_txrx.c ****     __HAL_DMA_DISABLE_IT(huart->hdmarx, DMA_IT_HT);
 793              		.loc 1 132 5
 794 02e4 4FF48072 		mov	r2, #256
 795 02e8 4949     		ldr	r1, .L26+4
 796 02ea 7868     		ldr	r0, [r7, #4]
 797 02ec FFF7FEFF 		bl	HAL_UARTEx_ReceiveToIdle_DMA
 133:User/BSP/UART_data_txrx.c ****   }
 798              		.loc 1 133 5
 799 02f0 7B68     		ldr	r3, [r7, #4]
 800 02f2 D3F88030 		ldr	r3, [r3, #128]
 801 02f6 1B68     		ldr	r3, [r3]
 802 02f8 464A     		ldr	r2, .L26+8
 803 02fa 9342     		cmp	r3, r2
 804 02fc 68D0     		beq	.L21
 133:User/BSP/UART_data_txrx.c ****   }
 805              		.loc 1 133 5 is_stmt 0 discriminator 2
 806 02fe 7B68     		ldr	r3, [r7, #4]
ARM GAS  C:\Users\Godwin\AppData\Local\Temp\ccGMPn8j.s 			page 18


 807 0300 D3F88030 		ldr	r3, [r3, #128]
 808 0304 1B68     		ldr	r3, [r3]
 809 0306 444A     		ldr	r2, .L26+12
 810 0308 9342     		cmp	r3, r2
 811 030a 61D0     		beq	.L21
 133:User/BSP/UART_data_txrx.c ****   }
 812              		.loc 1 133 5 discriminator 4
 813 030c 7B68     		ldr	r3, [r7, #4]
 814 030e D3F88030 		ldr	r3, [r3, #128]
 815 0312 1B68     		ldr	r3, [r3]
 816 0314 414A     		ldr	r2, .L26+16
 817 0316 9342     		cmp	r3, r2
 818 0318 5AD0     		beq	.L21
 133:User/BSP/UART_data_txrx.c ****   }
 819              		.loc 1 133 5 discriminator 6
 820 031a 7B68     		ldr	r3, [r7, #4]
 821 031c D3F88030 		ldr	r3, [r3, #128]
 822 0320 1B68     		ldr	r3, [r3]
 823 0322 3F4A     		ldr	r2, .L26+20
 824 0324 9342     		cmp	r3, r2
 825 0326 53D0     		beq	.L21
 133:User/BSP/UART_data_txrx.c ****   }
 826              		.loc 1 133 5 discriminator 8
 827 0328 7B68     		ldr	r3, [r7, #4]
 828 032a D3F88030 		ldr	r3, [r3, #128]
 829 032e 1B68     		ldr	r3, [r3]
 830 0330 3C4A     		ldr	r2, .L26+24
 831 0332 9342     		cmp	r3, r2
 832 0334 4CD0     		beq	.L21
 133:User/BSP/UART_data_txrx.c ****   }
 833              		.loc 1 133 5 discriminator 10
 834 0336 7B68     		ldr	r3, [r7, #4]
 835 0338 D3F88030 		ldr	r3, [r3, #128]
 836 033c 1B68     		ldr	r3, [r3]
 837 033e 3A4A     		ldr	r2, .L26+28
 838 0340 9342     		cmp	r3, r2
 839 0342 45D0     		beq	.L21
 133:User/BSP/UART_data_txrx.c ****   }
 840              		.loc 1 133 5 discriminator 12
 841 0344 7B68     		ldr	r3, [r7, #4]
 842 0346 D3F88030 		ldr	r3, [r3, #128]
 843 034a 1B68     		ldr	r3, [r3]
 844 034c 374A     		ldr	r2, .L26+32
 845 034e 9342     		cmp	r3, r2
 846 0350 3ED0     		beq	.L21
 133:User/BSP/UART_data_txrx.c ****   }
 847              		.loc 1 133 5 discriminator 14
 848 0352 7B68     		ldr	r3, [r7, #4]
 849 0354 D3F88030 		ldr	r3, [r3, #128]
 850 0358 1B68     		ldr	r3, [r3]
 851 035a 354A     		ldr	r2, .L26+36
 852 035c 9342     		cmp	r3, r2
 853 035e 37D0     		beq	.L21
 133:User/BSP/UART_data_txrx.c ****   }
 854              		.loc 1 133 5 discriminator 16
 855 0360 7B68     		ldr	r3, [r7, #4]
 856 0362 D3F88030 		ldr	r3, [r3, #128]
ARM GAS  C:\Users\Godwin\AppData\Local\Temp\ccGMPn8j.s 			page 19


 857 0366 1B68     		ldr	r3, [r3]
 858 0368 324A     		ldr	r2, .L26+40
 859 036a 9342     		cmp	r3, r2
 860 036c 30D0     		beq	.L21
 133:User/BSP/UART_data_txrx.c ****   }
 861              		.loc 1 133 5 discriminator 18
 862 036e 7B68     		ldr	r3, [r7, #4]
 863 0370 D3F88030 		ldr	r3, [r3, #128]
 864 0374 1B68     		ldr	r3, [r3]
 865 0376 304A     		ldr	r2, .L26+44
 866 0378 9342     		cmp	r3, r2
 867 037a 29D0     		beq	.L21
 133:User/BSP/UART_data_txrx.c ****   }
 868              		.loc 1 133 5 discriminator 20
 869 037c 7B68     		ldr	r3, [r7, #4]
 870 037e D3F88030 		ldr	r3, [r3, #128]
 871 0382 1B68     		ldr	r3, [r3]
 872 0384 2D4A     		ldr	r2, .L26+48
 873 0386 9342     		cmp	r3, r2
 874 0388 22D0     		beq	.L21
 133:User/BSP/UART_data_txrx.c ****   }
 875              		.loc 1 133 5 discriminator 22
 876 038a 7B68     		ldr	r3, [r7, #4]
 877 038c D3F88030 		ldr	r3, [r3, #128]
 878 0390 1B68     		ldr	r3, [r3]
 879 0392 2B4A     		ldr	r2, .L26+52
 880 0394 9342     		cmp	r3, r2
 881 0396 1BD0     		beq	.L21
 133:User/BSP/UART_data_txrx.c ****   }
 882              		.loc 1 133 5 discriminator 24
 883 0398 7B68     		ldr	r3, [r7, #4]
 884 039a D3F88030 		ldr	r3, [r3, #128]
 885 039e 1B68     		ldr	r3, [r3]
 886 03a0 284A     		ldr	r2, .L26+56
 887 03a2 9342     		cmp	r3, r2
 888 03a4 14D0     		beq	.L21
 133:User/BSP/UART_data_txrx.c ****   }
 889              		.loc 1 133 5 discriminator 26
 890 03a6 7B68     		ldr	r3, [r7, #4]
 891 03a8 D3F88030 		ldr	r3, [r3, #128]
 892 03ac 1B68     		ldr	r3, [r3]
 893 03ae 264A     		ldr	r2, .L26+60
 894 03b0 9342     		cmp	r3, r2
 895 03b2 0DD0     		beq	.L21
 133:User/BSP/UART_data_txrx.c ****   }
 896              		.loc 1 133 5 discriminator 28
 897 03b4 7B68     		ldr	r3, [r7, #4]
 898 03b6 D3F88030 		ldr	r3, [r3, #128]
 899 03ba 1B68     		ldr	r3, [r3]
 900 03bc 234A     		ldr	r2, .L26+64
 901 03be 9342     		cmp	r3, r2
 902 03c0 06D0     		beq	.L21
 133:User/BSP/UART_data_txrx.c ****   }
 903              		.loc 1 133 5 discriminator 30
 904 03c2 7B68     		ldr	r3, [r7, #4]
 905 03c4 D3F88030 		ldr	r3, [r3, #128]
 906 03c8 1B68     		ldr	r3, [r3]
ARM GAS  C:\Users\Godwin\AppData\Local\Temp\ccGMPn8j.s 			page 20


 907 03ca 214A     		ldr	r2, .L26+68
 908 03cc 9342     		cmp	r3, r2
 909 03ce 0CD1     		bne	.L22
 910              	.L21:
 133:User/BSP/UART_data_txrx.c ****   }
 911              		.loc 1 133 5 discriminator 31
 912 03d0 7B68     		ldr	r3, [r7, #4]
 913 03d2 D3F88030 		ldr	r3, [r3, #128]
 914 03d6 1B68     		ldr	r3, [r3]
 915 03d8 1A68     		ldr	r2, [r3]
 916 03da 7B68     		ldr	r3, [r7, #4]
 917 03dc D3F88030 		ldr	r3, [r3, #128]
 918 03e0 1B68     		ldr	r3, [r3]
 919 03e2 22F00802 		bic	r2, r2, #8
 920 03e6 1A60     		str	r2, [r3]
 133:User/BSP/UART_data_txrx.c ****   }
 921              		.loc 1 133 5
 922 03e8 0CE0     		b	.L12
 923              	.L22:
 133:User/BSP/UART_data_txrx.c ****   }
 924              		.loc 1 133 5 discriminator 32
 925 03ea 7B68     		ldr	r3, [r7, #4]
 926 03ec D3F88030 		ldr	r3, [r3, #128]
 927 03f0 1B68     		ldr	r3, [r3]
 928 03f2 1A68     		ldr	r2, [r3]
 929 03f4 7B68     		ldr	r3, [r7, #4]
 930 03f6 D3F88030 		ldr	r3, [r3, #128]
 931 03fa 1B68     		ldr	r3, [r3]
 932 03fc 22F00402 		bic	r2, r2, #4
 933 0400 1A60     		str	r2, [r3]
 934              		.loc 1 135 1 is_stmt 1
 935 0402 FFE7     		b	.L23
 936              	.L12:
 937              	.L23:
 938 0404 00BF     		nop
 939 0406 0837     		adds	r7, r7, #8
 940              	.LCFI16:
 941              		.cfi_def_cfa_offset 8
 942 0408 BD46     		mov	sp, r7
 943              	.LCFI17:
 944              		.cfi_def_cfa_register 13
 945              		@ sp needed
 946 040a 80BD     		pop	{r7, pc}
 947              	.L27:
 948              		.align	2
 949              	.L26:
 950 040c 00000000 		.word	huart3
 951 0410 0C000000 		.word	UART3_data+12
 952 0414 10000240 		.word	1073872912
 953 0418 28000240 		.word	1073872936
 954 041c 40000240 		.word	1073872960
 955 0420 58000240 		.word	1073872984
 956 0424 70000240 		.word	1073873008
 957 0428 88000240 		.word	1073873032
 958 042c A0000240 		.word	1073873056
 959 0430 B8000240 		.word	1073873080
 960 0434 10040240 		.word	1073873936
ARM GAS  C:\Users\Godwin\AppData\Local\Temp\ccGMPn8j.s 			page 21


 961 0438 28040240 		.word	1073873960
 962 043c 40040240 		.word	1073873984
 963 0440 58040240 		.word	1073874008
 964 0444 70040240 		.word	1073874032
 965 0448 88040240 		.word	1073874056
 966 044c A0040240 		.word	1073874080
 967 0450 B8040240 		.word	1073874104
 968              		.cfi_endproc
 969              	.LFE150:
 971              		.section	.text.HAL_UART_RxCpltCallback,"ax",%progbits
 972              		.align	1
 973              		.global	HAL_UART_RxCpltCallback
 974              		.syntax unified
 975              		.thumb
 976              		.thumb_func
 978              	HAL_UART_RxCpltCallback:
 979              	.LFB151:
 136:User/BSP/UART_data_txrx.c **** 
 137:User/BSP/UART_data_txrx.c **** /**
 138:User/BSP/UART_data_txrx.c ****  * @brief 串口接受完成中断回调函数，用于接受定长数据
 139:User/BSP/UART_data_txrx.c ****  *
 140:User/BSP/UART_data_txrx.c ****  * @param huart 接受串口号
 141:User/BSP/UART_data_txrx.c ****  */
 142:User/BSP/UART_data_txrx.c **** void HAL_UART_RxCpltCallback(UART_HandleTypeDef *huart)
 143:User/BSP/UART_data_txrx.c **** {
 980              		.loc 1 143 1
 981              		.cfi_startproc
 982              		@ args = 0, pretend = 0, frame = 8
 983              		@ frame_needed = 1, uses_anonymous_args = 0
 984              		@ link register save eliminated.
 985 0000 80B4     		push	{r7}
 986              	.LCFI18:
 987              		.cfi_def_cfa_offset 4
 988              		.cfi_offset 7, -4
 989 0002 83B0     		sub	sp, sp, #12
 990              	.LCFI19:
 991              		.cfi_def_cfa_offset 16
 992 0004 00AF     		add	r7, sp, #0
 993              	.LCFI20:
 994              		.cfi_def_cfa_register 7
 995 0006 7860     		str	r0, [r7, #4]
 144:User/BSP/UART_data_txrx.c **** }
 996              		.loc 1 144 1
 997 0008 00BF     		nop
 998 000a 0C37     		adds	r7, r7, #12
 999              	.LCFI21:
 1000              		.cfi_def_cfa_offset 4
 1001 000c BD46     		mov	sp, r7
 1002              	.LCFI22:
 1003              		.cfi_def_cfa_register 13
 1004              		@ sp needed
 1005 000e 5DF8047B 		ldr	r7, [sp], #4
 1006              	.LCFI23:
 1007              		.cfi_restore 7
 1008              		.cfi_def_cfa_offset 0
 1009 0012 7047     		bx	lr
 1010              		.cfi_endproc
ARM GAS  C:\Users\Godwin\AppData\Local\Temp\ccGMPn8j.s 			page 22


 1011              	.LFE151:
 1013              		.section	.text.HAL_UART_ErrorCallback,"ax",%progbits
 1014              		.align	1
 1015              		.global	HAL_UART_ErrorCallback
 1016              		.syntax unified
 1017              		.thumb
 1018              		.thumb_func
 1020              	HAL_UART_ErrorCallback:
 1021              	.LFB152:
 145:User/BSP/UART_data_txrx.c **** 
 146:User/BSP/UART_data_txrx.c **** // 发生错误重启串口
 147:User/BSP/UART_data_txrx.c **** void HAL_UART_ErrorCallback(UART_HandleTypeDef *huart)
 148:User/BSP/UART_data_txrx.c **** {
 1022              		.loc 1 148 1
 1023              		.cfi_startproc
 1024              		@ args = 0, pretend = 0, frame = 8
 1025              		@ frame_needed = 1, uses_anonymous_args = 0
 1026 0000 80B5     		push	{r7, lr}
 1027              	.LCFI24:
 1028              		.cfi_def_cfa_offset 8
 1029              		.cfi_offset 7, -8
 1030              		.cfi_offset 14, -4
 1031 0002 82B0     		sub	sp, sp, #8
 1032              	.LCFI25:
 1033              		.cfi_def_cfa_offset 16
 1034 0004 00AF     		add	r7, sp, #0
 1035              	.LCFI26:
 1036              		.cfi_def_cfa_register 7
 1037 0006 7860     		str	r0, [r7, #4]
 149:User/BSP/UART_data_txrx.c ****   if (huart == &huart7)
 1038              		.loc 1 149 6
 1039 0008 7B68     		ldr	r3, [r7, #4]
 1040 000a 944A     		ldr	r2, .L46
 1041 000c 9342     		cmp	r3, r2
 1042 000e 40F09080 		bne	.L30
 150:User/BSP/UART_data_txrx.c ****   {
 151:User/BSP/UART_data_txrx.c ****     HAL_UARTEx_ReceiveToIdle_DMA(&huart7, UART7_data.rev_data, UART_BUFFER_SIZE);
 1043              		.loc 1 151 5
 1044 0012 4FF48072 		mov	r2, #256
 1045 0016 9249     		ldr	r1, .L46+4
 1046 0018 9048     		ldr	r0, .L46
 1047 001a FFF7FEFF 		bl	HAL_UARTEx_ReceiveToIdle_DMA
 152:User/BSP/UART_data_txrx.c ****     __HAL_DMA_DISABLE_IT(huart->hdmarx, DMA_IT_HT);
 1048              		.loc 1 152 5
 1049 001e 7B68     		ldr	r3, [r7, #4]
 1050 0020 D3F88030 		ldr	r3, [r3, #128]
 1051 0024 1B68     		ldr	r3, [r3]
 1052 0026 8F4A     		ldr	r2, .L46+8
 1053 0028 9342     		cmp	r3, r2
 1054 002a 68D0     		beq	.L31
 1055              		.loc 1 152 5 is_stmt 0 discriminator 2
 1056 002c 7B68     		ldr	r3, [r7, #4]
 1057 002e D3F88030 		ldr	r3, [r3, #128]
 1058 0032 1B68     		ldr	r3, [r3]
 1059 0034 8C4A     		ldr	r2, .L46+12
 1060 0036 9342     		cmp	r3, r2
 1061 0038 61D0     		beq	.L31
ARM GAS  C:\Users\Godwin\AppData\Local\Temp\ccGMPn8j.s 			page 23


 1062              		.loc 1 152 5 discriminator 4
 1063 003a 7B68     		ldr	r3, [r7, #4]
 1064 003c D3F88030 		ldr	r3, [r3, #128]
 1065 0040 1B68     		ldr	r3, [r3]
 1066 0042 8A4A     		ldr	r2, .L46+16
 1067 0044 9342     		cmp	r3, r2
 1068 0046 5AD0     		beq	.L31
 1069              		.loc 1 152 5 discriminator 6
 1070 0048 7B68     		ldr	r3, [r7, #4]
 1071 004a D3F88030 		ldr	r3, [r3, #128]
 1072 004e 1B68     		ldr	r3, [r3]
 1073 0050 874A     		ldr	r2, .L46+20
 1074 0052 9342     		cmp	r3, r2
 1075 0054 53D0     		beq	.L31
 1076              		.loc 1 152 5 discriminator 8
 1077 0056 7B68     		ldr	r3, [r7, #4]
 1078 0058 D3F88030 		ldr	r3, [r3, #128]
 1079 005c 1B68     		ldr	r3, [r3]
 1080 005e 854A     		ldr	r2, .L46+24
 1081 0060 9342     		cmp	r3, r2
 1082 0062 4CD0     		beq	.L31
 1083              		.loc 1 152 5 discriminator 10
 1084 0064 7B68     		ldr	r3, [r7, #4]
 1085 0066 D3F88030 		ldr	r3, [r3, #128]
 1086 006a 1B68     		ldr	r3, [r3]
 1087 006c 824A     		ldr	r2, .L46+28
 1088 006e 9342     		cmp	r3, r2
 1089 0070 45D0     		beq	.L31
 1090              		.loc 1 152 5 discriminator 12
 1091 0072 7B68     		ldr	r3, [r7, #4]
 1092 0074 D3F88030 		ldr	r3, [r3, #128]
 1093 0078 1B68     		ldr	r3, [r3]
 1094 007a 804A     		ldr	r2, .L46+32
 1095 007c 9342     		cmp	r3, r2
 1096 007e 3ED0     		beq	.L31
 1097              		.loc 1 152 5 discriminator 14
 1098 0080 7B68     		ldr	r3, [r7, #4]
 1099 0082 D3F88030 		ldr	r3, [r3, #128]
 1100 0086 1B68     		ldr	r3, [r3]
 1101 0088 7D4A     		ldr	r2, .L46+36
 1102 008a 9342     		cmp	r3, r2
 1103 008c 37D0     		beq	.L31
 1104              		.loc 1 152 5 discriminator 16
 1105 008e 7B68     		ldr	r3, [r7, #4]
 1106 0090 D3F88030 		ldr	r3, [r3, #128]
 1107 0094 1B68     		ldr	r3, [r3]
 1108 0096 7B4A     		ldr	r2, .L46+40
 1109 0098 9342     		cmp	r3, r2
 1110 009a 30D0     		beq	.L31
 1111              		.loc 1 152 5 discriminator 18
 1112 009c 7B68     		ldr	r3, [r7, #4]
 1113 009e D3F88030 		ldr	r3, [r3, #128]
 1114 00a2 1B68     		ldr	r3, [r3]
 1115 00a4 784A     		ldr	r2, .L46+44
 1116 00a6 9342     		cmp	r3, r2
 1117 00a8 29D0     		beq	.L31
 1118              		.loc 1 152 5 discriminator 20
ARM GAS  C:\Users\Godwin\AppData\Local\Temp\ccGMPn8j.s 			page 24


 1119 00aa 7B68     		ldr	r3, [r7, #4]
 1120 00ac D3F88030 		ldr	r3, [r3, #128]
 1121 00b0 1B68     		ldr	r3, [r3]
 1122 00b2 764A     		ldr	r2, .L46+48
 1123 00b4 9342     		cmp	r3, r2
 1124 00b6 22D0     		beq	.L31
 1125              		.loc 1 152 5 discriminator 22
 1126 00b8 7B68     		ldr	r3, [r7, #4]
 1127 00ba D3F88030 		ldr	r3, [r3, #128]
 1128 00be 1B68     		ldr	r3, [r3]
 1129 00c0 734A     		ldr	r2, .L46+52
 1130 00c2 9342     		cmp	r3, r2
 1131 00c4 1BD0     		beq	.L31
 1132              		.loc 1 152 5 discriminator 24
 1133 00c6 7B68     		ldr	r3, [r7, #4]
 1134 00c8 D3F88030 		ldr	r3, [r3, #128]
 1135 00cc 1B68     		ldr	r3, [r3]
 1136 00ce 714A     		ldr	r2, .L46+56
 1137 00d0 9342     		cmp	r3, r2
 1138 00d2 14D0     		beq	.L31
 1139              		.loc 1 152 5 discriminator 26
 1140 00d4 7B68     		ldr	r3, [r7, #4]
 1141 00d6 D3F88030 		ldr	r3, [r3, #128]
 1142 00da 1B68     		ldr	r3, [r3]
 1143 00dc 6E4A     		ldr	r2, .L46+60
 1144 00de 9342     		cmp	r3, r2
 1145 00e0 0DD0     		beq	.L31
 1146              		.loc 1 152 5 discriminator 28
 1147 00e2 7B68     		ldr	r3, [r7, #4]
 1148 00e4 D3F88030 		ldr	r3, [r3, #128]
 1149 00e8 1B68     		ldr	r3, [r3]
 1150 00ea 6C4A     		ldr	r2, .L46+64
 1151 00ec 9342     		cmp	r3, r2
 1152 00ee 06D0     		beq	.L31
 1153              		.loc 1 152 5 discriminator 30
 1154 00f0 7B68     		ldr	r3, [r7, #4]
 1155 00f2 D3F88030 		ldr	r3, [r3, #128]
 1156 00f6 1B68     		ldr	r3, [r3]
 1157 00f8 694A     		ldr	r2, .L46+68
 1158 00fa 9342     		cmp	r3, r2
 1159 00fc 0CD1     		bne	.L32
 1160              	.L31:
 1161              		.loc 1 152 5 discriminator 31
 1162 00fe 7B68     		ldr	r3, [r7, #4]
 1163 0100 D3F88030 		ldr	r3, [r3, #128]
 1164 0104 1B68     		ldr	r3, [r3]
 1165 0106 1A68     		ldr	r2, [r3]
 1166 0108 7B68     		ldr	r3, [r7, #4]
 1167 010a D3F88030 		ldr	r3, [r3, #128]
 1168 010e 1B68     		ldr	r3, [r3]
 1169 0110 22F00802 		bic	r2, r2, #8
 1170 0114 1A60     		str	r2, [r3]
 1171              		.loc 1 152 5
 1172 0116 F3E1     		b	.L34
 1173              	.L32:
 1174              		.loc 1 152 5 discriminator 32
 1175 0118 7B68     		ldr	r3, [r7, #4]
ARM GAS  C:\Users\Godwin\AppData\Local\Temp\ccGMPn8j.s 			page 25


 1176 011a D3F88030 		ldr	r3, [r3, #128]
 1177 011e 1B68     		ldr	r3, [r3]
 1178 0120 1A68     		ldr	r2, [r3]
 1179 0122 7B68     		ldr	r3, [r7, #4]
 1180 0124 D3F88030 		ldr	r3, [r3, #128]
 1181 0128 1B68     		ldr	r3, [r3]
 1182 012a 22F00402 		bic	r2, r2, #4
 1183 012e 1A60     		str	r2, [r3]
 153:User/BSP/UART_data_txrx.c ****   }
 154:User/BSP/UART_data_txrx.c ****   else if (huart == &huart10)
 155:User/BSP/UART_data_txrx.c ****   {
 156:User/BSP/UART_data_txrx.c ****     HAL_UARTEx_ReceiveToIdle_DMA(&huart10, UART10_data.rev_data, UART_BUFFER_SIZE);
 157:User/BSP/UART_data_txrx.c ****     __HAL_DMA_DISABLE_IT(huart->hdmarx, DMA_IT_HT);
 158:User/BSP/UART_data_txrx.c ****   }
 159:User/BSP/UART_data_txrx.c ****   else if (huart == &huart5)
 160:User/BSP/UART_data_txrx.c ****   {
 161:User/BSP/UART_data_txrx.c ****     HAL_UARTEx_ReceiveToIdle_DMA(&huart5, UART5_data.rev_data, UART_BUFFER_SIZE);
 162:User/BSP/UART_data_txrx.c ****     __HAL_DMA_DISABLE_IT(huart->hdmarx, DMA_IT_HT);
 163:User/BSP/UART_data_txrx.c ****   }
 164:User/BSP/UART_data_txrx.c ****   else if (huart == &huart1)
 165:User/BSP/UART_data_txrx.c ****   {
 166:User/BSP/UART_data_txrx.c ****     HAL_UARTEx_ReceiveToIdle_DMA(&huart1, UART1_data.rev_data, UART_BUFFER_SIZE);
 167:User/BSP/UART_data_txrx.c ****     __HAL_DMA_DISABLE_IT(huart->hdmarx, DMA_IT_HT);
 168:User/BSP/UART_data_txrx.c ****   }
 169:User/BSP/UART_data_txrx.c **** }
 1184              		.loc 1 169 1 is_stmt 1
 1185 0130 E6E1     		b	.L45
 1186              	.L30:
 154:User/BSP/UART_data_txrx.c ****   {
 1187              		.loc 1 154 11
 1188 0132 7B68     		ldr	r3, [r7, #4]
 1189 0134 5B4A     		ldr	r2, .L46+72
 1190 0136 9342     		cmp	r3, r2
 1191 0138 40F0B880 		bne	.L35
 156:User/BSP/UART_data_txrx.c ****     __HAL_DMA_DISABLE_IT(huart->hdmarx, DMA_IT_HT);
 1192              		.loc 1 156 5
 1193 013c 4FF48072 		mov	r2, #256
 1194 0140 5949     		ldr	r1, .L46+76
 1195 0142 5848     		ldr	r0, .L46+72
 1196 0144 FFF7FEFF 		bl	HAL_UARTEx_ReceiveToIdle_DMA
 157:User/BSP/UART_data_txrx.c ****   }
 1197              		.loc 1 157 5
 1198 0148 7B68     		ldr	r3, [r7, #4]
 1199 014a D3F88030 		ldr	r3, [r3, #128]
 1200 014e 1B68     		ldr	r3, [r3]
 1201 0150 444A     		ldr	r2, .L46+8
 1202 0152 9342     		cmp	r3, r2
 1203 0154 68D0     		beq	.L36
 157:User/BSP/UART_data_txrx.c ****   }
 1204              		.loc 1 157 5 is_stmt 0 discriminator 2
 1205 0156 7B68     		ldr	r3, [r7, #4]
 1206 0158 D3F88030 		ldr	r3, [r3, #128]
 1207 015c 1B68     		ldr	r3, [r3]
 1208 015e 424A     		ldr	r2, .L46+12
 1209 0160 9342     		cmp	r3, r2
 1210 0162 61D0     		beq	.L36
 157:User/BSP/UART_data_txrx.c ****   }
ARM GAS  C:\Users\Godwin\AppData\Local\Temp\ccGMPn8j.s 			page 26


 1211              		.loc 1 157 5 discriminator 4
 1212 0164 7B68     		ldr	r3, [r7, #4]
 1213 0166 D3F88030 		ldr	r3, [r3, #128]
 1214 016a 1B68     		ldr	r3, [r3]
 1215 016c 3F4A     		ldr	r2, .L46+16
 1216 016e 9342     		cmp	r3, r2
 1217 0170 5AD0     		beq	.L36
 157:User/BSP/UART_data_txrx.c ****   }
 1218              		.loc 1 157 5 discriminator 6
 1219 0172 7B68     		ldr	r3, [r7, #4]
 1220 0174 D3F88030 		ldr	r3, [r3, #128]
 1221 0178 1B68     		ldr	r3, [r3]
 1222 017a 3D4A     		ldr	r2, .L46+20
 1223 017c 9342     		cmp	r3, r2
 1224 017e 53D0     		beq	.L36
 157:User/BSP/UART_data_txrx.c ****   }
 1225              		.loc 1 157 5 discriminator 8
 1226 0180 7B68     		ldr	r3, [r7, #4]
 1227 0182 D3F88030 		ldr	r3, [r3, #128]
 1228 0186 1B68     		ldr	r3, [r3]
 1229 0188 3A4A     		ldr	r2, .L46+24
 1230 018a 9342     		cmp	r3, r2
 1231 018c 4CD0     		beq	.L36
 157:User/BSP/UART_data_txrx.c ****   }
 1232              		.loc 1 157 5 discriminator 10
 1233 018e 7B68     		ldr	r3, [r7, #4]
 1234 0190 D3F88030 		ldr	r3, [r3, #128]
 1235 0194 1B68     		ldr	r3, [r3]
 1236 0196 384A     		ldr	r2, .L46+28
 1237 0198 9342     		cmp	r3, r2
 1238 019a 45D0     		beq	.L36
 157:User/BSP/UART_data_txrx.c ****   }
 1239              		.loc 1 157 5 discriminator 12
 1240 019c 7B68     		ldr	r3, [r7, #4]
 1241 019e D3F88030 		ldr	r3, [r3, #128]
 1242 01a2 1B68     		ldr	r3, [r3]
 1243 01a4 354A     		ldr	r2, .L46+32
 1244 01a6 9342     		cmp	r3, r2
 1245 01a8 3ED0     		beq	.L36
 157:User/BSP/UART_data_txrx.c ****   }
 1246              		.loc 1 157 5 discriminator 14
 1247 01aa 7B68     		ldr	r3, [r7, #4]
 1248 01ac D3F88030 		ldr	r3, [r3, #128]
 1249 01b0 1B68     		ldr	r3, [r3]
 1250 01b2 334A     		ldr	r2, .L46+36
 1251 01b4 9342     		cmp	r3, r2
 1252 01b6 37D0     		beq	.L36
 157:User/BSP/UART_data_txrx.c ****   }
 1253              		.loc 1 157 5 discriminator 16
 1254 01b8 7B68     		ldr	r3, [r7, #4]
 1255 01ba D3F88030 		ldr	r3, [r3, #128]
 1256 01be 1B68     		ldr	r3, [r3]
 1257 01c0 304A     		ldr	r2, .L46+40
 1258 01c2 9342     		cmp	r3, r2
 1259 01c4 30D0     		beq	.L36
 157:User/BSP/UART_data_txrx.c ****   }
 1260              		.loc 1 157 5 discriminator 18
ARM GAS  C:\Users\Godwin\AppData\Local\Temp\ccGMPn8j.s 			page 27


 1261 01c6 7B68     		ldr	r3, [r7, #4]
 1262 01c8 D3F88030 		ldr	r3, [r3, #128]
 1263 01cc 1B68     		ldr	r3, [r3]
 1264 01ce 2E4A     		ldr	r2, .L46+44
 1265 01d0 9342     		cmp	r3, r2
 1266 01d2 29D0     		beq	.L36
 157:User/BSP/UART_data_txrx.c ****   }
 1267              		.loc 1 157 5 discriminator 20
 1268 01d4 7B68     		ldr	r3, [r7, #4]
 1269 01d6 D3F88030 		ldr	r3, [r3, #128]
 1270 01da 1B68     		ldr	r3, [r3]
 1271 01dc 2B4A     		ldr	r2, .L46+48
 1272 01de 9342     		cmp	r3, r2
 1273 01e0 22D0     		beq	.L36
 157:User/BSP/UART_data_txrx.c ****   }
 1274              		.loc 1 157 5 discriminator 22
 1275 01e2 7B68     		ldr	r3, [r7, #4]
 1276 01e4 D3F88030 		ldr	r3, [r3, #128]
 1277 01e8 1B68     		ldr	r3, [r3]
 1278 01ea 294A     		ldr	r2, .L46+52
 1279 01ec 9342     		cmp	r3, r2
 1280 01ee 1BD0     		beq	.L36
 157:User/BSP/UART_data_txrx.c ****   }
 1281              		.loc 1 157 5 discriminator 24
 1282 01f0 7B68     		ldr	r3, [r7, #4]
 1283 01f2 D3F88030 		ldr	r3, [r3, #128]
 1284 01f6 1B68     		ldr	r3, [r3]
 1285 01f8 264A     		ldr	r2, .L46+56
 1286 01fa 9342     		cmp	r3, r2
 1287 01fc 14D0     		beq	.L36
 157:User/BSP/UART_data_txrx.c ****   }
 1288              		.loc 1 157 5 discriminator 26
 1289 01fe 7B68     		ldr	r3, [r7, #4]
 1290 0200 D3F88030 		ldr	r3, [r3, #128]
 1291 0204 1B68     		ldr	r3, [r3]
 1292 0206 244A     		ldr	r2, .L46+60
 1293 0208 9342     		cmp	r3, r2
 1294 020a 0DD0     		beq	.L36
 157:User/BSP/UART_data_txrx.c ****   }
 1295              		.loc 1 157 5 discriminator 28
 1296 020c 7B68     		ldr	r3, [r7, #4]
 1297 020e D3F88030 		ldr	r3, [r3, #128]
 1298 0212 1B68     		ldr	r3, [r3]
 1299 0214 214A     		ldr	r2, .L46+64
 1300 0216 9342     		cmp	r3, r2
 1301 0218 06D0     		beq	.L36
 157:User/BSP/UART_data_txrx.c ****   }
 1302              		.loc 1 157 5 discriminator 30
 1303 021a 7B68     		ldr	r3, [r7, #4]
 1304 021c D3F88030 		ldr	r3, [r3, #128]
 1305 0220 1B68     		ldr	r3, [r3]
 1306 0222 1F4A     		ldr	r2, .L46+68
 1307 0224 9342     		cmp	r3, r2
 1308 0226 0CD1     		bne	.L37
 1309              	.L36:
 157:User/BSP/UART_data_txrx.c ****   }
 1310              		.loc 1 157 5 discriminator 31
ARM GAS  C:\Users\Godwin\AppData\Local\Temp\ccGMPn8j.s 			page 28


 1311 0228 7B68     		ldr	r3, [r7, #4]
 1312 022a D3F88030 		ldr	r3, [r3, #128]
 1313 022e 1B68     		ldr	r3, [r3]
 1314 0230 1A68     		ldr	r2, [r3]
 1315 0232 7B68     		ldr	r3, [r7, #4]
 1316 0234 D3F88030 		ldr	r3, [r3, #128]
 1317 0238 1B68     		ldr	r3, [r3]
 1318 023a 22F00802 		bic	r2, r2, #8
 1319 023e 1A60     		str	r2, [r3]
 157:User/BSP/UART_data_txrx.c ****   }
 1320              		.loc 1 157 5
 1321 0240 5EE1     		b	.L34
 1322              	.L37:
 157:User/BSP/UART_data_txrx.c ****   }
 1323              		.loc 1 157 5 discriminator 32
 1324 0242 7B68     		ldr	r3, [r7, #4]
 1325 0244 D3F88030 		ldr	r3, [r3, #128]
 1326 0248 1B68     		ldr	r3, [r3]
 1327 024a 1A68     		ldr	r2, [r3]
 1328 024c 7B68     		ldr	r3, [r7, #4]
 1329 024e D3F88030 		ldr	r3, [r3, #128]
 1330 0252 1B68     		ldr	r3, [r3]
 1331 0254 22F00402 		bic	r2, r2, #4
 1332 0258 1A60     		str	r2, [r3]
 1333              		.loc 1 169 1 is_stmt 1
 1334 025a 51E1     		b	.L45
 1335              	.L47:
 1336              		.align	2
 1337              	.L46:
 1338 025c 00000000 		.word	huart7
 1339 0260 0C000000 		.word	UART7_data+12
 1340 0264 10000240 		.word	1073872912
 1341 0268 28000240 		.word	1073872936
 1342 026c 40000240 		.word	1073872960
 1343 0270 58000240 		.word	1073872984
 1344 0274 70000240 		.word	1073873008
 1345 0278 88000240 		.word	1073873032
 1346 027c A0000240 		.word	1073873056
 1347 0280 B8000240 		.word	1073873080
 1348 0284 10040240 		.word	1073873936
 1349 0288 28040240 		.word	1073873960
 1350 028c 40040240 		.word	1073873984
 1351 0290 58040240 		.word	1073874008
 1352 0294 70040240 		.word	1073874032
 1353 0298 88040240 		.word	1073874056
 1354 029c A0040240 		.word	1073874080
 1355 02a0 B8040240 		.word	1073874104
 1356 02a4 00000000 		.word	huart10
 1357 02a8 0C000000 		.word	UART10_data+12
 1358              	.L35:
 159:User/BSP/UART_data_txrx.c ****   {
 1359              		.loc 1 159 11
 1360 02ac 7B68     		ldr	r3, [r7, #4]
 1361 02ae 964A     		ldr	r2, .L48
 1362 02b0 9342     		cmp	r3, r2
 1363 02b2 40F09080 		bne	.L39
 161:User/BSP/UART_data_txrx.c ****     __HAL_DMA_DISABLE_IT(huart->hdmarx, DMA_IT_HT);
ARM GAS  C:\Users\Godwin\AppData\Local\Temp\ccGMPn8j.s 			page 29


 1364              		.loc 1 161 5
 1365 02b6 4FF48072 		mov	r2, #256
 1366 02ba 9449     		ldr	r1, .L48+4
 1367 02bc 9248     		ldr	r0, .L48
 1368 02be FFF7FEFF 		bl	HAL_UARTEx_ReceiveToIdle_DMA
 162:User/BSP/UART_data_txrx.c ****   }
 1369              		.loc 1 162 5
 1370 02c2 7B68     		ldr	r3, [r7, #4]
 1371 02c4 D3F88030 		ldr	r3, [r3, #128]
 1372 02c8 1B68     		ldr	r3, [r3]
 1373 02ca 914A     		ldr	r2, .L48+8
 1374 02cc 9342     		cmp	r3, r2
 1375 02ce 68D0     		beq	.L40
 162:User/BSP/UART_data_txrx.c ****   }
 1376              		.loc 1 162 5 is_stmt 0 discriminator 2
 1377 02d0 7B68     		ldr	r3, [r7, #4]
 1378 02d2 D3F88030 		ldr	r3, [r3, #128]
 1379 02d6 1B68     		ldr	r3, [r3]
 1380 02d8 8E4A     		ldr	r2, .L48+12
 1381 02da 9342     		cmp	r3, r2
 1382 02dc 61D0     		beq	.L40
 162:User/BSP/UART_data_txrx.c ****   }
 1383              		.loc 1 162 5 discriminator 4
 1384 02de 7B68     		ldr	r3, [r7, #4]
 1385 02e0 D3F88030 		ldr	r3, [r3, #128]
 1386 02e4 1B68     		ldr	r3, [r3]
 1387 02e6 8C4A     		ldr	r2, .L48+16
 1388 02e8 9342     		cmp	r3, r2
 1389 02ea 5AD0     		beq	.L40
 162:User/BSP/UART_data_txrx.c ****   }
 1390              		.loc 1 162 5 discriminator 6
 1391 02ec 7B68     		ldr	r3, [r7, #4]
 1392 02ee D3F88030 		ldr	r3, [r3, #128]
 1393 02f2 1B68     		ldr	r3, [r3]
 1394 02f4 894A     		ldr	r2, .L48+20
 1395 02f6 9342     		cmp	r3, r2
 1396 02f8 53D0     		beq	.L40
 162:User/BSP/UART_data_txrx.c ****   }
 1397              		.loc 1 162 5 discriminator 8
 1398 02fa 7B68     		ldr	r3, [r7, #4]
 1399 02fc D3F88030 		ldr	r3, [r3, #128]
 1400 0300 1B68     		ldr	r3, [r3]
 1401 0302 874A     		ldr	r2, .L48+24
 1402 0304 9342     		cmp	r3, r2
 1403 0306 4CD0     		beq	.L40
 162:User/BSP/UART_data_txrx.c ****   }
 1404              		.loc 1 162 5 discriminator 10
 1405 0308 7B68     		ldr	r3, [r7, #4]
 1406 030a D3F88030 		ldr	r3, [r3, #128]
 1407 030e 1B68     		ldr	r3, [r3]
 1408 0310 844A     		ldr	r2, .L48+28
 1409 0312 9342     		cmp	r3, r2
 1410 0314 45D0     		beq	.L40
 162:User/BSP/UART_data_txrx.c ****   }
 1411              		.loc 1 162 5 discriminator 12
 1412 0316 7B68     		ldr	r3, [r7, #4]
 1413 0318 D3F88030 		ldr	r3, [r3, #128]
ARM GAS  C:\Users\Godwin\AppData\Local\Temp\ccGMPn8j.s 			page 30


 1414 031c 1B68     		ldr	r3, [r3]
 1415 031e 824A     		ldr	r2, .L48+32
 1416 0320 9342     		cmp	r3, r2
 1417 0322 3ED0     		beq	.L40
 162:User/BSP/UART_data_txrx.c ****   }
 1418              		.loc 1 162 5 discriminator 14
 1419 0324 7B68     		ldr	r3, [r7, #4]
 1420 0326 D3F88030 		ldr	r3, [r3, #128]
 1421 032a 1B68     		ldr	r3, [r3]
 1422 032c 7F4A     		ldr	r2, .L48+36
 1423 032e 9342     		cmp	r3, r2
 1424 0330 37D0     		beq	.L40
 162:User/BSP/UART_data_txrx.c ****   }
 1425              		.loc 1 162 5 discriminator 16
 1426 0332 7B68     		ldr	r3, [r7, #4]
 1427 0334 D3F88030 		ldr	r3, [r3, #128]
 1428 0338 1B68     		ldr	r3, [r3]
 1429 033a 7D4A     		ldr	r2, .L48+40
 1430 033c 9342     		cmp	r3, r2
 1431 033e 30D0     		beq	.L40
 162:User/BSP/UART_data_txrx.c ****   }
 1432              		.loc 1 162 5 discriminator 18
 1433 0340 7B68     		ldr	r3, [r7, #4]
 1434 0342 D3F88030 		ldr	r3, [r3, #128]
 1435 0346 1B68     		ldr	r3, [r3]
 1436 0348 7A4A     		ldr	r2, .L48+44
 1437 034a 9342     		cmp	r3, r2
 1438 034c 29D0     		beq	.L40
 162:User/BSP/UART_data_txrx.c ****   }
 1439              		.loc 1 162 5 discriminator 20
 1440 034e 7B68     		ldr	r3, [r7, #4]
 1441 0350 D3F88030 		ldr	r3, [r3, #128]
 1442 0354 1B68     		ldr	r3, [r3]
 1443 0356 784A     		ldr	r2, .L48+48
 1444 0358 9342     		cmp	r3, r2
 1445 035a 22D0     		beq	.L40
 162:User/BSP/UART_data_txrx.c ****   }
 1446              		.loc 1 162 5 discriminator 22
 1447 035c 7B68     		ldr	r3, [r7, #4]
 1448 035e D3F88030 		ldr	r3, [r3, #128]
 1449 0362 1B68     		ldr	r3, [r3]
 1450 0364 754A     		ldr	r2, .L48+52
 1451 0366 9342     		cmp	r3, r2
 1452 0368 1BD0     		beq	.L40
 162:User/BSP/UART_data_txrx.c ****   }
 1453              		.loc 1 162 5 discriminator 24
 1454 036a 7B68     		ldr	r3, [r7, #4]
 1455 036c D3F88030 		ldr	r3, [r3, #128]
 1456 0370 1B68     		ldr	r3, [r3]
 1457 0372 734A     		ldr	r2, .L48+56
 1458 0374 9342     		cmp	r3, r2
 1459 0376 14D0     		beq	.L40
 162:User/BSP/UART_data_txrx.c ****   }
 1460              		.loc 1 162 5 discriminator 26
 1461 0378 7B68     		ldr	r3, [r7, #4]
 1462 037a D3F88030 		ldr	r3, [r3, #128]
 1463 037e 1B68     		ldr	r3, [r3]
ARM GAS  C:\Users\Godwin\AppData\Local\Temp\ccGMPn8j.s 			page 31


 1464 0380 704A     		ldr	r2, .L48+60
 1465 0382 9342     		cmp	r3, r2
 1466 0384 0DD0     		beq	.L40
 162:User/BSP/UART_data_txrx.c ****   }
 1467              		.loc 1 162 5 discriminator 28
 1468 0386 7B68     		ldr	r3, [r7, #4]
 1469 0388 D3F88030 		ldr	r3, [r3, #128]
 1470 038c 1B68     		ldr	r3, [r3]
 1471 038e 6E4A     		ldr	r2, .L48+64
 1472 0390 9342     		cmp	r3, r2
 1473 0392 06D0     		beq	.L40
 162:User/BSP/UART_data_txrx.c ****   }
 1474              		.loc 1 162 5 discriminator 30
 1475 0394 7B68     		ldr	r3, [r7, #4]
 1476 0396 D3F88030 		ldr	r3, [r3, #128]
 1477 039a 1B68     		ldr	r3, [r3]
 1478 039c 6B4A     		ldr	r2, .L48+68
 1479 039e 9342     		cmp	r3, r2
 1480 03a0 0CD1     		bne	.L41
 1481              	.L40:
 162:User/BSP/UART_data_txrx.c ****   }
 1482              		.loc 1 162 5 discriminator 31
 1483 03a2 7B68     		ldr	r3, [r7, #4]
 1484 03a4 D3F88030 		ldr	r3, [r3, #128]
 1485 03a8 1B68     		ldr	r3, [r3]
 1486 03aa 1A68     		ldr	r2, [r3]
 1487 03ac 7B68     		ldr	r3, [r7, #4]
 1488 03ae D3F88030 		ldr	r3, [r3, #128]
 1489 03b2 1B68     		ldr	r3, [r3]
 1490 03b4 22F00802 		bic	r2, r2, #8
 1491 03b8 1A60     		str	r2, [r3]
 162:User/BSP/UART_data_txrx.c ****   }
 1492              		.loc 1 162 5
 1493 03ba A1E0     		b	.L34
 1494              	.L41:
 162:User/BSP/UART_data_txrx.c ****   }
 1495              		.loc 1 162 5 discriminator 32
 1496 03bc 7B68     		ldr	r3, [r7, #4]
 1497 03be D3F88030 		ldr	r3, [r3, #128]
 1498 03c2 1B68     		ldr	r3, [r3]
 1499 03c4 1A68     		ldr	r2, [r3]
 1500 03c6 7B68     		ldr	r3, [r7, #4]
 1501 03c8 D3F88030 		ldr	r3, [r3, #128]
 1502 03cc 1B68     		ldr	r3, [r3]
 1503 03ce 22F00402 		bic	r2, r2, #4
 1504 03d2 1A60     		str	r2, [r3]
 1505              		.loc 1 169 1 is_stmt 1
 1506 03d4 94E0     		b	.L45
 1507              	.L39:
 164:User/BSP/UART_data_txrx.c ****   {
 1508              		.loc 1 164 11
 1509 03d6 7B68     		ldr	r3, [r7, #4]
 1510 03d8 5D4A     		ldr	r2, .L48+72
 1511 03da 9342     		cmp	r3, r2
 1512 03dc 40F09080 		bne	.L45
 166:User/BSP/UART_data_txrx.c ****     __HAL_DMA_DISABLE_IT(huart->hdmarx, DMA_IT_HT);
 1513              		.loc 1 166 5
ARM GAS  C:\Users\Godwin\AppData\Local\Temp\ccGMPn8j.s 			page 32


 1514 03e0 4FF48072 		mov	r2, #256
 1515 03e4 5B49     		ldr	r1, .L48+76
 1516 03e6 5A48     		ldr	r0, .L48+72
 1517 03e8 FFF7FEFF 		bl	HAL_UARTEx_ReceiveToIdle_DMA
 167:User/BSP/UART_data_txrx.c ****   }
 1518              		.loc 1 167 5
 1519 03ec 7B68     		ldr	r3, [r7, #4]
 1520 03ee D3F88030 		ldr	r3, [r3, #128]
 1521 03f2 1B68     		ldr	r3, [r3]
 1522 03f4 464A     		ldr	r2, .L48+8
 1523 03f6 9342     		cmp	r3, r2
 1524 03f8 68D0     		beq	.L43
 167:User/BSP/UART_data_txrx.c ****   }
 1525              		.loc 1 167 5 is_stmt 0 discriminator 2
 1526 03fa 7B68     		ldr	r3, [r7, #4]
 1527 03fc D3F88030 		ldr	r3, [r3, #128]
 1528 0400 1B68     		ldr	r3, [r3]
 1529 0402 444A     		ldr	r2, .L48+12
 1530 0404 9342     		cmp	r3, r2
 1531 0406 61D0     		beq	.L43
 167:User/BSP/UART_data_txrx.c ****   }
 1532              		.loc 1 167 5 discriminator 4
 1533 0408 7B68     		ldr	r3, [r7, #4]
 1534 040a D3F88030 		ldr	r3, [r3, #128]
 1535 040e 1B68     		ldr	r3, [r3]
 1536 0410 414A     		ldr	r2, .L48+16
 1537 0412 9342     		cmp	r3, r2
 1538 0414 5AD0     		beq	.L43
 167:User/BSP/UART_data_txrx.c ****   }
 1539              		.loc 1 167 5 discriminator 6
 1540 0416 7B68     		ldr	r3, [r7, #4]
 1541 0418 D3F88030 		ldr	r3, [r3, #128]
 1542 041c 1B68     		ldr	r3, [r3]
 1543 041e 3F4A     		ldr	r2, .L48+20
 1544 0420 9342     		cmp	r3, r2
 1545 0422 53D0     		beq	.L43
 167:User/BSP/UART_data_txrx.c ****   }
 1546              		.loc 1 167 5 discriminator 8
 1547 0424 7B68     		ldr	r3, [r7, #4]
 1548 0426 D3F88030 		ldr	r3, [r3, #128]
 1549 042a 1B68     		ldr	r3, [r3]
 1550 042c 3C4A     		ldr	r2, .L48+24
 1551 042e 9342     		cmp	r3, r2
 1552 0430 4CD0     		beq	.L43
 167:User/BSP/UART_data_txrx.c ****   }
 1553              		.loc 1 167 5 discriminator 10
 1554 0432 7B68     		ldr	r3, [r7, #4]
 1555 0434 D3F88030 		ldr	r3, [r3, #128]
 1556 0438 1B68     		ldr	r3, [r3]
 1557 043a 3A4A     		ldr	r2, .L48+28
 1558 043c 9342     		cmp	r3, r2
 1559 043e 45D0     		beq	.L43
 167:User/BSP/UART_data_txrx.c ****   }
 1560              		.loc 1 167 5 discriminator 12
 1561 0440 7B68     		ldr	r3, [r7, #4]
 1562 0442 D3F88030 		ldr	r3, [r3, #128]
 1563 0446 1B68     		ldr	r3, [r3]
ARM GAS  C:\Users\Godwin\AppData\Local\Temp\ccGMPn8j.s 			page 33


 1564 0448 374A     		ldr	r2, .L48+32
 1565 044a 9342     		cmp	r3, r2
 1566 044c 3ED0     		beq	.L43
 167:User/BSP/UART_data_txrx.c ****   }
 1567              		.loc 1 167 5 discriminator 14
 1568 044e 7B68     		ldr	r3, [r7, #4]
 1569 0450 D3F88030 		ldr	r3, [r3, #128]
 1570 0454 1B68     		ldr	r3, [r3]
 1571 0456 354A     		ldr	r2, .L48+36
 1572 0458 9342     		cmp	r3, r2
 1573 045a 37D0     		beq	.L43
 167:User/BSP/UART_data_txrx.c ****   }
 1574              		.loc 1 167 5 discriminator 16
 1575 045c 7B68     		ldr	r3, [r7, #4]
 1576 045e D3F88030 		ldr	r3, [r3, #128]
 1577 0462 1B68     		ldr	r3, [r3]
 1578 0464 324A     		ldr	r2, .L48+40
 1579 0466 9342     		cmp	r3, r2
 1580 0468 30D0     		beq	.L43
 167:User/BSP/UART_data_txrx.c ****   }
 1581              		.loc 1 167 5 discriminator 18
 1582 046a 7B68     		ldr	r3, [r7, #4]
 1583 046c D3F88030 		ldr	r3, [r3, #128]
 1584 0470 1B68     		ldr	r3, [r3]
 1585 0472 304A     		ldr	r2, .L48+44
 1586 0474 9342     		cmp	r3, r2
 1587 0476 29D0     		beq	.L43
 167:User/BSP/UART_data_txrx.c ****   }
 1588              		.loc 1 167 5 discriminator 20
 1589 0478 7B68     		ldr	r3, [r7, #4]
 1590 047a D3F88030 		ldr	r3, [r3, #128]
 1591 047e 1B68     		ldr	r3, [r3]
 1592 0480 2D4A     		ldr	r2, .L48+48
 1593 0482 9342     		cmp	r3, r2
 1594 0484 22D0     		beq	.L43
 167:User/BSP/UART_data_txrx.c ****   }
 1595              		.loc 1 167 5 discriminator 22
 1596 0486 7B68     		ldr	r3, [r7, #4]
 1597 0488 D3F88030 		ldr	r3, [r3, #128]
 1598 048c 1B68     		ldr	r3, [r3]
 1599 048e 2B4A     		ldr	r2, .L48+52
 1600 0490 9342     		cmp	r3, r2
 1601 0492 1BD0     		beq	.L43
 167:User/BSP/UART_data_txrx.c ****   }
 1602              		.loc 1 167 5 discriminator 24
 1603 0494 7B68     		ldr	r3, [r7, #4]
 1604 0496 D3F88030 		ldr	r3, [r3, #128]
 1605 049a 1B68     		ldr	r3, [r3]
 1606 049c 284A     		ldr	r2, .L48+56
 1607 049e 9342     		cmp	r3, r2
 1608 04a0 14D0     		beq	.L43
 167:User/BSP/UART_data_txrx.c ****   }
 1609              		.loc 1 167 5 discriminator 26
 1610 04a2 7B68     		ldr	r3, [r7, #4]
 1611 04a4 D3F88030 		ldr	r3, [r3, #128]
 1612 04a8 1B68     		ldr	r3, [r3]
 1613 04aa 264A     		ldr	r2, .L48+60
ARM GAS  C:\Users\Godwin\AppData\Local\Temp\ccGMPn8j.s 			page 34


 1614 04ac 9342     		cmp	r3, r2
 1615 04ae 0DD0     		beq	.L43
 167:User/BSP/UART_data_txrx.c ****   }
 1616              		.loc 1 167 5 discriminator 28
 1617 04b0 7B68     		ldr	r3, [r7, #4]
 1618 04b2 D3F88030 		ldr	r3, [r3, #128]
 1619 04b6 1B68     		ldr	r3, [r3]
 1620 04b8 234A     		ldr	r2, .L48+64
 1621 04ba 9342     		cmp	r3, r2
 1622 04bc 06D0     		beq	.L43
 167:User/BSP/UART_data_txrx.c ****   }
 1623              		.loc 1 167 5 discriminator 30
 1624 04be 7B68     		ldr	r3, [r7, #4]
 1625 04c0 D3F88030 		ldr	r3, [r3, #128]
 1626 04c4 1B68     		ldr	r3, [r3]
 1627 04c6 214A     		ldr	r2, .L48+68
 1628 04c8 9342     		cmp	r3, r2
 1629 04ca 0CD1     		bne	.L44
 1630              	.L43:
 167:User/BSP/UART_data_txrx.c ****   }
 1631              		.loc 1 167 5 discriminator 31
 1632 04cc 7B68     		ldr	r3, [r7, #4]
 1633 04ce D3F88030 		ldr	r3, [r3, #128]
 1634 04d2 1B68     		ldr	r3, [r3]
 1635 04d4 1A68     		ldr	r2, [r3]
 1636 04d6 7B68     		ldr	r3, [r7, #4]
 1637 04d8 D3F88030 		ldr	r3, [r3, #128]
 1638 04dc 1B68     		ldr	r3, [r3]
 1639 04de 22F00802 		bic	r2, r2, #8
 1640 04e2 1A60     		str	r2, [r3]
 167:User/BSP/UART_data_txrx.c ****   }
 1641              		.loc 1 167 5
 1642 04e4 0CE0     		b	.L34
 1643              	.L44:
 167:User/BSP/UART_data_txrx.c ****   }
 1644              		.loc 1 167 5 discriminator 32
 1645 04e6 7B68     		ldr	r3, [r7, #4]
 1646 04e8 D3F88030 		ldr	r3, [r3, #128]
 1647 04ec 1B68     		ldr	r3, [r3]
 1648 04ee 1A68     		ldr	r2, [r3]
 1649 04f0 7B68     		ldr	r3, [r7, #4]
 1650 04f2 D3F88030 		ldr	r3, [r3, #128]
 1651 04f6 1B68     		ldr	r3, [r3]
 1652 04f8 22F00402 		bic	r2, r2, #4
 1653 04fc 1A60     		str	r2, [r3]
 1654              		.loc 1 169 1 is_stmt 1
 1655 04fe FFE7     		b	.L45
 1656              	.L34:
 1657              	.L45:
 1658 0500 00BF     		nop
 1659 0502 0837     		adds	r7, r7, #8
 1660              	.LCFI27:
 1661              		.cfi_def_cfa_offset 8
 1662 0504 BD46     		mov	sp, r7
 1663              	.LCFI28:
 1664              		.cfi_def_cfa_register 13
 1665              		@ sp needed
ARM GAS  C:\Users\Godwin\AppData\Local\Temp\ccGMPn8j.s 			page 35


 1666 0506 80BD     		pop	{r7, pc}
 1667              	.L49:
 1668              		.align	2
 1669              	.L48:
 1670 0508 00000000 		.word	huart5
 1671 050c 0C000000 		.word	UART5_data+12
 1672 0510 10000240 		.word	1073872912
 1673 0514 28000240 		.word	1073872936
 1674 0518 40000240 		.word	1073872960
 1675 051c 58000240 		.word	1073872984
 1676 0520 70000240 		.word	1073873008
 1677 0524 88000240 		.word	1073873032
 1678 0528 A0000240 		.word	1073873056
 1679 052c B8000240 		.word	1073873080
 1680 0530 10040240 		.word	1073873936
 1681 0534 28040240 		.word	1073873960
 1682 0538 40040240 		.word	1073873984
 1683 053c 58040240 		.word	1073874008
 1684 0540 70040240 		.word	1073874032
 1685 0544 88040240 		.word	1073874056
 1686 0548 A0040240 		.word	1073874080
 1687 054c B8040240 		.word	1073874104
 1688 0550 00000000 		.word	huart1
 1689 0554 0C000000 		.word	UART1_data+12
 1690              		.cfi_endproc
 1691              	.LFE152:
 1693              		.text
 1694              	.Letext0:
 1695              		.file 2 "C:/Users/Godwin/13.2 Rel1/arm-none-eabi/include/machine/_default_types.h"
 1696              		.file 3 "C:/Users/Godwin/13.2 Rel1/arm-none-eabi/include/sys/_stdint.h"
 1697              		.file 4 "Drivers/CMSIS/Device/ST/STM32H7xx/Include/stm32h723xx.h"
 1698              		.file 5 "Drivers/STM32H7xx_HAL_Driver/Inc/stm32h7xx_hal_def.h"
 1699              		.file 6 "Drivers/STM32H7xx_HAL_Driver/Inc/stm32h7xx_hal_dma.h"
 1700              		.file 7 "Drivers/STM32H7xx_HAL_Driver/Inc/stm32h7xx_hal_uart.h"
 1701              		.file 8 "Core/Inc/usart.h"
 1702              		.file 9 "User/BSP/UART_data_txrx.h"
 1703              		.file 10 "Drivers/STM32H7xx_HAL_Driver/Inc/stm32h7xx_hal_uart_ex.h"
ARM GAS  C:\Users\Godwin\AppData\Local\Temp\ccGMPn8j.s 			page 36

